ARM GAS  C:\Users\VICTOR~1\AppData\Local\Temp\ccs9idjb.s 			page 1


   1              		.syntax unified
   2              		.cpu cortex-m3
   3              		.fpu softvfp
   4              		.eabi_attribute 20, 1
   5              		.eabi_attribute 21, 1
   6              		.eabi_attribute 23, 3
   7              		.eabi_attribute 24, 1
   8              		.eabi_attribute 25, 1
   9              		.eabi_attribute 26, 1
  10              		.eabi_attribute 30, 6
  11              		.eabi_attribute 34, 1
  12              		.eabi_attribute 18, 4
  13              		.thumb
  14              		.file	"Filter_PM.c"
  15              		.text
  16              	.Ltext0:
  17              		.cfi_sections	.debug_frame
  18              		.data
  19              		.align	2
  20              		.type	Filter_backup, %object
  21              		.size	Filter_backup, 68
  22              	Filter_backup:
  23 0000 00       		.byte	0
  24 0001 01       		.byte	1
  25 0002 00000000 		.space	66
  25      00000000 
  25      00000000 
  25      00000000 
  25      00000000 
  26              		.section	.text.Filter_SaveConfig,"ax",%progbits
  27              		.align	2
  28              		.global	Filter_SaveConfig
  29              		.thumb
  30              		.thumb_func
  31              		.type	Filter_SaveConfig, %function
  32              	Filter_SaveConfig:
  33              	.LFB0:
  34              		.file 1 ".\\Generated_Source\\PSoC5\\Filter_PM.c"
   1:.\Generated_Source\PSoC5/Filter_PM.c **** /*******************************************************************************
   2:.\Generated_Source\PSoC5/Filter_PM.c **** * File Name: Filter_PM.c
   3:.\Generated_Source\PSoC5/Filter_PM.c **** * Version 2.20
   4:.\Generated_Source\PSoC5/Filter_PM.c **** *
   5:.\Generated_Source\PSoC5/Filter_PM.c **** * Description:
   6:.\Generated_Source\PSoC5/Filter_PM.c **** *  This file provides the power managaer API source code for the FILT component.
   7:.\Generated_Source\PSoC5/Filter_PM.c **** *
   8:.\Generated_Source\PSoC5/Filter_PM.c **** * Note:
   9:.\Generated_Source\PSoC5/Filter_PM.c **** *  
  10:.\Generated_Source\PSoC5/Filter_PM.c **** *******************************************************************************
  11:.\Generated_Source\PSoC5/Filter_PM.c **** * Copyright 2008-2013, Cypress Semiconductor Corporation.  All rights reserved.
  12:.\Generated_Source\PSoC5/Filter_PM.c **** * You may use this file only in accordance with the license, terms, conditions, 
  13:.\Generated_Source\PSoC5/Filter_PM.c **** * disclaimers, and limitations in the end user license agreement accompanying 
  14:.\Generated_Source\PSoC5/Filter_PM.c **** * the software package with which this file was provided.
  15:.\Generated_Source\PSoC5/Filter_PM.c **** ********************************************************************************/
  16:.\Generated_Source\PSoC5/Filter_PM.c **** 
  17:.\Generated_Source\PSoC5/Filter_PM.c **** #include "Filter_PVT.h"
  18:.\Generated_Source\PSoC5/Filter_PM.c **** 
  19:.\Generated_Source\PSoC5/Filter_PM.c **** static Filter_backupStruct  Filter_backup = 
ARM GAS  C:\Users\VICTOR~1\AppData\Local\Temp\ccs9idjb.s 			page 2


  20:.\Generated_Source\PSoC5/Filter_PM.c **** {
  21:.\Generated_Source\PSoC5/Filter_PM.c ****     Filter_DISABLED,
  22:.\Generated_Source\PSoC5/Filter_PM.c ****     Filter_RUN_MASK,
  23:.\Generated_Source\PSoC5/Filter_PM.c ****     
  24:.\Generated_Source\PSoC5/Filter_PM.c **** };
  25:.\Generated_Source\PSoC5/Filter_PM.c **** 
  26:.\Generated_Source\PSoC5/Filter_PM.c **** 
  27:.\Generated_Source\PSoC5/Filter_PM.c **** /*******************************************************************************
  28:.\Generated_Source\PSoC5/Filter_PM.c **** * Function Name: Filter_SaveConfig
  29:.\Generated_Source\PSoC5/Filter_PM.c **** ********************************************************************************
  30:.\Generated_Source\PSoC5/Filter_PM.c **** *
  31:.\Generated_Source\PSoC5/Filter_PM.c **** * Summary:
  32:.\Generated_Source\PSoC5/Filter_PM.c **** *  Saves the current user configuration.
  33:.\Generated_Source\PSoC5/Filter_PM.c **** *  
  34:.\Generated_Source\PSoC5/Filter_PM.c **** * Parameters:  
  35:.\Generated_Source\PSoC5/Filter_PM.c **** *  void
  36:.\Generated_Source\PSoC5/Filter_PM.c **** *
  37:.\Generated_Source\PSoC5/Filter_PM.c **** * Return: 
  38:.\Generated_Source\PSoC5/Filter_PM.c **** *  void
  39:.\Generated_Source\PSoC5/Filter_PM.c **** *
  40:.\Generated_Source\PSoC5/Filter_PM.c **** * Global variables:
  41:.\Generated_Source\PSoC5/Filter_PM.c **** *  Filter_backup:  This global structure variable is used to store 
  42:.\Generated_Source\PSoC5/Filter_PM.c **** *  configuration registers which are non retention whenever user wants to go 
  43:.\Generated_Source\PSoC5/Filter_PM.c **** *  sleep mode by calling Sleep() API.
  44:.\Generated_Source\PSoC5/Filter_PM.c **** *
  45:.\Generated_Source\PSoC5/Filter_PM.c **** *******************************************************************************/
  46:.\Generated_Source\PSoC5/Filter_PM.c **** void Filter_SaveConfig(void) 
  47:.\Generated_Source\PSoC5/Filter_PM.c **** {
  35              		.loc 1 47 0
  36              		.cfi_startproc
  37              		@ args = 0, pretend = 0, frame = 0
  38              		@ frame_needed = 1, uses_anonymous_args = 0
  39              		@ link register save eliminated.
  40 0000 F0B4     		push	{r4, r5, r6, r7}
  41              	.LCFI0:
  42              		.cfi_def_cfa_offset 16
  43              		.cfi_offset 4, -16
  44              		.cfi_offset 5, -12
  45              		.cfi_offset 6, -8
  46              		.cfi_offset 7, -4
  47 0002 00AF     		add	r7, sp, #0
  48              	.LCFI1:
  49              		.cfi_def_cfa_register 7
  48:.\Generated_Source\PSoC5/Filter_PM.c ****     Filter_backup.cr = Filter_CR_REG;
  50              		.loc 1 48 0
  51 0004 4CF28073 		movw	r3, #51072
  52 0008 C4F20003 		movt	r3, 16384
  53 000c 1B78     		ldrb	r3, [r3, #0]
  54 000e DAB2     		uxtb	r2, r3
  55 0010 40F20003 		movw	r3, #:lower16:Filter_backup
  56 0014 C0F20003 		movt	r3, #:upper16:Filter_backup
  57 0018 5A70     		strb	r2, [r3, #1]
  49:.\Generated_Source\PSoC5/Filter_PM.c ****     Filter_backup.sr = Filter_SR_REG;
  58              		.loc 1 49 0
  59 001a 4CF28473 		movw	r3, #51076
  60 001e C4F20003 		movt	r3, 16384
  61 0022 1B78     		ldrb	r3, [r3, #0]
ARM GAS  C:\Users\VICTOR~1\AppData\Local\Temp\ccs9idjb.s 			page 3


  62 0024 DAB2     		uxtb	r2, r3
  63 0026 40F20003 		movw	r3, #:lower16:Filter_backup
  64 002a C0F20003 		movt	r3, #:upper16:Filter_backup
  65 002e 9A70     		strb	r2, [r3, #2]
  50:.\Generated_Source\PSoC5/Filter_PM.c ****     Filter_backup.sema = Filter_SEMA_REG;
  66              		.loc 1 50 0
  67 0030 4CF29073 		movw	r3, #51088
  68 0034 C4F20003 		movt	r3, 16384
  69 0038 1B78     		ldrb	r3, [r3, #0]
  70 003a DAB2     		uxtb	r2, r3
  71 003c 40F20003 		movw	r3, #:lower16:Filter_backup
  72 0040 C0F20003 		movt	r3, #:upper16:Filter_backup
  73 0044 DA70     		strb	r2, [r3, #3]
  51:.\Generated_Source\PSoC5/Filter_PM.c **** 
  52:.\Generated_Source\PSoC5/Filter_PM.c ****     /* Put DFB RAM on the bus */
  53:.\Generated_Source\PSoC5/Filter_PM.c ****     Filter_RAM_DIR_REG = Filter_RAM_DIR_BUS;
  74              		.loc 1 53 0
  75 0046 4CF28C73 		movw	r3, #51084
  76 004a C4F20003 		movt	r3, 16384
  77 004e 4FF03F02 		mov	r2, #63
  78 0052 1A70     		strb	r2, [r3, #0]
  54:.\Generated_Source\PSoC5/Filter_PM.c **** 
  55:.\Generated_Source\PSoC5/Filter_PM.c ****     /* Save the ACU RAM as this is not retension */
  56:.\Generated_Source\PSoC5/Filter_PM.c ****     (void)memcpy(Filter_backup.saveAcu,
  79              		.loc 1 56 0
  80 0054 40F20003 		movw	r3, #:lower16:Filter_backup
  81 0058 C0F20003 		movt	r3, #:upper16:Filter_backup
  82 005c 4FF44742 		mov	r2, #50944
  83 0060 C4F20002 		movt	r2, 16384
  84 0064 1446     		mov	r4, r2
  85 0066 03F10406 		add	r6, r3, #4
  86 006a 04F1400C 		add	ip, r4, #64
  87              	.L2:
  88 006e 3546     		mov	r5, r6
  89 0070 2346     		mov	r3, r4
  90 0072 1868     		ldr	r0, [r3, #0]	@ unaligned
  91 0074 5968     		ldr	r1, [r3, #4]	@ unaligned
  92 0076 9A68     		ldr	r2, [r3, #8]	@ unaligned
  93 0078 DB68     		ldr	r3, [r3, #12]	@ unaligned
  94 007a 0FC5     		stmia	r5!, {r0, r1, r2, r3}
  95 007c 04F11004 		add	r4, r4, #16
  96 0080 06F11006 		add	r6, r6, #16
  97 0084 6445     		cmp	r4, ip
  98 0086 F2D1     		bne	.L2
  57:.\Generated_Source\PSoC5/Filter_PM.c ****         Filter_ACU_RAM, Filter_ACU_RAM_SIZE); 
  58:.\Generated_Source\PSoC5/Filter_PM.c **** 
  59:.\Generated_Source\PSoC5/Filter_PM.c ****     /* Take DFB RAM off the bus */
  60:.\Generated_Source\PSoC5/Filter_PM.c ****     Filter_RAM_DIR_REG = Filter_RAM_DIR_DFB;
  99              		.loc 1 60 0
 100 0088 4CF28C73 		movw	r3, #51084
 101 008c C4F20003 		movt	r3, 16384
 102 0090 4FF00002 		mov	r2, #0
 103 0094 1A70     		strb	r2, [r3, #0]
  61:.\Generated_Source\PSoC5/Filter_PM.c **** }
 104              		.loc 1 61 0
 105 0096 BD46     		mov	sp, r7
 106 0098 F0BC     		pop	{r4, r5, r6, r7}
ARM GAS  C:\Users\VICTOR~1\AppData\Local\Temp\ccs9idjb.s 			page 4


 107 009a 7047     		bx	lr
 108              		.cfi_endproc
 109              	.LFE0:
 110              		.size	Filter_SaveConfig, .-Filter_SaveConfig
 111              		.section	.text.Filter_RestoreConfig,"ax",%progbits
 112              		.align	2
 113              		.global	Filter_RestoreConfig
 114              		.thumb
 115              		.thumb_func
 116              		.type	Filter_RestoreConfig, %function
 117              	Filter_RestoreConfig:
 118              	.LFB1:
  62:.\Generated_Source\PSoC5/Filter_PM.c **** 
  63:.\Generated_Source\PSoC5/Filter_PM.c **** 
  64:.\Generated_Source\PSoC5/Filter_PM.c **** /*******************************************************************************
  65:.\Generated_Source\PSoC5/Filter_PM.c **** * Function Name: Filter_RestoreConfig
  66:.\Generated_Source\PSoC5/Filter_PM.c **** ********************************************************************************
  67:.\Generated_Source\PSoC5/Filter_PM.c **** *
  68:.\Generated_Source\PSoC5/Filter_PM.c **** * Summary:
  69:.\Generated_Source\PSoC5/Filter_PM.c **** *  Restores the current user configuration.
  70:.\Generated_Source\PSoC5/Filter_PM.c **** *
  71:.\Generated_Source\PSoC5/Filter_PM.c **** * Parameters:  
  72:.\Generated_Source\PSoC5/Filter_PM.c **** *  void
  73:.\Generated_Source\PSoC5/Filter_PM.c **** *
  74:.\Generated_Source\PSoC5/Filter_PM.c **** * Return: 
  75:.\Generated_Source\PSoC5/Filter_PM.c **** *  void
  76:.\Generated_Source\PSoC5/Filter_PM.c **** *
  77:.\Generated_Source\PSoC5/Filter_PM.c **** * Global variables:
  78:.\Generated_Source\PSoC5/Filter_PM.c **** *  Filter_backup:  This global structure variable is used to restore 
  79:.\Generated_Source\PSoC5/Filter_PM.c **** *  configuration registers which are non retention whenever user wants to switch 
  80:.\Generated_Source\PSoC5/Filter_PM.c **** *  to active power mode by calling Wakeup() API.
  81:.\Generated_Source\PSoC5/Filter_PM.c **** *
  82:.\Generated_Source\PSoC5/Filter_PM.c **** *******************************************************************************/
  83:.\Generated_Source\PSoC5/Filter_PM.c **** void Filter_RestoreConfig(void) 
  84:.\Generated_Source\PSoC5/Filter_PM.c **** {
 119              		.loc 1 84 0
 120              		.cfi_startproc
 121              		@ args = 0, pretend = 0, frame = 0
 122              		@ frame_needed = 1, uses_anonymous_args = 0
 123              		@ link register save eliminated.
 124 0000 2DE9F001 		push	{r4, r5, r6, r7, r8}
 125              	.LCFI2:
 126              		.cfi_def_cfa_offset 20
 127              		.cfi_offset 4, -20
 128              		.cfi_offset 5, -16
 129              		.cfi_offset 6, -12
 130              		.cfi_offset 7, -8
 131              		.cfi_offset 8, -4
 132 0004 00AF     		add	r7, sp, #0
 133              	.LCFI3:
 134              		.cfi_def_cfa_register 7
  85:.\Generated_Source\PSoC5/Filter_PM.c ****     Filter_CR_REG = Filter_backup.cr;
 135              		.loc 1 85 0
 136 0006 4CF28073 		movw	r3, #51072
 137 000a C4F20003 		movt	r3, 16384
 138 000e 40F20002 		movw	r2, #:lower16:Filter_backup
 139 0012 C0F20002 		movt	r2, #:upper16:Filter_backup
ARM GAS  C:\Users\VICTOR~1\AppData\Local\Temp\ccs9idjb.s 			page 5


 140 0016 5278     		ldrb	r2, [r2, #1]	@ zero_extendqisi2
 141 0018 1A70     		strb	r2, [r3, #0]
  86:.\Generated_Source\PSoC5/Filter_PM.c ****     Filter_SR_REG = Filter_backup.sr;
 142              		.loc 1 86 0
 143 001a 4CF28473 		movw	r3, #51076
 144 001e C4F20003 		movt	r3, 16384
 145 0022 40F20002 		movw	r2, #:lower16:Filter_backup
 146 0026 C0F20002 		movt	r2, #:upper16:Filter_backup
 147 002a 9278     		ldrb	r2, [r2, #2]	@ zero_extendqisi2
 148 002c 1A70     		strb	r2, [r3, #0]
  87:.\Generated_Source\PSoC5/Filter_PM.c ****     Filter_SEMA_REG = Filter_backup.sema;
 149              		.loc 1 87 0
 150 002e 4CF29073 		movw	r3, #51088
 151 0032 C4F20003 		movt	r3, 16384
 152 0036 40F20002 		movw	r2, #:lower16:Filter_backup
 153 003a C0F20002 		movt	r2, #:upper16:Filter_backup
 154 003e D278     		ldrb	r2, [r2, #3]	@ zero_extendqisi2
 155 0040 1A70     		strb	r2, [r3, #0]
  88:.\Generated_Source\PSoC5/Filter_PM.c ****     
  89:.\Generated_Source\PSoC5/Filter_PM.c ****     /* Power on DFB before initializing the RAMs */
  90:.\Generated_Source\PSoC5/Filter_PM.c ****     Filter_PM_ACT_CFG_REG |= Filter_PM_ACT_MSK;
 156              		.loc 1 90 0
 157 0042 44F2A633 		movw	r3, #17318
 158 0046 C4F20003 		movt	r3, 16384
 159 004a 44F2A632 		movw	r2, #17318
 160 004e C4F20002 		movt	r2, 16384
 161 0052 1278     		ldrb	r2, [r2, #0]
 162 0054 D2B2     		uxtb	r2, r2
 163 0056 42F01002 		orr	r2, r2, #16
 164 005a D2B2     		uxtb	r2, r2
 165 005c 1A70     		strb	r2, [r3, #0]
  91:.\Generated_Source\PSoC5/Filter_PM.c **** 
  92:.\Generated_Source\PSoC5/Filter_PM.c ****     /* Put DFB RAM on the bus */
  93:.\Generated_Source\PSoC5/Filter_PM.c ****     Filter_RAM_DIR_REG = Filter_RAM_DIR_BUS;
 166              		.loc 1 93 0
 167 005e 4CF28C73 		movw	r3, #51084
 168 0062 C4F20003 		movt	r3, 16384
 169 0066 4FF03F02 		mov	r2, #63
 170 006a 1A70     		strb	r2, [r3, #0]
  94:.\Generated_Source\PSoC5/Filter_PM.c **** 
  95:.\Generated_Source\PSoC5/Filter_PM.c ****     /* Restore ACU RAM as this is not retension */
  96:.\Generated_Source\PSoC5/Filter_PM.c ****     (void)memcpy(Filter_ACU_RAM,
 171              		.loc 1 96 0
 172 006c 4FF44743 		mov	r3, #50944
 173 0070 C4F20003 		movt	r3, 16384
 174 0074 40F20002 		movw	r2, #:lower16:Filter_backup
 175 0078 C0F20002 		movt	r2, #:upper16:Filter_backup
 176 007c 02F10404 		add	r4, r2, #4
 177 0080 9C46     		mov	ip, r3
 178 0082 04F14008 		add	r8, r4, #64
 179              	.L4:
 180 0086 6546     		mov	r5, ip
 181 0088 2646     		mov	r6, r4
 182 008a 0FCE     		ldmia	r6!, {r0, r1, r2, r3}
 183 008c 2860     		str	r0, [r5, #0]	@ unaligned
 184 008e 6960     		str	r1, [r5, #4]	@ unaligned
 185 0090 AA60     		str	r2, [r5, #8]	@ unaligned
ARM GAS  C:\Users\VICTOR~1\AppData\Local\Temp\ccs9idjb.s 			page 6


 186 0092 EB60     		str	r3, [r5, #12]	@ unaligned
 187 0094 04F11004 		add	r4, r4, #16
 188 0098 0CF1100C 		add	ip, ip, #16
 189 009c 4445     		cmp	r4, r8
 190 009e F2D1     		bne	.L4
  97:.\Generated_Source\PSoC5/Filter_PM.c ****         Filter_backup.saveAcu, Filter_ACU_RAM_SIZE); 
  98:.\Generated_Source\PSoC5/Filter_PM.c **** 
  99:.\Generated_Source\PSoC5/Filter_PM.c ****     /* Take DFB RAM off the bus */
 100:.\Generated_Source\PSoC5/Filter_PM.c ****     Filter_RAM_DIR_REG = Filter_RAM_DIR_DFB;
 191              		.loc 1 100 0
 192 00a0 4CF28C73 		movw	r3, #51084
 193 00a4 C4F20003 		movt	r3, 16384
 194 00a8 4FF00002 		mov	r2, #0
 195 00ac 1A70     		strb	r2, [r3, #0]
 101:.\Generated_Source\PSoC5/Filter_PM.c **** }
 196              		.loc 1 101 0
 197 00ae BD46     		mov	sp, r7
 198 00b0 BDE8F001 		pop	{r4, r5, r6, r7, r8}
 199 00b4 7047     		bx	lr
 200              		.cfi_endproc
 201              	.LFE1:
 202              		.size	Filter_RestoreConfig, .-Filter_RestoreConfig
 203 00b6 00BF     		.section	.text.Filter_Sleep,"ax",%progbits
 204              		.align	2
 205              		.global	Filter_Sleep
 206              		.thumb
 207              		.thumb_func
 208              		.type	Filter_Sleep, %function
 209              	Filter_Sleep:
 210              	.LFB2:
 102:.\Generated_Source\PSoC5/Filter_PM.c **** 
 103:.\Generated_Source\PSoC5/Filter_PM.c **** 
 104:.\Generated_Source\PSoC5/Filter_PM.c **** /*******************************************************************************
 105:.\Generated_Source\PSoC5/Filter_PM.c **** * Function Name: Filter_Sleep
 106:.\Generated_Source\PSoC5/Filter_PM.c **** ********************************************************************************
 107:.\Generated_Source\PSoC5/Filter_PM.c **** *
 108:.\Generated_Source\PSoC5/Filter_PM.c **** * Summary:
 109:.\Generated_Source\PSoC5/Filter_PM.c **** *  Disables block's operation and saves its configuration. Should be called 
 110:.\Generated_Source\PSoC5/Filter_PM.c **** *  just prior to entering sleep.
 111:.\Generated_Source\PSoC5/Filter_PM.c **** *  
 112:.\Generated_Source\PSoC5/Filter_PM.c **** * Parameters:  
 113:.\Generated_Source\PSoC5/Filter_PM.c **** *  void
 114:.\Generated_Source\PSoC5/Filter_PM.c **** *
 115:.\Generated_Source\PSoC5/Filter_PM.c **** * Return: 
 116:.\Generated_Source\PSoC5/Filter_PM.c **** *  void
 117:.\Generated_Source\PSoC5/Filter_PM.c **** *
 118:.\Generated_Source\PSoC5/Filter_PM.c **** * Global variables:
 119:.\Generated_Source\PSoC5/Filter_PM.c **** *  Filter_backup:  The structure field 'enableState' is modified 
 120:.\Generated_Source\PSoC5/Filter_PM.c **** *  depending on the enable state of the block before entering to sleep mode.
 121:.\Generated_Source\PSoC5/Filter_PM.c **** *
 122:.\Generated_Source\PSoC5/Filter_PM.c **** *******************************************************************************/
 123:.\Generated_Source\PSoC5/Filter_PM.c **** void Filter_Sleep(void) 
 124:.\Generated_Source\PSoC5/Filter_PM.c **** {
 211              		.loc 1 124 0
 212              		.cfi_startproc
 213              		@ args = 0, pretend = 0, frame = 0
 214              		@ frame_needed = 1, uses_anonymous_args = 0
ARM GAS  C:\Users\VICTOR~1\AppData\Local\Temp\ccs9idjb.s 			page 7


 215 0000 80B5     		push	{r7, lr}
 216              	.LCFI4:
 217              		.cfi_def_cfa_offset 8
 218              		.cfi_offset 7, -8
 219              		.cfi_offset 14, -4
 220 0002 00AF     		add	r7, sp, #0
 221              	.LCFI5:
 222              		.cfi_def_cfa_register 7
 125:.\Generated_Source\PSoC5/Filter_PM.c ****     /* Save Filter enable state */
 126:.\Generated_Source\PSoC5/Filter_PM.c ****     if(Filter_PM_ACT_MSK == (Filter_PM_ACT_CFG_REG & Filter_PM_ACT_MSK))
 223              		.loc 1 126 0
 224 0004 44F2A633 		movw	r3, #17318
 225 0008 C4F20003 		movt	r3, 16384
 226 000c 1B78     		ldrb	r3, [r3, #0]
 227 000e DBB2     		uxtb	r3, r3
 228 0010 03F01003 		and	r3, r3, #16
 229 0014 002B     		cmp	r3, #0
 230 0016 07D0     		beq	.L6
 127:.\Generated_Source\PSoC5/Filter_PM.c ****     {
 128:.\Generated_Source\PSoC5/Filter_PM.c ****         /* Component is enabled */
 129:.\Generated_Source\PSoC5/Filter_PM.c ****         Filter_backup.enableState = Filter_ENABLED;
 231              		.loc 1 129 0
 232 0018 40F20003 		movw	r3, #:lower16:Filter_backup
 233 001c C0F20003 		movt	r3, #:upper16:Filter_backup
 234 0020 4FF00102 		mov	r2, #1
 235 0024 1A70     		strb	r2, [r3, #0]
 236 0026 06E0     		b	.L7
 237              	.L6:
 130:.\Generated_Source\PSoC5/Filter_PM.c ****     }
 131:.\Generated_Source\PSoC5/Filter_PM.c ****     else
 132:.\Generated_Source\PSoC5/Filter_PM.c ****     {
 133:.\Generated_Source\PSoC5/Filter_PM.c ****         /* Component is disabled */
 134:.\Generated_Source\PSoC5/Filter_PM.c ****         Filter_backup.enableState = Filter_DISABLED;
 238              		.loc 1 134 0
 239 0028 40F20003 		movw	r3, #:lower16:Filter_backup
 240 002c C0F20003 		movt	r3, #:upper16:Filter_backup
 241 0030 4FF00002 		mov	r2, #0
 242 0034 1A70     		strb	r2, [r3, #0]
 243              	.L7:
 135:.\Generated_Source\PSoC5/Filter_PM.c ****     }
 136:.\Generated_Source\PSoC5/Filter_PM.c **** 
 137:.\Generated_Source\PSoC5/Filter_PM.c ****     /* Save the configuration */
 138:.\Generated_Source\PSoC5/Filter_PM.c ****     Filter_SaveConfig();
 244              		.loc 1 138 0
 245 0036 FFF7FEFF 		bl	Filter_SaveConfig
 139:.\Generated_Source\PSoC5/Filter_PM.c ****     
 140:.\Generated_Source\PSoC5/Filter_PM.c ****     /* Stop the component */
 141:.\Generated_Source\PSoC5/Filter_PM.c ****     Filter_Stop();
 246              		.loc 1 141 0
 247 003a FFF7FEFF 		bl	Filter_Stop
 142:.\Generated_Source\PSoC5/Filter_PM.c **** }
 248              		.loc 1 142 0
 249 003e 80BD     		pop	{r7, pc}
 250              		.cfi_endproc
 251              	.LFE2:
 252              		.size	Filter_Sleep, .-Filter_Sleep
 253              		.section	.text.Filter_Wakeup,"ax",%progbits
ARM GAS  C:\Users\VICTOR~1\AppData\Local\Temp\ccs9idjb.s 			page 8


 254              		.align	2
 255              		.global	Filter_Wakeup
 256              		.thumb
 257              		.thumb_func
 258              		.type	Filter_Wakeup, %function
 259              	Filter_Wakeup:
 260              	.LFB3:
 143:.\Generated_Source\PSoC5/Filter_PM.c **** 
 144:.\Generated_Source\PSoC5/Filter_PM.c **** 
 145:.\Generated_Source\PSoC5/Filter_PM.c **** /*******************************************************************************
 146:.\Generated_Source\PSoC5/Filter_PM.c **** * Function Name: Filter_Wakeup
 147:.\Generated_Source\PSoC5/Filter_PM.c **** ********************************************************************************
 148:.\Generated_Source\PSoC5/Filter_PM.c **** *
 149:.\Generated_Source\PSoC5/Filter_PM.c **** * Summary:
 150:.\Generated_Source\PSoC5/Filter_PM.c **** *  Enables block's operation and restores its configuration. Should be called
 151:.\Generated_Source\PSoC5/Filter_PM.c **** *  just after awaking from sleep.
 152:.\Generated_Source\PSoC5/Filter_PM.c **** *  
 153:.\Generated_Source\PSoC5/Filter_PM.c **** * Parameters:  
 154:.\Generated_Source\PSoC5/Filter_PM.c **** *  void
 155:.\Generated_Source\PSoC5/Filter_PM.c **** *
 156:.\Generated_Source\PSoC5/Filter_PM.c **** * Return: 
 157:.\Generated_Source\PSoC5/Filter_PM.c **** *  void
 158:.\Generated_Source\PSoC5/Filter_PM.c **** *
 159:.\Generated_Source\PSoC5/Filter_PM.c **** * Global variables:
 160:.\Generated_Source\PSoC5/Filter_PM.c **** *  Filter_backup:  The structure field 'enableState' is used to 
 161:.\Generated_Source\PSoC5/Filter_PM.c **** *  restore the enable state of block after wakeup from sleep mode.
 162:.\Generated_Source\PSoC5/Filter_PM.c **** *
 163:.\Generated_Source\PSoC5/Filter_PM.c **** *******************************************************************************/
 164:.\Generated_Source\PSoC5/Filter_PM.c **** void Filter_Wakeup(void) 
 165:.\Generated_Source\PSoC5/Filter_PM.c **** {
 261              		.loc 1 165 0
 262              		.cfi_startproc
 263              		@ args = 0, pretend = 0, frame = 0
 264              		@ frame_needed = 1, uses_anonymous_args = 0
 265 0000 80B5     		push	{r7, lr}
 266              	.LCFI6:
 267              		.cfi_def_cfa_offset 8
 268              		.cfi_offset 7, -8
 269              		.cfi_offset 14, -4
 270 0002 00AF     		add	r7, sp, #0
 271              	.LCFI7:
 272              		.cfi_def_cfa_register 7
 166:.\Generated_Source\PSoC5/Filter_PM.c ****     /* Restore the configuration */
 167:.\Generated_Source\PSoC5/Filter_PM.c ****     Filter_RestoreConfig();
 273              		.loc 1 167 0
 274 0004 FFF7FEFF 		bl	Filter_RestoreConfig
 168:.\Generated_Source\PSoC5/Filter_PM.c ****     
 169:.\Generated_Source\PSoC5/Filter_PM.c ****     /* Enable's the component operation */
 170:.\Generated_Source\PSoC5/Filter_PM.c ****     if(Filter_backup.enableState == Filter_ENABLED)
 275              		.loc 1 170 0
 276 0008 40F20003 		movw	r3, #:lower16:Filter_backup
 277 000c C0F20003 		movt	r3, #:upper16:Filter_backup
 278 0010 1B78     		ldrb	r3, [r3, #0]	@ zero_extendqisi2
 279 0012 012B     		cmp	r3, #1
 280 0014 01D1     		bne	.L8
 171:.\Generated_Source\PSoC5/Filter_PM.c ****     {
 172:.\Generated_Source\PSoC5/Filter_PM.c ****         Filter_Enable();
ARM GAS  C:\Users\VICTOR~1\AppData\Local\Temp\ccs9idjb.s 			page 9


 281              		.loc 1 172 0
 282 0016 FFF7FEFF 		bl	Filter_Enable
 283              	.L8:
 173:.\Generated_Source\PSoC5/Filter_PM.c ****     } /* Do nothing if component was disable before */
 174:.\Generated_Source\PSoC5/Filter_PM.c **** }
 284              		.loc 1 174 0
 285 001a 80BD     		pop	{r7, pc}
 286              		.cfi_endproc
 287              	.LFE3:
 288              		.size	Filter_Wakeup, .-Filter_Wakeup
 289              		.text
 290              	.Letext0:
 291              		.file 2 ".\\Generated_Source\\PSoC5\\cytypes.h"
 292              		.file 3 ".\\Generated_Source\\PSoC5\\Filter.H"