ARM GAS  C:\Users\VICTOR~1\AppData\Local\Temp\ccSusWlX.s 			page 1


   1              		.syntax unified
   2              		.cpu cortex-m3
   3              		.fpu softvfp
   4              		.eabi_attribute 20, 1
   5              		.eabi_attribute 21, 1
   6              		.eabi_attribute 23, 3
   7              		.eabi_attribute 24, 1
   8              		.eabi_attribute 25, 1
   9              		.eabi_attribute 26, 1
  10              		.eabi_attribute 30, 6
  11              		.eabi_attribute 34, 1
  12              		.eabi_attribute 18, 4
  13              		.thumb
  14              		.file	"Filter.c"
  15              		.text
  16              	.Ltext0:
  17              		.cfi_sections	.debug_frame
  18              		.global	Filter_initVar
  19              		.bss
  20              		.type	Filter_initVar, %object
  21              		.size	Filter_initVar, 1
  22              	Filter_initVar:
  23 0000 00       		.space	1
  24              		.section	.text.Filter_Init,"ax",%progbits
  25              		.align	2
  26              		.global	Filter_Init
  27              		.thumb
  28              		.thumb_func
  29              		.type	Filter_Init, %function
  30              	Filter_Init:
  31              	.LFB0:
  32              		.file 1 ".\\Generated_Source\\PSoC5\\Filter.c"
   1:.\Generated_Source\PSoC5/Filter.c **** /*******************************************************************************
   2:.\Generated_Source\PSoC5/Filter.c **** * File Name: Filter.c
   3:.\Generated_Source\PSoC5/Filter.c **** * Version 2.20
   4:.\Generated_Source\PSoC5/Filter.c **** *
   5:.\Generated_Source\PSoC5/Filter.c **** * Description:
   6:.\Generated_Source\PSoC5/Filter.c **** *  This file provides the API source code for the FILT component.
   7:.\Generated_Source\PSoC5/Filter.c **** *
   8:.\Generated_Source\PSoC5/Filter.c **** * Note:
   9:.\Generated_Source\PSoC5/Filter.c **** *  
  10:.\Generated_Source\PSoC5/Filter.c **** *******************************************************************************
  11:.\Generated_Source\PSoC5/Filter.c **** * Copyright 2008-2013, Cypress Semiconductor Corporation.  All rights reserved.
  12:.\Generated_Source\PSoC5/Filter.c **** * You may use this file only in accordance with the license, terms, conditions, 
  13:.\Generated_Source\PSoC5/Filter.c **** * disclaimers, and limitations in the end user license agreement accompanying 
  14:.\Generated_Source\PSoC5/Filter.c **** * the software package with which this file was provided.
  15:.\Generated_Source\PSoC5/Filter.c **** ********************************************************************************/
  16:.\Generated_Source\PSoC5/Filter.c **** 
  17:.\Generated_Source\PSoC5/Filter.c **** #include "Filter_PVT.h"
  18:.\Generated_Source\PSoC5/Filter.c **** 
  19:.\Generated_Source\PSoC5/Filter.c **** 
  20:.\Generated_Source\PSoC5/Filter.c **** /*******************************************************************************
  21:.\Generated_Source\PSoC5/Filter.c **** * FILT component internal variables.
  22:.\Generated_Source\PSoC5/Filter.c **** *******************************************************************************/
  23:.\Generated_Source\PSoC5/Filter.c **** 
  24:.\Generated_Source\PSoC5/Filter.c **** uint8 Filter_initVar = 0x0u;
  25:.\Generated_Source\PSoC5/Filter.c **** 
ARM GAS  C:\Users\VICTOR~1\AppData\Local\Temp\ccSusWlX.s 			page 2


  26:.\Generated_Source\PSoC5/Filter.c **** 
  27:.\Generated_Source\PSoC5/Filter.c **** /*******************************************************************************
  28:.\Generated_Source\PSoC5/Filter.c **** * Function Name: Filter_Init
  29:.\Generated_Source\PSoC5/Filter.c **** ********************************************************************************
  30:.\Generated_Source\PSoC5/Filter.c **** *
  31:.\Generated_Source\PSoC5/Filter.c **** * Summary:
  32:.\Generated_Source\PSoC5/Filter.c **** *  Initialize component's parameters to the parameters set by user in the 
  33:.\Generated_Source\PSoC5/Filter.c **** *  customizer of the component placed onto schematic. Usually called in 
  34:.\Generated_Source\PSoC5/Filter.c **** *  Filter_Start().
  35:.\Generated_Source\PSoC5/Filter.c **** *
  36:.\Generated_Source\PSoC5/Filter.c **** * Parameters:  
  37:.\Generated_Source\PSoC5/Filter.c **** *  void
  38:.\Generated_Source\PSoC5/Filter.c **** *
  39:.\Generated_Source\PSoC5/Filter.c **** * Return: 
  40:.\Generated_Source\PSoC5/Filter.c **** *  void
  41:.\Generated_Source\PSoC5/Filter.c **** *
  42:.\Generated_Source\PSoC5/Filter.c **** *******************************************************************************/
  43:.\Generated_Source\PSoC5/Filter.c **** void Filter_Init(void) 
  44:.\Generated_Source\PSoC5/Filter.c **** {
  33              		.loc 1 44 0
  34              		.cfi_startproc
  35              		@ args = 0, pretend = 0, frame = 0
  36              		@ frame_needed = 1, uses_anonymous_args = 0
  37 0000 F8B5     		push	{r3, r4, r5, r6, r7, lr}
  38              	.LCFI0:
  39              		.cfi_def_cfa_offset 24
  40              		.cfi_offset 3, -24
  41              		.cfi_offset 4, -20
  42              		.cfi_offset 5, -16
  43              		.cfi_offset 6, -12
  44              		.cfi_offset 7, -8
  45              		.cfi_offset 14, -4
  46 0002 00AF     		add	r7, sp, #0
  47              	.LCFI1:
  48              		.cfi_def_cfa_register 7
  45:.\Generated_Source\PSoC5/Filter.c ****         /* Power on DFB before initializing the RAMs */
  46:.\Generated_Source\PSoC5/Filter.c ****     Filter_PM_ACT_CFG_REG |= Filter_PM_ACT_MSK;
  49              		.loc 1 46 0
  50 0004 44F2A633 		movw	r3, #17318
  51 0008 C4F20003 		movt	r3, 16384
  52 000c 44F2A632 		movw	r2, #17318
  53 0010 C4F20002 		movt	r2, 16384
  54 0014 1278     		ldrb	r2, [r2, #0]
  55 0016 D2B2     		uxtb	r2, r2
  56 0018 42F01002 		orr	r2, r2, #16
  57 001c D2B2     		uxtb	r2, r2
  58 001e 1A70     		strb	r2, [r3, #0]
  47:.\Generated_Source\PSoC5/Filter.c **** 
  48:.\Generated_Source\PSoC5/Filter.c ****     /* Turn off Run Bit */
  49:.\Generated_Source\PSoC5/Filter.c ****     Filter_CR_REG &= (uint8)~Filter_RUN_MASK;
  59              		.loc 1 49 0
  60 0020 4CF28073 		movw	r3, #51072
  61 0024 C4F20003 		movt	r3, 16384
  62 0028 4CF28072 		movw	r2, #51072
  63 002c C4F20002 		movt	r2, 16384
  64 0030 1278     		ldrb	r2, [r2, #0]
  65 0032 D2B2     		uxtb	r2, r2
ARM GAS  C:\Users\VICTOR~1\AppData\Local\Temp\ccSusWlX.s 			page 3


  66 0034 22F00102 		bic	r2, r2, #1
  67 0038 D2B2     		uxtb	r2, r2
  68 003a 1A70     		strb	r2, [r3, #0]
  50:.\Generated_Source\PSoC5/Filter.c ****                 
  51:.\Generated_Source\PSoC5/Filter.c ****     /* Enable the DFB RAMS */
  52:.\Generated_Source\PSoC5/Filter.c ****     Filter_RAM_EN_REG = Filter_RAM_DIR_BUS;
  69              		.loc 1 52 0
  70 003c 4CF28873 		movw	r3, #51080
  71 0040 C4F20003 		movt	r3, 16384
  72 0044 4FF03F02 		mov	r2, #63
  73 0048 1A70     		strb	r2, [r3, #0]
  53:.\Generated_Source\PSoC5/Filter.c ****         
  54:.\Generated_Source\PSoC5/Filter.c ****     /* Put DFB RAM on the bus */
  55:.\Generated_Source\PSoC5/Filter.c ****     Filter_RAM_DIR_REG = Filter_RAM_DIR_BUS;
  74              		.loc 1 55 0
  75 004a 4CF28C73 		movw	r3, #51084
  76 004e C4F20003 		movt	r3, 16384
  77 0052 4FF03F02 		mov	r2, #63
  78 0056 1A70     		strb	r2, [r3, #0]
  56:.\Generated_Source\PSoC5/Filter.c ****         
  57:.\Generated_Source\PSoC5/Filter.c ****     /* Write DFB RAMs */
  58:.\Generated_Source\PSoC5/Filter.c ****     /* Control Store RAMs */
  59:.\Generated_Source\PSoC5/Filter.c ****     (void)memcpy( Filter_CSA_RAM,
  79              		.loc 1 59 0
  80 0058 4FF44442 		mov	r2, #50176
  81 005c C4F20002 		movt	r2, 16384
  82 0060 40F20003 		movw	r3, #:lower16:Filter_control
  83 0064 C0F20003 		movt	r3, #:upper16:Filter_control
  84 0068 1146     		mov	r1, r2
  85 006a 1A46     		mov	r2, r3
  86 006c 4FF48073 		mov	r3, #256
  87 0070 0846     		mov	r0, r1
  88 0072 1146     		mov	r1, r2
  89 0074 1A46     		mov	r2, r3
  90 0076 FFF7FEFF 		bl	memcpy
  60:.\Generated_Source\PSoC5/Filter.c ****         Filter_control, Filter_CSA_RAM_SIZE); 
  61:.\Generated_Source\PSoC5/Filter.c ****     (void)memcpy(Filter_CSB_RAM,
  91              		.loc 1 61 0
  92 007a 4FF44542 		mov	r2, #50432
  93 007e C4F20002 		movt	r2, 16384
  94 0082 40F20003 		movw	r3, #:lower16:Filter_control
  95 0086 C0F20003 		movt	r3, #:upper16:Filter_control
  96 008a 1146     		mov	r1, r2
  97 008c 1A46     		mov	r2, r3
  98 008e 4FF48073 		mov	r3, #256
  99 0092 0846     		mov	r0, r1
 100 0094 1146     		mov	r1, r2
 101 0096 1A46     		mov	r2, r3
 102 0098 FFF7FEFF 		bl	memcpy
  62:.\Generated_Source\PSoC5/Filter.c ****         Filter_control, Filter_CSB_RAM_SIZE); 
  63:.\Generated_Source\PSoC5/Filter.c ****     /* CFSM RAM */
  64:.\Generated_Source\PSoC5/Filter.c ****     (void)memcpy(Filter_CFSM_RAM,
 103              		.loc 1 64 0
 104 009c 4FF44642 		mov	r2, #50688
 105 00a0 C4F20002 		movt	r2, 16384
 106 00a4 40F20003 		movw	r3, #:lower16:Filter_cfsm
 107 00a8 C0F20003 		movt	r3, #:upper16:Filter_cfsm
ARM GAS  C:\Users\VICTOR~1\AppData\Local\Temp\ccSusWlX.s 			page 4


 108 00ac 1146     		mov	r1, r2
 109 00ae 1A46     		mov	r2, r3
 110 00b0 4FF48073 		mov	r3, #256
 111 00b4 0846     		mov	r0, r1
 112 00b6 1146     		mov	r1, r2
 113 00b8 1A46     		mov	r2, r3
 114 00ba FFF7FEFF 		bl	memcpy
  65:.\Generated_Source\PSoC5/Filter.c ****         Filter_cfsm, Filter_CFSM_RAM_SIZE); 
  66:.\Generated_Source\PSoC5/Filter.c ****     /* Data RAMs */
  67:.\Generated_Source\PSoC5/Filter.c ****     (void)memcpy(Filter_DA_RAM,
 115              		.loc 1 67 0
 116 00be 4FF44042 		mov	r2, #49152
 117 00c2 C4F20002 		movt	r2, 16384
 118 00c6 40F20003 		movw	r3, #:lower16:Filter_data_a
 119 00ca C0F20003 		movt	r3, #:upper16:Filter_data_a
 120 00ce 1146     		mov	r1, r2
 121 00d0 1A46     		mov	r2, r3
 122 00d2 4FF40073 		mov	r3, #512
 123 00d6 0846     		mov	r0, r1
 124 00d8 1146     		mov	r1, r2
 125 00da 1A46     		mov	r2, r3
 126 00dc FFF7FEFF 		bl	memcpy
  68:.\Generated_Source\PSoC5/Filter.c ****         Filter_data_a, Filter_DA_RAM_SIZE); 
  69:.\Generated_Source\PSoC5/Filter.c ****     (void)memcpy(Filter_DB_RAM,
 127              		.loc 1 69 0
 128 00e0 4FF44242 		mov	r2, #49664
 129 00e4 C4F20002 		movt	r2, 16384
 130 00e8 40F20003 		movw	r3, #:lower16:Filter_data_b
 131 00ec C0F20003 		movt	r3, #:upper16:Filter_data_b
 132 00f0 1146     		mov	r1, r2
 133 00f2 1A46     		mov	r2, r3
 134 00f4 4FF40073 		mov	r3, #512
 135 00f8 0846     		mov	r0, r1
 136 00fa 1146     		mov	r1, r2
 137 00fc 1A46     		mov	r2, r3
 138 00fe FFF7FEFF 		bl	memcpy
  70:.\Generated_Source\PSoC5/Filter.c ****         Filter_data_b, Filter_DB_RAM_SIZE); 
  71:.\Generated_Source\PSoC5/Filter.c ****     /* ACU RAM */
  72:.\Generated_Source\PSoC5/Filter.c ****     (void)memcpy(Filter_ACU_RAM,
 139              		.loc 1 72 0
 140 0102 4FF44742 		mov	r2, #50944
 141 0106 C4F20002 		movt	r2, 16384
 142 010a 40F20003 		movw	r3, #:lower16:Filter_acu
 143 010e C0F20003 		movt	r3, #:upper16:Filter_acu
 144 0112 1046     		mov	r0, r2
 145 0114 03F14004 		add	r4, r3, #64
 146              	.L2:
 147 0118 0246     		mov	r2, r0
 148 011a 1946     		mov	r1, r3
 149 011c D1F800E0 		ldr	lr, [r1, #0]	@ unaligned
 150 0120 4E68     		ldr	r6, [r1, #4]	@ unaligned
 151 0122 8D68     		ldr	r5, [r1, #8]	@ unaligned
 152 0124 C968     		ldr	r1, [r1, #12]	@ unaligned
 153 0126 C2F800E0 		str	lr, [r2, #0]	@ unaligned
 154 012a 5660     		str	r6, [r2, #4]	@ unaligned
 155 012c 9560     		str	r5, [r2, #8]	@ unaligned
 156 012e D160     		str	r1, [r2, #12]	@ unaligned
ARM GAS  C:\Users\VICTOR~1\AppData\Local\Temp\ccSusWlX.s 			page 5


 157 0130 03F11003 		add	r3, r3, #16
 158 0134 00F11000 		add	r0, r0, #16
 159 0138 A342     		cmp	r3, r4
 160 013a EDD1     		bne	.L2
  73:.\Generated_Source\PSoC5/Filter.c ****         Filter_acu, Filter_ACU_RAM_SIZE); 
  74:.\Generated_Source\PSoC5/Filter.c **** 
  75:.\Generated_Source\PSoC5/Filter.c ****     /* Take DFB RAM off the bus */
  76:.\Generated_Source\PSoC5/Filter.c ****     Filter_RAM_DIR_REG = Filter_RAM_DIR_DFB;
 161              		.loc 1 76 0
 162 013c 4CF28C73 		movw	r3, #51084
 163 0140 C4F20003 		movt	r3, 16384
 164 0144 4FF00002 		mov	r2, #0
 165 0148 1A70     		strb	r2, [r3, #0]
  77:.\Generated_Source\PSoC5/Filter.c **** 
  78:.\Generated_Source\PSoC5/Filter.c ****     /* Set up interrupt and DMA events */
  79:.\Generated_Source\PSoC5/Filter.c ****     Filter_SetInterruptMode(Filter_INIT_INTERRUPT_MODE);
 166              		.loc 1 79 0
 167 014a 4FF00000 		mov	r0, #0
 168 014e FFF7FEFF 		bl	Filter_SetInterruptMode
  80:.\Generated_Source\PSoC5/Filter.c ****     Filter_SetDMAMode(Filter_INIT_DMA_MODE);
 169              		.loc 1 80 0
 170 0152 4FF00000 		mov	r0, #0
 171 0156 FFF7FEFF 		bl	Filter_SetDMAMode
  81:.\Generated_Source\PSoC5/Filter.c ****         
  82:.\Generated_Source\PSoC5/Filter.c ****     /* Clear any pending interrupts */
  83:.\Generated_Source\PSoC5/Filter.c ****     /* Bits [2..0] of this register are readonly. */
  84:.\Generated_Source\PSoC5/Filter.c ****     Filter_SR_REG = 0xf8u;   
 172              		.loc 1 84 0
 173 015a 4CF28473 		movw	r3, #51076
 174 015e C4F20003 		movt	r3, 16384
 175 0162 4FF0F802 		mov	r2, #248
 176 0166 1A70     		strb	r2, [r3, #0]
  85:.\Generated_Source\PSoC5/Filter.c **** }
 177              		.loc 1 85 0
 178 0168 F8BD     		pop	{r3, r4, r5, r6, r7, pc}
 179              		.cfi_endproc
 180              	.LFE0:
 181              		.size	Filter_Init, .-Filter_Init
 182 016a 00BF     		.section	.text.Filter_Enable,"ax",%progbits
 183              		.align	2
 184              		.global	Filter_Enable
 185              		.thumb
 186              		.thumb_func
 187              		.type	Filter_Enable, %function
 188              	Filter_Enable:
 189              	.LFB1:
  86:.\Generated_Source\PSoC5/Filter.c **** 
  87:.\Generated_Source\PSoC5/Filter.c **** 
  88:.\Generated_Source\PSoC5/Filter.c **** /*******************************************************************************
  89:.\Generated_Source\PSoC5/Filter.c **** * Function Name: Filter_Enable
  90:.\Generated_Source\PSoC5/Filter.c **** ********************************************************************************
  91:.\Generated_Source\PSoC5/Filter.c **** *  
  92:.\Generated_Source\PSoC5/Filter.c **** * Summary: 
  93:.\Generated_Source\PSoC5/Filter.c **** *  Enables the DFB run bit.
  94:.\Generated_Source\PSoC5/Filter.c **** *
  95:.\Generated_Source\PSoC5/Filter.c **** * Parameters:  
  96:.\Generated_Source\PSoC5/Filter.c **** *  void
ARM GAS  C:\Users\VICTOR~1\AppData\Local\Temp\ccSusWlX.s 			page 6


  97:.\Generated_Source\PSoC5/Filter.c **** *
  98:.\Generated_Source\PSoC5/Filter.c **** * Return: 
  99:.\Generated_Source\PSoC5/Filter.c **** *  void
 100:.\Generated_Source\PSoC5/Filter.c **** *
 101:.\Generated_Source\PSoC5/Filter.c **** *******************************************************************************/
 102:.\Generated_Source\PSoC5/Filter.c **** void Filter_Enable(void) 
 103:.\Generated_Source\PSoC5/Filter.c **** {
 190              		.loc 1 103 0
 191              		.cfi_startproc
 192              		@ args = 0, pretend = 0, frame = 0
 193              		@ frame_needed = 1, uses_anonymous_args = 0
 194              		@ link register save eliminated.
 195 0000 80B4     		push	{r7}
 196              	.LCFI2:
 197              		.cfi_def_cfa_offset 4
 198              		.cfi_offset 7, -4
 199 0002 00AF     		add	r7, sp, #0
 200              	.LCFI3:
 201              		.cfi_def_cfa_register 7
 104:.\Generated_Source\PSoC5/Filter.c ****     /* Power on DFB in Active mode */
 105:.\Generated_Source\PSoC5/Filter.c ****     Filter_PM_ACT_CFG_REG |= Filter_PM_ACT_MSK;
 202              		.loc 1 105 0
 203 0004 44F2A633 		movw	r3, #17318
 204 0008 C4F20003 		movt	r3, 16384
 205 000c 44F2A632 		movw	r2, #17318
 206 0010 C4F20002 		movt	r2, 16384
 207 0014 1278     		ldrb	r2, [r2, #0]
 208 0016 D2B2     		uxtb	r2, r2
 209 0018 42F01002 		orr	r2, r2, #16
 210 001c D2B2     		uxtb	r2, r2
 211 001e 1A70     		strb	r2, [r3, #0]
 106:.\Generated_Source\PSoC5/Filter.c ****         
 107:.\Generated_Source\PSoC5/Filter.c ****     /* Power on DFB in Alternative Active mode */
 108:.\Generated_Source\PSoC5/Filter.c ****     Filter_PM_STBY_CFG_REG |= Filter_PM_STBY_MSK;
 212              		.loc 1 108 0
 213 0020 44F2B633 		movw	r3, #17334
 214 0024 C4F20003 		movt	r3, 16384
 215 0028 44F2B632 		movw	r2, #17334
 216 002c C4F20002 		movt	r2, 16384
 217 0030 1278     		ldrb	r2, [r2, #0]
 218 0032 D2B2     		uxtb	r2, r2
 219 0034 42F01002 		orr	r2, r2, #16
 220 0038 D2B2     		uxtb	r2, r2
 221 003a 1A70     		strb	r2, [r3, #0]
 109:.\Generated_Source\PSoC5/Filter.c **** 
 110:.\Generated_Source\PSoC5/Filter.c ****     /* Turn on Run Bit */
 111:.\Generated_Source\PSoC5/Filter.c ****     Filter_CR_REG |= Filter_RUN_MASK;
 222              		.loc 1 111 0
 223 003c 4CF28073 		movw	r3, #51072
 224 0040 C4F20003 		movt	r3, 16384
 225 0044 4CF28072 		movw	r2, #51072
 226 0048 C4F20002 		movt	r2, 16384
 227 004c 1278     		ldrb	r2, [r2, #0]
 228 004e D2B2     		uxtb	r2, r2
 229 0050 42F00102 		orr	r2, r2, #1
 230 0054 D2B2     		uxtb	r2, r2
 231 0056 1A70     		strb	r2, [r3, #0]
ARM GAS  C:\Users\VICTOR~1\AppData\Local\Temp\ccSusWlX.s 			page 7


 112:.\Generated_Source\PSoC5/Filter.c **** }
 232              		.loc 1 112 0
 233 0058 BD46     		mov	sp, r7
 234 005a 80BC     		pop	{r7}
 235 005c 7047     		bx	lr
 236              		.cfi_endproc
 237              	.LFE1:
 238              		.size	Filter_Enable, .-Filter_Enable
 239 005e 00BF     		.section	.text.Filter_Start,"ax",%progbits
 240              		.align	2
 241              		.global	Filter_Start
 242              		.thumb
 243              		.thumb_func
 244              		.type	Filter_Start, %function
 245              	Filter_Start:
 246              	.LFB2:
 113:.\Generated_Source\PSoC5/Filter.c **** 
 114:.\Generated_Source\PSoC5/Filter.c **** 
 115:.\Generated_Source\PSoC5/Filter.c **** /*******************************************************************************
 116:.\Generated_Source\PSoC5/Filter.c **** * Function Name: Filter_Start
 117:.\Generated_Source\PSoC5/Filter.c **** ********************************************************************************
 118:.\Generated_Source\PSoC5/Filter.c **** *
 119:.\Generated_Source\PSoC5/Filter.c **** * Summary:
 120:.\Generated_Source\PSoC5/Filter.c **** *  This method does the prep work necessary to setup DFB.  This includes loading 
 121:.\Generated_Source\PSoC5/Filter.c **** *
 122:.\Generated_Source\PSoC5/Filter.c **** * Parameters:  
 123:.\Generated_Source\PSoC5/Filter.c **** *  void
 124:.\Generated_Source\PSoC5/Filter.c **** * 
 125:.\Generated_Source\PSoC5/Filter.c **** * Return: 
 126:.\Generated_Source\PSoC5/Filter.c **** *  void
 127:.\Generated_Source\PSoC5/Filter.c **** *
 128:.\Generated_Source\PSoC5/Filter.c **** * Global variables:
 129:.\Generated_Source\PSoC5/Filter.c **** *  Filter_initVar:  Used to check the initial configuration,
 130:.\Generated_Source\PSoC5/Filter.c **** *  modified when this function is called for the first time.
 131:.\Generated_Source\PSoC5/Filter.c **** *
 132:.\Generated_Source\PSoC5/Filter.c **** * Note: 
 133:.\Generated_Source\PSoC5/Filter.c **** *  Use Filter_InterruptConfig to control which events trigger 
 134:.\Generated_Source\PSoC5/Filter.c **** *  interrupts in the DFB. 
 135:.\Generated_Source\PSoC5/Filter.c **** *
 136:.\Generated_Source\PSoC5/Filter.c **** *******************************************************************************/
 137:.\Generated_Source\PSoC5/Filter.c **** void Filter_Start(void) 
 138:.\Generated_Source\PSoC5/Filter.c **** {
 247              		.loc 1 138 0
 248              		.cfi_startproc
 249              		@ args = 0, pretend = 0, frame = 0
 250              		@ frame_needed = 1, uses_anonymous_args = 0
 251 0000 80B5     		push	{r7, lr}
 252              	.LCFI4:
 253              		.cfi_def_cfa_offset 8
 254              		.cfi_offset 7, -8
 255              		.cfi_offset 14, -4
 256 0002 00AF     		add	r7, sp, #0
 257              	.LCFI5:
 258              		.cfi_def_cfa_register 7
 139:.\Generated_Source\PSoC5/Filter.c ****      /* If not Initialized then initialize all required hardware and software */
 140:.\Generated_Source\PSoC5/Filter.c ****     if(Filter_initVar == 0u)
 259              		.loc 1 140 0
ARM GAS  C:\Users\VICTOR~1\AppData\Local\Temp\ccSusWlX.s 			page 8


 260 0004 40F20003 		movw	r3, #:lower16:Filter_initVar
 261 0008 C0F20003 		movt	r3, #:upper16:Filter_initVar
 262 000c 1B78     		ldrb	r3, [r3, #0]	@ zero_extendqisi2
 263 000e 002B     		cmp	r3, #0
 264 0010 08D1     		bne	.L5
 141:.\Generated_Source\PSoC5/Filter.c ****     {
 142:.\Generated_Source\PSoC5/Filter.c ****         Filter_Init();
 265              		.loc 1 142 0
 266 0012 FFF7FEFF 		bl	Filter_Init
 143:.\Generated_Source\PSoC5/Filter.c ****         Filter_initVar = 1u;
 267              		.loc 1 143 0
 268 0016 40F20003 		movw	r3, #:lower16:Filter_initVar
 269 001a C0F20003 		movt	r3, #:upper16:Filter_initVar
 270 001e 4FF00102 		mov	r2, #1
 271 0022 1A70     		strb	r2, [r3, #0]
 272              	.L5:
 144:.\Generated_Source\PSoC5/Filter.c ****     }
 145:.\Generated_Source\PSoC5/Filter.c **** 
 146:.\Generated_Source\PSoC5/Filter.c ****     /* Enable the DFB block */
 147:.\Generated_Source\PSoC5/Filter.c ****     Filter_Enable();
 273              		.loc 1 147 0
 274 0024 FFF7FEFF 		bl	Filter_Enable
 148:.\Generated_Source\PSoC5/Filter.c **** }
 275              		.loc 1 148 0
 276 0028 80BD     		pop	{r7, pc}
 277              		.cfi_endproc
 278              	.LFE2:
 279              		.size	Filter_Start, .-Filter_Start
 280 002a 00BF     		.section	.text.Filter_Stop,"ax",%progbits
 281              		.align	2
 282              		.global	Filter_Stop
 283              		.thumb
 284              		.thumb_func
 285              		.type	Filter_Stop, %function
 286              	Filter_Stop:
 287              	.LFB3:
 149:.\Generated_Source\PSoC5/Filter.c **** 
 150:.\Generated_Source\PSoC5/Filter.c **** 
 151:.\Generated_Source\PSoC5/Filter.c **** /*******************************************************************************
 152:.\Generated_Source\PSoC5/Filter.c **** * Function Name: Filter_Stop
 153:.\Generated_Source\PSoC5/Filter.c **** ********************************************************************************
 154:.\Generated_Source\PSoC5/Filter.c **** *
 155:.\Generated_Source\PSoC5/Filter.c **** * Summary:
 156:.\Generated_Source\PSoC5/Filter.c **** *  Turn off the run bit.  If DMA control is used to feed the channels, allow 
 157:.\Generated_Source\PSoC5/Filter.c **** *  arguments to turn one of the TD channels off. 
 158:.\Generated_Source\PSoC5/Filter.c **** *
 159:.\Generated_Source\PSoC5/Filter.c **** * Parameters:  
 160:.\Generated_Source\PSoC5/Filter.c **** *  void
 161:.\Generated_Source\PSoC5/Filter.c **** *
 162:.\Generated_Source\PSoC5/Filter.c **** * Return: 
 163:.\Generated_Source\PSoC5/Filter.c **** *  void
 164:.\Generated_Source\PSoC5/Filter.c **** *
 165:.\Generated_Source\PSoC5/Filter.c **** *******************************************************************************/
 166:.\Generated_Source\PSoC5/Filter.c **** void Filter_Stop(void) 
 167:.\Generated_Source\PSoC5/Filter.c **** {
 288              		.loc 1 167 0
 289              		.cfi_startproc
ARM GAS  C:\Users\VICTOR~1\AppData\Local\Temp\ccSusWlX.s 			page 9


 290              		@ args = 0, pretend = 0, frame = 0
 291              		@ frame_needed = 1, uses_anonymous_args = 0
 292              		@ link register save eliminated.
 293 0000 80B4     		push	{r7}
 294              	.LCFI6:
 295              		.cfi_def_cfa_offset 4
 296              		.cfi_offset 7, -4
 297 0002 00AF     		add	r7, sp, #0
 298              	.LCFI7:
 299              		.cfi_def_cfa_register 7
 168:.\Generated_Source\PSoC5/Filter.c ****     Filter_CR_REG &= (uint8)~(Filter_RUN_MASK);
 300              		.loc 1 168 0
 301 0004 4CF28073 		movw	r3, #51072
 302 0008 C4F20003 		movt	r3, 16384
 303 000c 4CF28072 		movw	r2, #51072
 304 0010 C4F20002 		movt	r2, 16384
 305 0014 1278     		ldrb	r2, [r2, #0]
 306 0016 D2B2     		uxtb	r2, r2
 307 0018 22F00102 		bic	r2, r2, #1
 308 001c D2B2     		uxtb	r2, r2
 309 001e 1A70     		strb	r2, [r3, #0]
 169:.\Generated_Source\PSoC5/Filter.c **** 
 170:.\Generated_Source\PSoC5/Filter.c ****     /* Power off DFB in Active mode */
 171:.\Generated_Source\PSoC5/Filter.c ****     Filter_PM_ACT_CFG_REG &= (uint8)~Filter_PM_ACT_MSK;
 310              		.loc 1 171 0
 311 0020 44F2A633 		movw	r3, #17318
 312 0024 C4F20003 		movt	r3, 16384
 313 0028 44F2A632 		movw	r2, #17318
 314 002c C4F20002 		movt	r2, 16384
 315 0030 1278     		ldrb	r2, [r2, #0]
 316 0032 D2B2     		uxtb	r2, r2
 317 0034 22F01002 		bic	r2, r2, #16
 318 0038 D2B2     		uxtb	r2, r2
 319 003a 1A70     		strb	r2, [r3, #0]
 172:.\Generated_Source\PSoC5/Filter.c ****     
 173:.\Generated_Source\PSoC5/Filter.c ****     /* Power off DFB in Alternative Active mode */
 174:.\Generated_Source\PSoC5/Filter.c ****     Filter_PM_STBY_CFG_REG &= (uint8)~Filter_PM_STBY_MSK;
 320              		.loc 1 174 0
 321 003c 44F2B633 		movw	r3, #17334
 322 0040 C4F20003 		movt	r3, 16384
 323 0044 44F2B632 		movw	r2, #17334
 324 0048 C4F20002 		movt	r2, 16384
 325 004c 1278     		ldrb	r2, [r2, #0]
 326 004e D2B2     		uxtb	r2, r2
 327 0050 22F01002 		bic	r2, r2, #16
 328 0054 D2B2     		uxtb	r2, r2
 329 0056 1A70     		strb	r2, [r3, #0]
 175:.\Generated_Source\PSoC5/Filter.c **** }
 330              		.loc 1 175 0
 331 0058 BD46     		mov	sp, r7
 332 005a 80BC     		pop	{r7}
 333 005c 7047     		bx	lr
 334              		.cfi_endproc
 335              	.LFE3:
 336              		.size	Filter_Stop, .-Filter_Stop
 337 005e 00BF     		.section	.text.Filter_Read8,"ax",%progbits
 338              		.align	2
ARM GAS  C:\Users\VICTOR~1\AppData\Local\Temp\ccSusWlX.s 			page 10


 339              		.global	Filter_Read8
 340              		.thumb
 341              		.thumb_func
 342              		.type	Filter_Read8, %function
 343              	Filter_Read8:
 344              	.LFB4:
 176:.\Generated_Source\PSoC5/Filter.c **** 
 177:.\Generated_Source\PSoC5/Filter.c **** 
 178:.\Generated_Source\PSoC5/Filter.c **** /*******************************************************************************
 179:.\Generated_Source\PSoC5/Filter.c **** * Function Name: Filter_Read8
 180:.\Generated_Source\PSoC5/Filter.c **** ********************************************************************************
 181:.\Generated_Source\PSoC5/Filter.c **** *
 182:.\Generated_Source\PSoC5/Filter.c **** * Summary:
 183:.\Generated_Source\PSoC5/Filter.c **** *  Get the value in one of the DFB Output Holding Registers 
 184:.\Generated_Source\PSoC5/Filter.c **** *
 185:.\Generated_Source\PSoC5/Filter.c **** * Parameters:  
 186:.\Generated_Source\PSoC5/Filter.c **** *  channel:  Filter_CHANNEL_A or Filter_CHANNEL_B
 187:.\Generated_Source\PSoC5/Filter.c **** *            
 188:.\Generated_Source\PSoC5/Filter.c **** * Return: 
 189:.\Generated_Source\PSoC5/Filter.c **** *  The most significant 8 bits of the current output value sitting in the 
 190:.\Generated_Source\PSoC5/Filter.c **** *  selected channel's holding register or 0x00 for invalid channel numbers.
 191:.\Generated_Source\PSoC5/Filter.c **** *
 192:.\Generated_Source\PSoC5/Filter.c **** *******************************************************************************/
 193:.\Generated_Source\PSoC5/Filter.c **** uint8 Filter_Read8(uint8 channel) 
 194:.\Generated_Source\PSoC5/Filter.c **** {
 345              		.loc 1 194 0
 346              		.cfi_startproc
 347              		@ args = 0, pretend = 0, frame = 16
 348              		@ frame_needed = 1, uses_anonymous_args = 0
 349              		@ link register save eliminated.
 350 0000 80B4     		push	{r7}
 351              	.LCFI8:
 352              		.cfi_def_cfa_offset 4
 353              		.cfi_offset 7, -4
 354 0002 85B0     		sub	sp, sp, #20
 355              	.LCFI9:
 356              		.cfi_def_cfa_offset 24
 357 0004 00AF     		add	r7, sp, #0
 358              	.LCFI10:
 359              		.cfi_def_cfa_register 7
 360 0006 0346     		mov	r3, r0
 361 0008 FB71     		strb	r3, [r7, #7]
 195:.\Generated_Source\PSoC5/Filter.c ****     uint8 value;
 196:.\Generated_Source\PSoC5/Filter.c **** 
 197:.\Generated_Source\PSoC5/Filter.c ****     if (channel == Filter_CHANNEL_A)
 362              		.loc 1 197 0
 363 000a FB79     		ldrb	r3, [r7, #7]	@ zero_extendqisi2
 364 000c 002B     		cmp	r3, #0
 365 000e 06D1     		bne	.L8
 198:.\Generated_Source\PSoC5/Filter.c ****     {
 199:.\Generated_Source\PSoC5/Filter.c ****         value = Filter_HOLDAH_REG;
 366              		.loc 1 199 0
 367 0010 4CF2AA73 		movw	r3, #51114
 368 0014 C4F20003 		movt	r3, 16384
 369 0018 1B78     		ldrb	r3, [r3, #0]
 370 001a FB73     		strb	r3, [r7, #15]
 371 001c 0CE0     		b	.L9
ARM GAS  C:\Users\VICTOR~1\AppData\Local\Temp\ccSusWlX.s 			page 11


 372              	.L8:
 200:.\Generated_Source\PSoC5/Filter.c ****     }
 201:.\Generated_Source\PSoC5/Filter.c ****     else if (channel == Filter_CHANNEL_B)
 373              		.loc 1 201 0
 374 001e FB79     		ldrb	r3, [r7, #7]	@ zero_extendqisi2
 375 0020 012B     		cmp	r3, #1
 376 0022 06D1     		bne	.L10
 202:.\Generated_Source\PSoC5/Filter.c ****     {
 203:.\Generated_Source\PSoC5/Filter.c ****         value = Filter_HOLDBH_REG;
 377              		.loc 1 203 0
 378 0024 4CF2AE73 		movw	r3, #51118
 379 0028 C4F20003 		movt	r3, 16384
 380 002c 1B78     		ldrb	r3, [r3, #0]
 381 002e FB73     		strb	r3, [r7, #15]
 382 0030 02E0     		b	.L9
 383              	.L10:
 204:.\Generated_Source\PSoC5/Filter.c ****     }
 205:.\Generated_Source\PSoC5/Filter.c ****     else
 206:.\Generated_Source\PSoC5/Filter.c ****     {
 207:.\Generated_Source\PSoC5/Filter.c ****         value = 0x0u;
 384              		.loc 1 207 0
 385 0032 4FF00003 		mov	r3, #0
 386 0036 FB73     		strb	r3, [r7, #15]
 387              	.L9:
 208:.\Generated_Source\PSoC5/Filter.c ****     }
 209:.\Generated_Source\PSoC5/Filter.c ****     return value;
 388              		.loc 1 209 0
 389 0038 FB7B     		ldrb	r3, [r7, #15]	@ zero_extendqisi2
 210:.\Generated_Source\PSoC5/Filter.c **** }
 390              		.loc 1 210 0
 391 003a 1846     		mov	r0, r3
 392 003c 07F11407 		add	r7, r7, #20
 393 0040 BD46     		mov	sp, r7
 394 0042 80BC     		pop	{r7}
 395 0044 7047     		bx	lr
 396              		.cfi_endproc
 397              	.LFE4:
 398              		.size	Filter_Read8, .-Filter_Read8
 399 0046 00BF     		.section	.text.Filter_Read16,"ax",%progbits
 400              		.align	2
 401              		.global	Filter_Read16
 402              		.thumb
 403              		.thumb_func
 404              		.type	Filter_Read16, %function
 405              	Filter_Read16:
 406              	.LFB5:
 211:.\Generated_Source\PSoC5/Filter.c **** 
 212:.\Generated_Source\PSoC5/Filter.c **** 
 213:.\Generated_Source\PSoC5/Filter.c **** /*******************************************************************************
 214:.\Generated_Source\PSoC5/Filter.c **** * Function Name: Filter_Read16
 215:.\Generated_Source\PSoC5/Filter.c **** ********************************************************************************
 216:.\Generated_Source\PSoC5/Filter.c **** *
 217:.\Generated_Source\PSoC5/Filter.c **** * Summary:
 218:.\Generated_Source\PSoC5/Filter.c **** *  Get the value in one of the DFB Output Holding Registers 
 219:.\Generated_Source\PSoC5/Filter.c **** *
 220:.\Generated_Source\PSoC5/Filter.c **** * Parameters:  
 221:.\Generated_Source\PSoC5/Filter.c **** *  channel:  Filter_CHANNEL_A or Filter_CHANNEL_B
ARM GAS  C:\Users\VICTOR~1\AppData\Local\Temp\ccSusWlX.s 			page 12


 222:.\Generated_Source\PSoC5/Filter.c **** *            
 223:.\Generated_Source\PSoC5/Filter.c **** * Return: 
 224:.\Generated_Source\PSoC5/Filter.c **** *  The most significant 16 bits of the current output value sitting in the 
 225:.\Generated_Source\PSoC5/Filter.c **** *  selected channel's holding register or 0x0000 for invalid channel numbers
 226:.\Generated_Source\PSoC5/Filter.c **** *
 227:.\Generated_Source\PSoC5/Filter.c **** * Note:
 228:.\Generated_Source\PSoC5/Filter.c **** *  Order of the read is important.  On the read of the high byte, the DFB clears
 229:.\Generated_Source\PSoC5/Filter.c **** *  the data ready bit.
 230:.\Generated_Source\PSoC5/Filter.c **** *
 231:.\Generated_Source\PSoC5/Filter.c **** *******************************************************************************/
 232:.\Generated_Source\PSoC5/Filter.c **** #if defined(__C51__) || defined(__CX51__) 
 233:.\Generated_Source\PSoC5/Filter.c **** 
 234:.\Generated_Source\PSoC5/Filter.c ****     uint16 Filter_Read16(uint8 channel) 
 235:.\Generated_Source\PSoC5/Filter.c ****     {
 236:.\Generated_Source\PSoC5/Filter.c ****         uint16 val;
 237:.\Generated_Source\PSoC5/Filter.c ****     
 238:.\Generated_Source\PSoC5/Filter.c ****         if (channel == Filter_CHANNEL_A)
 239:.\Generated_Source\PSoC5/Filter.c ****         {        
 240:.\Generated_Source\PSoC5/Filter.c ****             val = Filter_HOLDAM_REG;
 241:.\Generated_Source\PSoC5/Filter.c ****             val |= (uint16)(Filter_HOLDAH_REG) << 8u;
 242:.\Generated_Source\PSoC5/Filter.c ****         }
 243:.\Generated_Source\PSoC5/Filter.c ****         else if (channel == Filter_CHANNEL_B)
 244:.\Generated_Source\PSoC5/Filter.c ****         {      
 245:.\Generated_Source\PSoC5/Filter.c ****             val = Filter_HOLDBM_REG;
 246:.\Generated_Source\PSoC5/Filter.c ****             val |= (uint16)Filter_HOLDBH_REG << 8u;
 247:.\Generated_Source\PSoC5/Filter.c ****         }
 248:.\Generated_Source\PSoC5/Filter.c ****         else
 249:.\Generated_Source\PSoC5/Filter.c ****         {
 250:.\Generated_Source\PSoC5/Filter.c ****             val = 0x0u;
 251:.\Generated_Source\PSoC5/Filter.c ****         }
 252:.\Generated_Source\PSoC5/Filter.c ****         return val;
 253:.\Generated_Source\PSoC5/Filter.c ****     }
 254:.\Generated_Source\PSoC5/Filter.c **** 
 255:.\Generated_Source\PSoC5/Filter.c **** #else
 256:.\Generated_Source\PSoC5/Filter.c **** 
 257:.\Generated_Source\PSoC5/Filter.c ****     uint16 Filter_Read16(uint8 channel) 
 258:.\Generated_Source\PSoC5/Filter.c ****     {
 407              		.loc 1 258 0
 408              		.cfi_startproc
 409              		@ args = 0, pretend = 0, frame = 16
 410              		@ frame_needed = 1, uses_anonymous_args = 0
 411              		@ link register save eliminated.
 412 0000 80B4     		push	{r7}
 413              	.LCFI11:
 414              		.cfi_def_cfa_offset 4
 415              		.cfi_offset 7, -4
 416 0002 85B0     		sub	sp, sp, #20
 417              	.LCFI12:
 418              		.cfi_def_cfa_offset 24
 419 0004 00AF     		add	r7, sp, #0
 420              	.LCFI13:
 421              		.cfi_def_cfa_register 7
 422 0006 0346     		mov	r3, r0
 423 0008 FB71     		strb	r3, [r7, #7]
 259:.\Generated_Source\PSoC5/Filter.c ****         uint16 val;
 260:.\Generated_Source\PSoC5/Filter.c **** 
 261:.\Generated_Source\PSoC5/Filter.c ****         if (channel == Filter_CHANNEL_A)
ARM GAS  C:\Users\VICTOR~1\AppData\Local\Temp\ccSusWlX.s 			page 13


 424              		.loc 1 261 0
 425 000a FB79     		ldrb	r3, [r7, #7]	@ zero_extendqisi2
 426 000c 002B     		cmp	r3, #0
 427 000e 06D1     		bne	.L13
 262:.\Generated_Source\PSoC5/Filter.c ****         {        
 263:.\Generated_Source\PSoC5/Filter.c ****             val = Filter_HOLDA16_REG;
 428              		.loc 1 263 0
 429 0010 4CF2A973 		movw	r3, #51113
 430 0014 C4F20003 		movt	r3, 16384
 431 0018 1B88     		ldrh	r3, [r3, #0]	@ movhi
 432 001a FB81     		strh	r3, [r7, #14]	@ movhi
 433 001c 0CE0     		b	.L14
 434              	.L13:
 264:.\Generated_Source\PSoC5/Filter.c ****         }
 265:.\Generated_Source\PSoC5/Filter.c ****         else if (channel == Filter_CHANNEL_B)
 435              		.loc 1 265 0
 436 001e FB79     		ldrb	r3, [r7, #7]	@ zero_extendqisi2
 437 0020 012B     		cmp	r3, #1
 438 0022 06D1     		bne	.L15
 266:.\Generated_Source\PSoC5/Filter.c ****         {      
 267:.\Generated_Source\PSoC5/Filter.c ****             val = Filter_HOLDB16_REG;
 439              		.loc 1 267 0
 440 0024 4CF2AD73 		movw	r3, #51117
 441 0028 C4F20003 		movt	r3, 16384
 442 002c 1B88     		ldrh	r3, [r3, #0]	@ movhi
 443 002e FB81     		strh	r3, [r7, #14]	@ movhi
 444 0030 02E0     		b	.L14
 445              	.L15:
 268:.\Generated_Source\PSoC5/Filter.c ****         }
 269:.\Generated_Source\PSoC5/Filter.c ****         else
 270:.\Generated_Source\PSoC5/Filter.c ****         {
 271:.\Generated_Source\PSoC5/Filter.c ****             val = 0x0u;
 446              		.loc 1 271 0
 447 0032 4FF00003 		mov	r3, #0
 448 0036 FB81     		strh	r3, [r7, #14]	@ movhi
 449              	.L14:
 272:.\Generated_Source\PSoC5/Filter.c ****         }
 273:.\Generated_Source\PSoC5/Filter.c ****         return val;
 450              		.loc 1 273 0
 451 0038 FB89     		ldrh	r3, [r7, #14]
 274:.\Generated_Source\PSoC5/Filter.c ****     }
 452              		.loc 1 274 0
 453 003a 1846     		mov	r0, r3
 454 003c 07F11407 		add	r7, r7, #20
 455 0040 BD46     		mov	sp, r7
 456 0042 80BC     		pop	{r7}
 457 0044 7047     		bx	lr
 458              		.cfi_endproc
 459              	.LFE5:
 460              		.size	Filter_Read16, .-Filter_Read16
 461 0046 00BF     		.section	.text.Filter_Read24,"ax",%progbits
 462              		.align	2
 463              		.global	Filter_Read24
 464              		.thumb
 465              		.thumb_func
 466              		.type	Filter_Read24, %function
 467              	Filter_Read24:
ARM GAS  C:\Users\VICTOR~1\AppData\Local\Temp\ccSusWlX.s 			page 14


 468              	.LFB6:
 275:.\Generated_Source\PSoC5/Filter.c **** 
 276:.\Generated_Source\PSoC5/Filter.c **** #endif /* defined(__C51__) || defined(__CX51__) */
 277:.\Generated_Source\PSoC5/Filter.c **** 
 278:.\Generated_Source\PSoC5/Filter.c **** 
 279:.\Generated_Source\PSoC5/Filter.c **** /*******************************************************************************
 280:.\Generated_Source\PSoC5/Filter.c **** * Function Name: Filter_Read24
 281:.\Generated_Source\PSoC5/Filter.c **** ********************************************************************************
 282:.\Generated_Source\PSoC5/Filter.c **** *
 283:.\Generated_Source\PSoC5/Filter.c **** * Summary:
 284:.\Generated_Source\PSoC5/Filter.c **** *  Get the value in one of the DFB Output Holding Registers 
 285:.\Generated_Source\PSoC5/Filter.c **** *
 286:.\Generated_Source\PSoC5/Filter.c **** * Parameters:  
 287:.\Generated_Source\PSoC5/Filter.c **** *  channel:  Filter_CHANNEL_A or Filter_CHANNEL_B
 288:.\Generated_Source\PSoC5/Filter.c **** *            
 289:.\Generated_Source\PSoC5/Filter.c **** * Return: 
 290:.\Generated_Source\PSoC5/Filter.c **** *  The current 24-bit output value sitting in the selected channel's
 291:.\Generated_Source\PSoC5/Filter.c **** *  holding register or 0x00000000 for invalid channel numbers
 292:.\Generated_Source\PSoC5/Filter.c **** *
 293:.\Generated_Source\PSoC5/Filter.c **** * Note:
 294:.\Generated_Source\PSoC5/Filter.c **** *  Order of the read is important.  On the read of the high byte, the DFB clears
 295:.\Generated_Source\PSoC5/Filter.c **** *  the data ready bit.
 296:.\Generated_Source\PSoC5/Filter.c **** *
 297:.\Generated_Source\PSoC5/Filter.c **** *******************************************************************************/
 298:.\Generated_Source\PSoC5/Filter.c **** #if defined(__C51__) || defined(__CX51__)
 299:.\Generated_Source\PSoC5/Filter.c **** 
 300:.\Generated_Source\PSoC5/Filter.c ****     uint32 Filter_Read24(uint8 channel) 
 301:.\Generated_Source\PSoC5/Filter.c ****     {
 302:.\Generated_Source\PSoC5/Filter.c ****         uint32 val;
 303:.\Generated_Source\PSoC5/Filter.c ****     
 304:.\Generated_Source\PSoC5/Filter.c ****         if (channel == Filter_CHANNEL_A)
 305:.\Generated_Source\PSoC5/Filter.c ****         {        
 306:.\Generated_Source\PSoC5/Filter.c ****             val = Filter_HOLDA_REG;
 307:.\Generated_Source\PSoC5/Filter.c ****             val |= (uint32)(Filter_HOLDAM_REG) << 8u;
 308:.\Generated_Source\PSoC5/Filter.c ****             val |= (uint32)(Filter_HOLDAH_REG) << 16u;
 309:.\Generated_Source\PSoC5/Filter.c ****             
 310:.\Generated_Source\PSoC5/Filter.c ****             /* SignExtend */
 311:.\Generated_Source\PSoC5/Filter.c ****             if((val & Filter_SIGN_BIT) == Filter_SIGN_BIT)
 312:.\Generated_Source\PSoC5/Filter.c ****             {    
 313:.\Generated_Source\PSoC5/Filter.c **** 				val |= Filter_SIGN_BYTE;
 314:.\Generated_Source\PSoC5/Filter.c **** 			}
 315:.\Generated_Source\PSoC5/Filter.c ****         }
 316:.\Generated_Source\PSoC5/Filter.c ****         else if (channel == Filter_CHANNEL_B)
 317:.\Generated_Source\PSoC5/Filter.c ****         {      
 318:.\Generated_Source\PSoC5/Filter.c ****             val = Filter_HOLDB_REG;
 319:.\Generated_Source\PSoC5/Filter.c ****             val |= (uint32)Filter_HOLDBM_REG << 8u;
 320:.\Generated_Source\PSoC5/Filter.c ****             val |= (uint32)Filter_HOLDBH_REG << 16u;
 321:.\Generated_Source\PSoC5/Filter.c ****             
 322:.\Generated_Source\PSoC5/Filter.c ****             /* SignExtend */
 323:.\Generated_Source\PSoC5/Filter.c ****             if((val & Filter_SIGN_BIT) == Filter_SIGN_BIT)
 324:.\Generated_Source\PSoC5/Filter.c ****             {
 325:.\Generated_Source\PSoC5/Filter.c **** 				val |= Filter_SIGN_BYTE;
 326:.\Generated_Source\PSoC5/Filter.c **** 			}
 327:.\Generated_Source\PSoC5/Filter.c ****         }
 328:.\Generated_Source\PSoC5/Filter.c ****         else
 329:.\Generated_Source\PSoC5/Filter.c ****         {
 330:.\Generated_Source\PSoC5/Filter.c ****             val = 0x0u;
ARM GAS  C:\Users\VICTOR~1\AppData\Local\Temp\ccSusWlX.s 			page 15


 331:.\Generated_Source\PSoC5/Filter.c ****         }
 332:.\Generated_Source\PSoC5/Filter.c ****         return val;
 333:.\Generated_Source\PSoC5/Filter.c ****     }
 334:.\Generated_Source\PSoC5/Filter.c **** 
 335:.\Generated_Source\PSoC5/Filter.c **** #else
 336:.\Generated_Source\PSoC5/Filter.c **** 
 337:.\Generated_Source\PSoC5/Filter.c ****     uint32 Filter_Read24(uint8 channel) 
 338:.\Generated_Source\PSoC5/Filter.c ****     {
 469              		.loc 1 338 0
 470              		.cfi_startproc
 471              		@ args = 0, pretend = 0, frame = 16
 472              		@ frame_needed = 1, uses_anonymous_args = 0
 473              		@ link register save eliminated.
 474 0000 80B4     		push	{r7}
 475              	.LCFI14:
 476              		.cfi_def_cfa_offset 4
 477              		.cfi_offset 7, -4
 478 0002 85B0     		sub	sp, sp, #20
 479              	.LCFI15:
 480              		.cfi_def_cfa_offset 24
 481 0004 00AF     		add	r7, sp, #0
 482              	.LCFI16:
 483              		.cfi_def_cfa_register 7
 484 0006 0346     		mov	r3, r0
 485 0008 FB71     		strb	r3, [r7, #7]
 339:.\Generated_Source\PSoC5/Filter.c ****         uint32 val;
 340:.\Generated_Source\PSoC5/Filter.c ****          
 341:.\Generated_Source\PSoC5/Filter.c ****         if (channel == Filter_CHANNEL_A)
 486              		.loc 1 341 0
 487 000a FB79     		ldrb	r3, [r7, #7]	@ zero_extendqisi2
 488 000c 002B     		cmp	r3, #0
 489 000e 06D1     		bne	.L18
 342:.\Generated_Source\PSoC5/Filter.c ****         {        
 343:.\Generated_Source\PSoC5/Filter.c ****             val = Filter_HOLDA24_REG;
 490              		.loc 1 343 0
 491 0010 4CF2A873 		movw	r3, #51112
 492 0014 C4F20003 		movt	r3, 16384
 493 0018 1B68     		ldr	r3, [r3, #0]
 494 001a FB60     		str	r3, [r7, #12]
 495 001c 0CE0     		b	.L19
 496              	.L18:
 344:.\Generated_Source\PSoC5/Filter.c ****         }
 345:.\Generated_Source\PSoC5/Filter.c ****         else if (channel == Filter_CHANNEL_B)
 497              		.loc 1 345 0
 498 001e FB79     		ldrb	r3, [r7, #7]	@ zero_extendqisi2
 499 0020 012B     		cmp	r3, #1
 500 0022 06D1     		bne	.L20
 346:.\Generated_Source\PSoC5/Filter.c ****         {      
 347:.\Generated_Source\PSoC5/Filter.c ****             val = Filter_HOLDB24_REG;
 501              		.loc 1 347 0
 502 0024 4CF2AC73 		movw	r3, #51116
 503 0028 C4F20003 		movt	r3, 16384
 504 002c 1B68     		ldr	r3, [r3, #0]
 505 002e FB60     		str	r3, [r7, #12]
 506 0030 02E0     		b	.L19
 507              	.L20:
 348:.\Generated_Source\PSoC5/Filter.c ****         }
ARM GAS  C:\Users\VICTOR~1\AppData\Local\Temp\ccSusWlX.s 			page 16


 349:.\Generated_Source\PSoC5/Filter.c ****         else
 350:.\Generated_Source\PSoC5/Filter.c ****         {
 351:.\Generated_Source\PSoC5/Filter.c ****             val = 0x0u;
 508              		.loc 1 351 0
 509 0032 4FF00003 		mov	r3, #0
 510 0036 FB60     		str	r3, [r7, #12]
 511              	.L19:
 352:.\Generated_Source\PSoC5/Filter.c ****         }
 353:.\Generated_Source\PSoC5/Filter.c ****         return val;
 512              		.loc 1 353 0
 513 0038 FB68     		ldr	r3, [r7, #12]
 354:.\Generated_Source\PSoC5/Filter.c ****     }
 514              		.loc 1 354 0
 515 003a 1846     		mov	r0, r3
 516 003c 07F11407 		add	r7, r7, #20
 517 0040 BD46     		mov	sp, r7
 518 0042 80BC     		pop	{r7}
 519 0044 7047     		bx	lr
 520              		.cfi_endproc
 521              	.LFE6:
 522              		.size	Filter_Read24, .-Filter_Read24
 523 0046 00BF     		.section	.text.Filter_Write8,"ax",%progbits
 524              		.align	2
 525              		.global	Filter_Write8
 526              		.thumb
 527              		.thumb_func
 528              		.type	Filter_Write8, %function
 529              	Filter_Write8:
 530              	.LFB7:
 355:.\Generated_Source\PSoC5/Filter.c **** 
 356:.\Generated_Source\PSoC5/Filter.c **** #endif /* defined(__C51__) || defined(__CX51__) */
 357:.\Generated_Source\PSoC5/Filter.c **** 
 358:.\Generated_Source\PSoC5/Filter.c **** 
 359:.\Generated_Source\PSoC5/Filter.c **** /*******************************************************************************
 360:.\Generated_Source\PSoC5/Filter.c **** * Function Name: Filter_Write8
 361:.\Generated_Source\PSoC5/Filter.c **** ********************************************************************************
 362:.\Generated_Source\PSoC5/Filter.c **** *
 363:.\Generated_Source\PSoC5/Filter.c **** * Summary:
 364:.\Generated_Source\PSoC5/Filter.c **** *  Set the value in one of the DFB Input Staging Registers 
 365:.\Generated_Source\PSoC5/Filter.c **** *
 366:.\Generated_Source\PSoC5/Filter.c **** * Parameters:  
 367:.\Generated_Source\PSoC5/Filter.c **** *  channel:  Use either Filter_CHANNEL_A or 
 368:.\Generated_Source\PSoC5/Filter.c **** *            Filter_CHANNEL_B as arguments to the function.  
 369:.\Generated_Source\PSoC5/Filter.c **** *  sample:   The 8-bit, right justified input sample. 
 370:.\Generated_Source\PSoC5/Filter.c **** *
 371:.\Generated_Source\PSoC5/Filter.c **** * Return: 
 372:.\Generated_Source\PSoC5/Filter.c **** *  void
 373:.\Generated_Source\PSoC5/Filter.c **** *
 374:.\Generated_Source\PSoC5/Filter.c **** * Note:
 375:.\Generated_Source\PSoC5/Filter.c **** *  Order of the write is important.  On the load of the high byte, the DFB sets
 376:.\Generated_Source\PSoC5/Filter.c **** *  the input ready bit.
 377:.\Generated_Source\PSoC5/Filter.c **** *
 378:.\Generated_Source\PSoC5/Filter.c **** *******************************************************************************/
 379:.\Generated_Source\PSoC5/Filter.c **** void Filter_Write8(uint8 channel, uint8 sample) 
 380:.\Generated_Source\PSoC5/Filter.c **** {
 531              		.loc 1 380 0
 532              		.cfi_startproc
ARM GAS  C:\Users\VICTOR~1\AppData\Local\Temp\ccSusWlX.s 			page 17


 533              		@ args = 0, pretend = 0, frame = 8
 534              		@ frame_needed = 1, uses_anonymous_args = 0
 535              		@ link register save eliminated.
 536 0000 80B4     		push	{r7}
 537              	.LCFI17:
 538              		.cfi_def_cfa_offset 4
 539              		.cfi_offset 7, -4
 540 0002 83B0     		sub	sp, sp, #12
 541              	.LCFI18:
 542              		.cfi_def_cfa_offset 16
 543 0004 00AF     		add	r7, sp, #0
 544              	.LCFI19:
 545              		.cfi_def_cfa_register 7
 546 0006 0246     		mov	r2, r0
 547 0008 0B46     		mov	r3, r1
 548 000a FA71     		strb	r2, [r7, #7]
 549 000c BB71     		strb	r3, [r7, #6]
 381:.\Generated_Source\PSoC5/Filter.c ****     if (channel == Filter_CHANNEL_A)
 550              		.loc 1 381 0
 551 000e FB79     		ldrb	r3, [r7, #7]	@ zero_extendqisi2
 552 0010 002B     		cmp	r3, #0
 553 0012 06D1     		bne	.L23
 382:.\Generated_Source\PSoC5/Filter.c ****     {
 383:.\Generated_Source\PSoC5/Filter.c ****         Filter_STAGEAH_REG = sample;
 554              		.loc 1 383 0
 555 0014 4CF2A273 		movw	r3, #51106
 556 0018 C4F20003 		movt	r3, 16384
 557 001c BA79     		ldrb	r2, [r7, #6]
 558 001e 1A70     		strb	r2, [r3, #0]
 559 0020 08E0     		b	.L22
 560              	.L23:
 384:.\Generated_Source\PSoC5/Filter.c ****     }
 385:.\Generated_Source\PSoC5/Filter.c ****     else if (channel == Filter_CHANNEL_B)
 561              		.loc 1 385 0
 562 0022 FB79     		ldrb	r3, [r7, #7]	@ zero_extendqisi2
 563 0024 012B     		cmp	r3, #1
 564 0026 05D1     		bne	.L22
 386:.\Generated_Source\PSoC5/Filter.c ****     {
 387:.\Generated_Source\PSoC5/Filter.c ****         Filter_STAGEBH_REG = sample;
 565              		.loc 1 387 0
 566 0028 4CF2A673 		movw	r3, #51110
 567 002c C4F20003 		movt	r3, 16384
 568 0030 BA79     		ldrb	r2, [r7, #6]
 569 0032 1A70     		strb	r2, [r3, #0]
 570              	.L22:
 388:.\Generated_Source\PSoC5/Filter.c ****     }
 389:.\Generated_Source\PSoC5/Filter.c **** 	else
 390:.\Generated_Source\PSoC5/Filter.c **** 	{
 391:.\Generated_Source\PSoC5/Filter.c **** 		/* No value is loaded on bad channel input */
 392:.\Generated_Source\PSoC5/Filter.c **** 	}
 393:.\Generated_Source\PSoC5/Filter.c **** }
 571              		.loc 1 393 0
 572 0034 07F10C07 		add	r7, r7, #12
 573 0038 BD46     		mov	sp, r7
 574 003a 80BC     		pop	{r7}
 575 003c 7047     		bx	lr
 576              		.cfi_endproc
ARM GAS  C:\Users\VICTOR~1\AppData\Local\Temp\ccSusWlX.s 			page 18


 577              	.LFE7:
 578              		.size	Filter_Write8, .-Filter_Write8
 579 003e 00BF     		.section	.text.Filter_Write16,"ax",%progbits
 580              		.align	2
 581              		.global	Filter_Write16
 582              		.thumb
 583              		.thumb_func
 584              		.type	Filter_Write16, %function
 585              	Filter_Write16:
 586              	.LFB8:
 394:.\Generated_Source\PSoC5/Filter.c **** 
 395:.\Generated_Source\PSoC5/Filter.c **** 
 396:.\Generated_Source\PSoC5/Filter.c **** /*******************************************************************************
 397:.\Generated_Source\PSoC5/Filter.c **** * Function Name: Filter_Write16
 398:.\Generated_Source\PSoC5/Filter.c **** ********************************************************************************
 399:.\Generated_Source\PSoC5/Filter.c **** *
 400:.\Generated_Source\PSoC5/Filter.c **** * Summary:
 401:.\Generated_Source\PSoC5/Filter.c **** *  Set the value in one of the DFB Input Staging Registers 
 402:.\Generated_Source\PSoC5/Filter.c **** *
 403:.\Generated_Source\PSoC5/Filter.c **** * Parameters:  
 404:.\Generated_Source\PSoC5/Filter.c **** *  channel:  Use either Filter_CHANNEL_A or 
 405:.\Generated_Source\PSoC5/Filter.c **** *            Filter_CHANNEL_B as arguments to the function.  
 406:.\Generated_Source\PSoC5/Filter.c **** *  sample:   The 16-bit, right justified input sample. 
 407:.\Generated_Source\PSoC5/Filter.c **** *
 408:.\Generated_Source\PSoC5/Filter.c **** * Return: 
 409:.\Generated_Source\PSoC5/Filter.c **** *  void
 410:.\Generated_Source\PSoC5/Filter.c **** *
 411:.\Generated_Source\PSoC5/Filter.c **** * Note:
 412:.\Generated_Source\PSoC5/Filter.c **** *  Order of the write is important.  On the load of the high byte, the DFB sets
 413:.\Generated_Source\PSoC5/Filter.c **** *  the input ready bit.
 414:.\Generated_Source\PSoC5/Filter.c **** *
 415:.\Generated_Source\PSoC5/Filter.c **** *******************************************************************************/
 416:.\Generated_Source\PSoC5/Filter.c **** #if defined(__C51__) || defined(__CX51__)
 417:.\Generated_Source\PSoC5/Filter.c **** 
 418:.\Generated_Source\PSoC5/Filter.c ****     void Filter_Write16(uint8 channel, uint16 sample) 
 419:.\Generated_Source\PSoC5/Filter.c ****     {
 420:.\Generated_Source\PSoC5/Filter.c ****         /* Write the STAGE MSB reg last as it signals a complete wrote to the 
 421:.\Generated_Source\PSoC5/Filter.c ****            DFB.*/
 422:.\Generated_Source\PSoC5/Filter.c ****         if (channel == Filter_CHANNEL_A)
 423:.\Generated_Source\PSoC5/Filter.c ****         {
 424:.\Generated_Source\PSoC5/Filter.c ****             Filter_STAGEAM_REG = (uint8)(sample);
 425:.\Generated_Source\PSoC5/Filter.c ****             Filter_STAGEAH_REG = (uint8)(sample >> 8u);
 426:.\Generated_Source\PSoC5/Filter.c ****         }
 427:.\Generated_Source\PSoC5/Filter.c ****         else if (channel == Filter_CHANNEL_B)
 428:.\Generated_Source\PSoC5/Filter.c ****         {
 429:.\Generated_Source\PSoC5/Filter.c ****             Filter_STAGEBM_REG = (uint8)(sample);
 430:.\Generated_Source\PSoC5/Filter.c ****             Filter_STAGEBH_REG = (uint8)(sample >> 8u);
 431:.\Generated_Source\PSoC5/Filter.c ****         }
 432:.\Generated_Source\PSoC5/Filter.c ****         else
 433:.\Generated_Source\PSoC5/Filter.c **** 		{
 434:.\Generated_Source\PSoC5/Filter.c **** 			/* No value is loaded on bad channel input */
 435:.\Generated_Source\PSoC5/Filter.c **** 		}
 436:.\Generated_Source\PSoC5/Filter.c ****     }
 437:.\Generated_Source\PSoC5/Filter.c **** 
 438:.\Generated_Source\PSoC5/Filter.c **** #else
 439:.\Generated_Source\PSoC5/Filter.c **** 
 440:.\Generated_Source\PSoC5/Filter.c ****     void Filter_Write16(uint8 channel, uint16 sample) 
ARM GAS  C:\Users\VICTOR~1\AppData\Local\Temp\ccSusWlX.s 			page 19


 441:.\Generated_Source\PSoC5/Filter.c ****     {
 587              		.loc 1 441 0
 588              		.cfi_startproc
 589              		@ args = 0, pretend = 0, frame = 8
 590              		@ frame_needed = 1, uses_anonymous_args = 0
 591              		@ link register save eliminated.
 592 0000 80B4     		push	{r7}
 593              	.LCFI20:
 594              		.cfi_def_cfa_offset 4
 595              		.cfi_offset 7, -4
 596 0002 83B0     		sub	sp, sp, #12
 597              	.LCFI21:
 598              		.cfi_def_cfa_offset 16
 599 0004 00AF     		add	r7, sp, #0
 600              	.LCFI22:
 601              		.cfi_def_cfa_register 7
 602 0006 0246     		mov	r2, r0
 603 0008 0B46     		mov	r3, r1
 604 000a FA71     		strb	r2, [r7, #7]
 605 000c BB80     		strh	r3, [r7, #4]	@ movhi
 442:.\Generated_Source\PSoC5/Filter.c ****         if (channel == Filter_CHANNEL_A)
 606              		.loc 1 442 0
 607 000e FB79     		ldrb	r3, [r7, #7]	@ zero_extendqisi2
 608 0010 002B     		cmp	r3, #0
 609 0012 06D1     		bne	.L26
 443:.\Generated_Source\PSoC5/Filter.c ****         {
 444:.\Generated_Source\PSoC5/Filter.c ****             Filter_STAGEA16_REG = sample;
 610              		.loc 1 444 0
 611 0014 4CF2A173 		movw	r3, #51105
 612 0018 C4F20003 		movt	r3, 16384
 613 001c BA88     		ldrh	r2, [r7, #4]	@ movhi
 614 001e 1A80     		strh	r2, [r3, #0]	@ movhi
 615 0020 08E0     		b	.L25
 616              	.L26:
 445:.\Generated_Source\PSoC5/Filter.c ****         }
 446:.\Generated_Source\PSoC5/Filter.c ****         else if (channel == Filter_CHANNEL_B)
 617              		.loc 1 446 0
 618 0022 FB79     		ldrb	r3, [r7, #7]	@ zero_extendqisi2
 619 0024 012B     		cmp	r3, #1
 620 0026 05D1     		bne	.L25
 447:.\Generated_Source\PSoC5/Filter.c ****         {
 448:.\Generated_Source\PSoC5/Filter.c ****             Filter_STAGEB16_REG = sample;
 621              		.loc 1 448 0
 622 0028 4CF2A573 		movw	r3, #51109
 623 002c C4F20003 		movt	r3, 16384
 624 0030 BA88     		ldrh	r2, [r7, #4]	@ movhi
 625 0032 1A80     		strh	r2, [r3, #0]	@ movhi
 626              	.L25:
 449:.\Generated_Source\PSoC5/Filter.c ****         }
 450:.\Generated_Source\PSoC5/Filter.c ****         else
 451:.\Generated_Source\PSoC5/Filter.c **** 		{
 452:.\Generated_Source\PSoC5/Filter.c **** 			/* No value is loaded on bad channel input */
 453:.\Generated_Source\PSoC5/Filter.c **** 		}
 454:.\Generated_Source\PSoC5/Filter.c ****     }
 627              		.loc 1 454 0
 628 0034 07F10C07 		add	r7, r7, #12
 629 0038 BD46     		mov	sp, r7
ARM GAS  C:\Users\VICTOR~1\AppData\Local\Temp\ccSusWlX.s 			page 20


 630 003a 80BC     		pop	{r7}
 631 003c 7047     		bx	lr
 632              		.cfi_endproc
 633              	.LFE8:
 634              		.size	Filter_Write16, .-Filter_Write16
 635 003e 00BF     		.section	.text.Filter_Write24,"ax",%progbits
 636              		.align	2
 637              		.global	Filter_Write24
 638              		.thumb
 639              		.thumb_func
 640              		.type	Filter_Write24, %function
 641              	Filter_Write24:
 642              	.LFB9:
 455:.\Generated_Source\PSoC5/Filter.c **** 
 456:.\Generated_Source\PSoC5/Filter.c **** #endif /* defined(__C51__) || defined(__CX51__) */
 457:.\Generated_Source\PSoC5/Filter.c **** 
 458:.\Generated_Source\PSoC5/Filter.c **** 
 459:.\Generated_Source\PSoC5/Filter.c **** /*******************************************************************************
 460:.\Generated_Source\PSoC5/Filter.c **** * Function Name: Filter_Write24
 461:.\Generated_Source\PSoC5/Filter.c **** ********************************************************************************
 462:.\Generated_Source\PSoC5/Filter.c **** *
 463:.\Generated_Source\PSoC5/Filter.c **** * Summary:
 464:.\Generated_Source\PSoC5/Filter.c **** *  Set the value in one of the DFB Input Staging Registers 
 465:.\Generated_Source\PSoC5/Filter.c **** *
 466:.\Generated_Source\PSoC5/Filter.c **** * Parameters:  
 467:.\Generated_Source\PSoC5/Filter.c **** *  channel:  Use either Filter_CHANNEL_A or 
 468:.\Generated_Source\PSoC5/Filter.c **** *            Filter_CHANNEL_B as arguments to the function.  
 469:.\Generated_Source\PSoC5/Filter.c **** *  sample:   The 24-bit, right justified input sample inside of a uint32. 
 470:.\Generated_Source\PSoC5/Filter.c **** *
 471:.\Generated_Source\PSoC5/Filter.c **** * Return: 
 472:.\Generated_Source\PSoC5/Filter.c **** *  void
 473:.\Generated_Source\PSoC5/Filter.c **** *
 474:.\Generated_Source\PSoC5/Filter.c **** * Note:
 475:.\Generated_Source\PSoC5/Filter.c **** *  Order of the write is important.  On the load of the high byte, the DFB sets
 476:.\Generated_Source\PSoC5/Filter.c **** *  the input ready bit.
 477:.\Generated_Source\PSoC5/Filter.c **** *
 478:.\Generated_Source\PSoC5/Filter.c **** *******************************************************************************/
 479:.\Generated_Source\PSoC5/Filter.c **** #if defined(__C51__) || defined(__CX51__)
 480:.\Generated_Source\PSoC5/Filter.c **** 
 481:.\Generated_Source\PSoC5/Filter.c ****     void Filter_Write24(uint8 channel, uint32 sample) 
 482:.\Generated_Source\PSoC5/Filter.c ****     {
 483:.\Generated_Source\PSoC5/Filter.c ****         /* Write the STAGE LSB reg last as it signals a complete wrote to 
 484:.\Generated_Source\PSoC5/Filter.c ****            the DFB.*/
 485:.\Generated_Source\PSoC5/Filter.c ****         if (channel == Filter_CHANNEL_A)
 486:.\Generated_Source\PSoC5/Filter.c ****         {
 487:.\Generated_Source\PSoC5/Filter.c ****             Filter_STAGEA_REG  = (uint8)(sample);
 488:.\Generated_Source\PSoC5/Filter.c ****             Filter_STAGEAM_REG = (uint8)(sample >> 8u);
 489:.\Generated_Source\PSoC5/Filter.c ****             Filter_STAGEAH_REG = (uint8)(sample >> 16u);
 490:.\Generated_Source\PSoC5/Filter.c ****         }
 491:.\Generated_Source\PSoC5/Filter.c ****         else if (channel == Filter_CHANNEL_B)
 492:.\Generated_Source\PSoC5/Filter.c ****         {
 493:.\Generated_Source\PSoC5/Filter.c ****             Filter_STAGEB_REG = (uint8)(sample);
 494:.\Generated_Source\PSoC5/Filter.c ****             Filter_STAGEBM_REG = (uint8)(sample >> 8u);
 495:.\Generated_Source\PSoC5/Filter.c ****             Filter_STAGEBH_REG = (uint8)(sample >> 16u);
 496:.\Generated_Source\PSoC5/Filter.c ****         }
 497:.\Generated_Source\PSoC5/Filter.c ****         else
 498:.\Generated_Source\PSoC5/Filter.c **** 		{
ARM GAS  C:\Users\VICTOR~1\AppData\Local\Temp\ccSusWlX.s 			page 21


 499:.\Generated_Source\PSoC5/Filter.c **** 			/* No value is loaded on bad channel input */
 500:.\Generated_Source\PSoC5/Filter.c **** 		}
 501:.\Generated_Source\PSoC5/Filter.c ****     }
 502:.\Generated_Source\PSoC5/Filter.c **** 
 503:.\Generated_Source\PSoC5/Filter.c **** #else
 504:.\Generated_Source\PSoC5/Filter.c **** 
 505:.\Generated_Source\PSoC5/Filter.c ****     void Filter_Write24(uint8 channel, uint32 sample) 
 506:.\Generated_Source\PSoC5/Filter.c ****     {
 643              		.loc 1 506 0
 644              		.cfi_startproc
 645              		@ args = 0, pretend = 0, frame = 8
 646              		@ frame_needed = 1, uses_anonymous_args = 0
 647              		@ link register save eliminated.
 648 0000 80B4     		push	{r7}
 649              	.LCFI23:
 650              		.cfi_def_cfa_offset 4
 651              		.cfi_offset 7, -4
 652 0002 83B0     		sub	sp, sp, #12
 653              	.LCFI24:
 654              		.cfi_def_cfa_offset 16
 655 0004 00AF     		add	r7, sp, #0
 656              	.LCFI25:
 657              		.cfi_def_cfa_register 7
 658 0006 0346     		mov	r3, r0
 659 0008 3960     		str	r1, [r7, #0]
 660 000a FB71     		strb	r3, [r7, #7]
 507:.\Generated_Source\PSoC5/Filter.c ****         if (channel == Filter_CHANNEL_A)
 661              		.loc 1 507 0
 662 000c FB79     		ldrb	r3, [r7, #7]	@ zero_extendqisi2
 663 000e 002B     		cmp	r3, #0
 664 0010 06D1     		bne	.L29
 508:.\Generated_Source\PSoC5/Filter.c ****         {
 509:.\Generated_Source\PSoC5/Filter.c ****             Filter_STAGEA24_REG = sample;
 665              		.loc 1 509 0
 666 0012 4CF2A073 		movw	r3, #51104
 667 0016 C4F20003 		movt	r3, 16384
 668 001a 3A68     		ldr	r2, [r7, #0]
 669 001c 1A60     		str	r2, [r3, #0]
 670 001e 08E0     		b	.L28
 671              	.L29:
 510:.\Generated_Source\PSoC5/Filter.c ****         }
 511:.\Generated_Source\PSoC5/Filter.c ****         else if (channel == Filter_CHANNEL_B)
 672              		.loc 1 511 0
 673 0020 FB79     		ldrb	r3, [r7, #7]	@ zero_extendqisi2
 674 0022 012B     		cmp	r3, #1
 675 0024 05D1     		bne	.L28
 512:.\Generated_Source\PSoC5/Filter.c ****         {
 513:.\Generated_Source\PSoC5/Filter.c ****             Filter_STAGEB24_REG = sample;
 676              		.loc 1 513 0
 677 0026 4CF2A473 		movw	r3, #51108
 678 002a C4F20003 		movt	r3, 16384
 679 002e 3A68     		ldr	r2, [r7, #0]
 680 0030 1A60     		str	r2, [r3, #0]
 681              	.L28:
 514:.\Generated_Source\PSoC5/Filter.c ****         }
 515:.\Generated_Source\PSoC5/Filter.c ****         else
 516:.\Generated_Source\PSoC5/Filter.c **** 		{
ARM GAS  C:\Users\VICTOR~1\AppData\Local\Temp\ccSusWlX.s 			page 22


 517:.\Generated_Source\PSoC5/Filter.c **** 			/* No value is loaded on bad channel input */
 518:.\Generated_Source\PSoC5/Filter.c **** 		}
 519:.\Generated_Source\PSoC5/Filter.c ****     }
 682              		.loc 1 519 0
 683 0032 07F10C07 		add	r7, r7, #12
 684 0036 BD46     		mov	sp, r7
 685 0038 80BC     		pop	{r7}
 686 003a 7047     		bx	lr
 687              		.cfi_endproc
 688              	.LFE9:
 689              		.size	Filter_Write24, .-Filter_Write24
 690              		.section	.text.Filter_SetCoherency,"ax",%progbits
 691              		.align	2
 692              		.global	Filter_SetCoherency
 693              		.thumb
 694              		.thumb_func
 695              		.type	Filter_SetCoherency, %function
 696              	Filter_SetCoherency:
 697              	.LFB10:
 520:.\Generated_Source\PSoC5/Filter.c **** 
 521:.\Generated_Source\PSoC5/Filter.c **** #endif /* defined(__C51__) || defined(__CX51__) */
 522:.\Generated_Source\PSoC5/Filter.c **** 
 523:.\Generated_Source\PSoC5/Filter.c **** 
 524:.\Generated_Source\PSoC5/Filter.c **** /*******************************************************************************
 525:.\Generated_Source\PSoC5/Filter.c **** * Function Name: Filter_SetCoherency
 526:.\Generated_Source\PSoC5/Filter.c **** ********************************************************************************
 527:.\Generated_Source\PSoC5/Filter.c **** *
 528:.\Generated_Source\PSoC5/Filter.c **** * Summary:
 529:.\Generated_Source\PSoC5/Filter.c **** *  Sets the DFB coherency register with the user provided input 
 530:.\Generated_Source\PSoC5/Filter.c **** *
 531:.\Generated_Source\PSoC5/Filter.c **** * Parameters:  
 532:.\Generated_Source\PSoC5/Filter.c **** *  channel:  Filter_CHANNEL_A or Filter_CHANNEL_B
 533:.\Generated_Source\PSoC5/Filter.c **** *  byteSelect:  High byte, Middle byte or Low byte as the key coherency byte.
 534:.\Generated_Source\PSoC5/Filter.c **** *            
 535:.\Generated_Source\PSoC5/Filter.c **** * Return: 
 536:.\Generated_Source\PSoC5/Filter.c **** *  None.
 537:.\Generated_Source\PSoC5/Filter.c **** *
 538:.\Generated_Source\PSoC5/Filter.c **** *******************************************************************************/
 539:.\Generated_Source\PSoC5/Filter.c **** void Filter_SetCoherency(uint8 channel, uint8 byteSelect) 
 540:.\Generated_Source\PSoC5/Filter.c **** {
 698              		.loc 1 540 0
 699              		.cfi_startproc
 700              		@ args = 0, pretend = 0, frame = 8
 701              		@ frame_needed = 1, uses_anonymous_args = 0
 702              		@ link register save eliminated.
 703 0000 80B4     		push	{r7}
 704              	.LCFI26:
 705              		.cfi_def_cfa_offset 4
 706              		.cfi_offset 7, -4
 707 0002 83B0     		sub	sp, sp, #12
 708              	.LCFI27:
 709              		.cfi_def_cfa_offset 16
 710 0004 00AF     		add	r7, sp, #0
 711              	.LCFI28:
 712              		.cfi_def_cfa_register 7
 713 0006 0246     		mov	r2, r0
 714 0008 0B46     		mov	r3, r1
ARM GAS  C:\Users\VICTOR~1\AppData\Local\Temp\ccSusWlX.s 			page 23


 715 000a FA71     		strb	r2, [r7, #7]
 716 000c BB71     		strb	r3, [r7, #6]
 541:.\Generated_Source\PSoC5/Filter.c ****     if (channel == Filter_CHANNEL_A)
 717              		.loc 1 541 0
 718 000e FB79     		ldrb	r3, [r7, #7]	@ zero_extendqisi2
 719 0010 002B     		cmp	r3, #0
 720 0012 2DD1     		bne	.L32
 542:.\Generated_Source\PSoC5/Filter.c ****     {
 543:.\Generated_Source\PSoC5/Filter.c ****         Filter_COHER_REG &= 
 721              		.loc 1 543 0
 722 0014 4CF2B073 		movw	r3, #51120
 723 0018 C4F20003 		movt	r3, 16384
 724 001c 4CF2B072 		movw	r2, #51120
 725 0020 C4F20002 		movt	r2, 16384
 726 0024 1278     		ldrb	r2, [r2, #0]
 727 0026 D2B2     		uxtb	r2, r2
 728 0028 22F03302 		bic	r2, r2, #51
 729 002c D2B2     		uxtb	r2, r2
 730 002e 1A70     		strb	r2, [r3, #0]
 544:.\Generated_Source\PSoC5/Filter.c ****                 (uint8)(~(uint8)(Filter_STAGEA_COHER_MASK | Filter_HOLDA_COHER_MASK));
 545:.\Generated_Source\PSoC5/Filter.c ****         Filter_COHER_REG |= byteSelect;
 731              		.loc 1 545 0
 732 0030 4CF2B073 		movw	r3, #51120
 733 0034 C4F20003 		movt	r3, 16384
 734 0038 4CF2B072 		movw	r2, #51120
 735 003c C4F20002 		movt	r2, 16384
 736 0040 1278     		ldrb	r2, [r2, #0]
 737 0042 D1B2     		uxtb	r1, r2
 738 0044 BA79     		ldrb	r2, [r7, #6]
 739 0046 0A43     		orrs	r2, r2, r1
 740 0048 D2B2     		uxtb	r2, r2
 741 004a 1A70     		strb	r2, [r3, #0]
 546:.\Generated_Source\PSoC5/Filter.c ****         Filter_COHER_REG |= (uint8)((uint8)byteSelect << 4u);
 742              		.loc 1 546 0
 743 004c 4CF2B073 		movw	r3, #51120
 744 0050 C4F20003 		movt	r3, 16384
 745 0054 4CF2B072 		movw	r2, #51120
 746 0058 C4F20002 		movt	r2, 16384
 747 005c 1278     		ldrb	r2, [r2, #0]
 748 005e D1B2     		uxtb	r1, r2
 749 0060 BA79     		ldrb	r2, [r7, #6]
 750 0062 4FEA0212 		lsl	r2, r2, #4
 751 0066 D2B2     		uxtb	r2, r2
 752 0068 0A43     		orrs	r2, r2, r1
 753 006a D2B2     		uxtb	r2, r2
 754 006c 1A70     		strb	r2, [r3, #0]
 755 006e 32E0     		b	.L31
 756              	.L32:
 547:.\Generated_Source\PSoC5/Filter.c ****     }
 548:.\Generated_Source\PSoC5/Filter.c ****     else if (channel == Filter_CHANNEL_B)
 757              		.loc 1 548 0
 758 0070 FB79     		ldrb	r3, [r7, #7]	@ zero_extendqisi2
 759 0072 012B     		cmp	r3, #1
 760 0074 2FD1     		bne	.L31
 549:.\Generated_Source\PSoC5/Filter.c ****     {
 550:.\Generated_Source\PSoC5/Filter.c ****         Filter_COHER_REG &= 
 761              		.loc 1 550 0
ARM GAS  C:\Users\VICTOR~1\AppData\Local\Temp\ccSusWlX.s 			page 24


 762 0076 4CF2B073 		movw	r3, #51120
 763 007a C4F20003 		movt	r3, 16384
 764 007e 4CF2B072 		movw	r2, #51120
 765 0082 C4F20002 		movt	r2, 16384
 766 0086 1278     		ldrb	r2, [r2, #0]
 767 0088 D2B2     		uxtb	r2, r2
 768 008a 02F03302 		and	r2, r2, #51
 769 008e D2B2     		uxtb	r2, r2
 770 0090 1A70     		strb	r2, [r3, #0]
 551:.\Generated_Source\PSoC5/Filter.c ****                 (uint8)(~(uint8)(Filter_STAGEB_COHER_MASK | Filter_HOLDB_COHER_MASK));
 552:.\Generated_Source\PSoC5/Filter.c ****         Filter_COHER_REG |= (uint8)((uint8)byteSelect << 2u);
 771              		.loc 1 552 0
 772 0092 4CF2B073 		movw	r3, #51120
 773 0096 C4F20003 		movt	r3, 16384
 774 009a 4CF2B072 		movw	r2, #51120
 775 009e C4F20002 		movt	r2, 16384
 776 00a2 1278     		ldrb	r2, [r2, #0]
 777 00a4 D1B2     		uxtb	r1, r2
 778 00a6 BA79     		ldrb	r2, [r7, #6]
 779 00a8 4FEA8202 		lsl	r2, r2, #2
 780 00ac D2B2     		uxtb	r2, r2
 781 00ae 0A43     		orrs	r2, r2, r1
 782 00b0 D2B2     		uxtb	r2, r2
 783 00b2 1A70     		strb	r2, [r3, #0]
 553:.\Generated_Source\PSoC5/Filter.c ****         Filter_COHER_REG |= (uint8)((uint8)byteSelect << 6u);
 784              		.loc 1 553 0
 785 00b4 4CF2B073 		movw	r3, #51120
 786 00b8 C4F20003 		movt	r3, 16384
 787 00bc 4CF2B072 		movw	r2, #51120
 788 00c0 C4F20002 		movt	r2, 16384
 789 00c4 1278     		ldrb	r2, [r2, #0]
 790 00c6 D1B2     		uxtb	r1, r2
 791 00c8 BA79     		ldrb	r2, [r7, #6]
 792 00ca 4FEA8212 		lsl	r2, r2, #6
 793 00ce D2B2     		uxtb	r2, r2
 794 00d0 0A43     		orrs	r2, r2, r1
 795 00d2 D2B2     		uxtb	r2, r2
 796 00d4 1A70     		strb	r2, [r3, #0]
 797              	.L31:
 554:.\Generated_Source\PSoC5/Filter.c ****     }
 555:.\Generated_Source\PSoC5/Filter.c ****     else
 556:.\Generated_Source\PSoC5/Filter.c ****     {
 557:.\Generated_Source\PSoC5/Filter.c ****         /* Invalid channel value */
 558:.\Generated_Source\PSoC5/Filter.c ****     }
 559:.\Generated_Source\PSoC5/Filter.c **** }
 798              		.loc 1 559 0
 799 00d6 07F10C07 		add	r7, r7, #12
 800 00da BD46     		mov	sp, r7
 801 00dc 80BC     		pop	{r7}
 802 00de 7047     		bx	lr
 803              		.cfi_endproc
 804              	.LFE10:
 805              		.size	Filter_SetCoherency, .-Filter_SetCoherency
 806              		.text
 807              	.Letext0:
 808              		.file 2 ".\\Generated_Source\\PSoC5\\cytypes.h"
 809              		.file 3 ".\\Generated_Source\\PSoC5\\Filter_PVT.h"
ARM GAS  C:\Users\VICTOR~1\AppData\Local\Temp\ccSusWlX.s 			page 25

