ARM GAS  C:\Users\VICTOR~1\AppData\Local\Temp\ccSusWlX.s 			page 1


   1              		.syntax unified
   2              		.cpu cortex-m3
   3              		.fpu softvfp
   4              		.eabi_attribute 20, 1
   5              		.eabi_attribute 21, 1
   6              		.eabi_attribute 23, 3
   7              		.eabi_attribute 24, 1
   8              		.eabi_attribute 25, 1
   9              		.eabi_attribute 26, 1
  10              		.eabi_attribute 30, 6
  11              		.eabi_attribute 34, 1
  12              		.eabi_attribute 18, 4
  13              		.thumb
  14              		.file	"Filter.c"
  15              		.text
  16              	.Ltext0:
  17              		.cfi_sections	.debug_frame
  18              		.global	Filter_initVar
  19              		.bss
  20              		.type	Filter_initVar, %object
  21              		.size	Filter_initVar, 1
  22              	Filter_initVar:
  23 0000 00       		.space	1
  24              		.section	.text.Filter_Init,"ax",%progbits
  25              		.align	2
  26              		.global	Filter_Init
  27              		.thumb
  28              		.thumb_func
  29              		.type	Filter_Init, %function
  30              	Filter_Init:
  31              	.LFB0:
  32              		.file 1 ".\\Generated_Source\\PSoC5\\Filter.c"
   1:.\Generated_Source\PSoC5/Filter.c **** /*******************************************************************************
   2:.\Generated_Source\PSoC5/Filter.c **** * File Name: Filter.c
   3:.\Generated_Source\PSoC5/Filter.c **** * Version 2.20
   4:.\Generated_Source\PSoC5/Filter.c **** *
   5:.\Generated_Source\PSoC5/Filter.c **** * Description:
   6:.\Generated_Source\PSoC5/Filter.c **** *  This file provides the API source code for the FILT component.
   7:.\Generated_Source\PSoC5/Filter.c **** *
   8:.\Generated_Source\PSoC5/Filter.c **** * Note:
   9:.\Generated_Source\PSoC5/Filter.c **** *  
  10:.\Generated_Source\PSoC5/Filter.c **** *******************************************************************************
  11:.\Generated_Source\PSoC5/Filter.c **** * Copyright 2008-2013, Cypress Semiconductor Corporation.  All rights reserved.
  12:.\Generated_Source\PSoC5/Filter.c **** * You may use this file only in accordance with the license, terms, conditions, 
  13:.\Generated_Source\PSoC5/Filter.c **** * disclaimers, and limitations in the end user license agreement accompanying 
  14:.\Generated_Source\PSoC5/Filter.c **** * the software package with which this file was provided.
  15:.\Generated_Source\PSoC5/Filter.c **** ********************************************************************************/
  16:.\Generated_Source\PSoC5/Filter.c **** 
  17:.\Generated_Source\PSoC5/Filter.c **** #include "Filter_PVT.h"
  18:.\Generated_Source\PSoC5/Filter.c **** 
  19:.\Generated_Source\PSoC5/Filter.c **** 
  20:.\Generated_Source\PSoC5/Filter.c **** /*******************************************************************************
  21:.\Generated_Source\PSoC5/Filter.c **** * FILT component internal variables.
  22:.\Generated_Source\PSoC5/Filter.c **** *******************************************************************************/
  23:.\Generated_Source\PSoC5/Filter.c **** 
  24:.\Generated_Source\PSoC5/Filter.c **** uint8 Filter_initVar = 0x0u;
  25:.\Generated_Source\PSoC5/Filter.c **** 
ARM GAS  C:\Users\VICTOR~1\AppData\Local\Temp\ccSusWlX.s 			page 2


  26:.\Generated_Source\PSoC5/Filter.c **** 
  27:.\Generated_Source\PSoC5/Filter.c **** /*******************************************************************************
  28:.\Generated_Source\PSoC5/Filter.c **** * Function Name: Filter_Init
  29:.\Generated_Source\PSoC5/Filter.c **** ********************************************************************************
  30:.\Generated_Source\PSoC5/Filter.c **** *
  31:.\Generated_Source\PSoC5/Filter.c **** * Summary:
  32:.\Generated_Source\PSoC5/Filter.c **** *  Initialize component's parameters to the parameters set by user in the 
  33:.\Generated_Source\PSoC5/Filter.c **** *  customizer of the component placed onto schematic. Usually called in 
  34:.\Generated_Source\PSoC5/Filter.c **** *  Filter_Start().
  35:.\Generated_Source\PSoC5/Filter.c **** *
  36:.\Generated_Source\PSoC5/Filter.c **** * Parameters:  
  37:.\Generated_Source\PSoC5/Filter.c **** *  void
  38:.\Generated_Source\PSoC5/Filter.c **** *
  39:.\Generated_Source\PSoC5/Filter.c **** * Return: 
  40:.\Generated_Source\PSoC5/Filter.c **** *  void
  41:.\Generated_Source\PSoC5/Filter.c **** *
  42:.\Generated_Source\PSoC5/Filter.c **** *******************************************************************************/
  43:.\Generated_Source\PSoC5/Filter.c **** void Filter_Init(void) 
  44:.\Generated_Source\PSoC5/Filter.c **** {
  33              		.loc 1 44 0
  34              		.cfi_startproc
  35              		@ args = 0, pretend = 0, frame = 0
  36              		@ frame_needed = 1, uses_anonymous_args = 0
  37 0000 F8B5     		push	{r3, r4, r5, r6, r7, lr}
  38              	.LCFI0:
  39              		.cfi_def_cfa_offset 24
  40              		.cfi_offset 3, -24
  41              		.cfi_offset 4, -20
  42              		.cfi_offset 5, -16
  43              		.cfi_offset 6, -12
  44              		.cfi_offset 7, -8
  45              		.cfi_offset 14, -4
  46 0002 00AF     		add	r7, sp, #0
  47              	.LCFI1:
  48              		.cfi_def_cfa_register 7
  45:.\Generated_Source\PSoC5/Filter.c ****         /* Power on DFB before initializing the RAMs */
  46:.\Generated_Source\PSoC5/Filter.c ****     Filter_PM_ACT_CFG_REG |= Filter_PM_ACT_MSK;
  49              		.loc 1 46 0
  50 0004 44F2A633 		movw	r3, #17318
  51 0008 C4F20003 		movt	r3, 16384
  52 000c 44F2A632 		movw	r2, #17318
  53 0010 C4F20002 		movt	r2, 16384
  54 0014 1278     		ldrb	r2, [r2, #0]
  55 0016 D2B2     		uxtb	r2, r2
  56 0018 42F01002 		orr	r2, r2, #16
  57 001c D2B2     		uxtb	r2, r2
  58 001e 1A70     		strb	r2, [r3, #0]
  47:.\Generated_Source\PSoC5/Filter.c **** 
  48:.\Generated_Source\PSoC5/Filter.c ****     /* Turn off Run Bit */
  49:.\Generated_Source\PSoC5/Filter.c ****     Filter_CR_REG &= (uint8)~Filter_RUN_MASK;
  59              		.loc 1 49 0
  60 0020 4CF28073 		movw	r3, #51072
  61 0024 C4F20003 		movt	r3, 16384
  62 0028 4CF28072 		movw	r2, #51072
  63 002c C4F20002 		movt	r2, 16384
  64 0030 1278     		ldrb	r2, [r2, #0]
  65 0032 D2B2     		uxtb	r2, r2
ARM GAS  C:\Users\VICTOR~1\AppData\Local\Temp\ccSusWlX.s 			page 3


  66 0034 22F00102 		bic	r2, r2, #1
  67 0038 D2B2     		uxtb	r2, r2
  68 003a 1A70     		strb	r2, [r3, #0]
  50:.\Generated_Source\PSoC5/Filter.c ****                 
  51:.\Generated_Source\PSoC5/Filter.c ****     /* Enable the DFB RAMS */
  52:.\Generated_Source\PSoC5/Filter.c ****     Filter_RAM_EN_REG = Filter_RAM_DIR_BUS;
  69              		.loc 1 52 0
  70 003c 4CF28873 		movw	r3, #51080
  71 0040 C4F20003 		movt	r3, 16384
  72 0044 4FF03F02 		mov	r2, #63
  73 0048 1A70     		strb	r2, [r3, #0]
  53:.\Generated_Source\PSoC5/Filter.c ****         
  54:.\Generated_Source\PSoC5/Filter.c ****     /* Put DFB RAM on the bus */
  55:.\Generated_Source\PSoC5/Filter.c ****     Filter_RAM_DIR_REG = Filter_RAM_DIR_BUS;
  74              		.loc 1 55 0
  75 004a 4CF28C73 		movw	r3, #51084
  76 004e C4F20003 		movt	r3, 16384
  77 0052 4FF03F02 		mov	r2, #63
  78 0056 1A70     		strb	r2, [r3, #0]
  56:.\Generated_Source\PSoC5/Filter.c ****         
  57:.\Generated_Source\PSoC5/Filter.c ****     /* Write DFB RAMs */
  58:.\Generated_Source\PSoC5/Filter.c ****     /* Control Store RAMs */
  59:.\Generated_Source\PSoC5/Filter.c ****     (void)memcpy( Filter_CSA_RAM,
  79              		.loc 1 59 0
  80 0058 4FF44442 		mov	r2, #50176
  81 005c C4F20002 		movt	r2, 16384
  82 0060 40F20003 		movw	r3, #:lower16:Filter_control
  83 0064 C0F20003 		movt	r3, #:upper16:Filter_control
  84 0068 1146     		mov	r1, r2
  85 006a 1A46     		mov	r2, r3
  86 006c 4FF48073 		mov	r3, #256
  87 0070 0846     		mov	r0, r1
  88 0072 1146     		mov	r1, r2
  89 0074 1A46     		mov	r2, r3
  90 0076 FFF7FEFF 		bl	memcpy
  60:.\Generated_Source\PSoC5/Filter.c ****         Filter_control, Filter_CSA_RAM_SIZE); 
  61:.\Generated_Source\PSoC5/Filter.c ****     (void)memcpy(Filter_CSB_RAM,
  91              		.loc 1 61 0
  92 007a 4FF44542 		mov	r2, #50432
  93 007e C4F20002 		movt	r2, 16384
  94 0082 40F20003 		movw	r3, #:lower16:Filter_control
  95 0086 C0F20003 		movt	r3, #:upper16:Filter_control
  96 008a 1146     		mov	r1, r2
  97 008c 1A46     		mov	r2, r3
  98 008e 4FF48073 		mov	r3, #256
  99 0092 0846     		mov	r0, r1
 100 0094 1146     		mov	r1, r2
 101 0096 1A46     		mov	r2, r3
 102 0098 FFF7FEFF 		bl	memcpy
  62:.\Generated_Source\PSoC5/Filter.c ****         Filter_control, Filter_CSB_RAM_SIZE); 
  63:.\Generated_Source\PSoC5/Filter.c ****     /* CFSM RAM */
  64:.\Generated_Source\PSoC5/Filter.c ****     (void)memcpy(Filter_CFSM_RAM,
 103              		.loc 1 64 0
 104 009c 4FF44642 		mov	r2, #50688
 105 00a0 C4F20002 		movt	r2, 16384
 106 00a4 40F20003 		movw	r3, #:lower16:Filter_cfsm
 107 00a8 C0F20003 		movt	r3, #:upper16:Filter_cfsm
ARM GAS  C:\Users\VICTOR~1\AppData\Local\Temp\ccSusWlX.s 			page 4


 108 00ac 1146     		mov	r1, r2
 109 00ae 1A46     		mov	r2, r3
 110 00b0 4FF48073 		mov	r3, #256
 111 00b4 0846     		mov	r0, r1
 112 00b6 1146     		mov	r1, r2
 113 00b8 1A46     		mov	r2, r3
 114 00ba FFF7FEFF 		bl	memcpy
  65:.\Generated_Source\PSoC5/Filter.c ****         Filter_cfsm, Filter_CFSM_RAM_SIZE); 
  66:.\Generated_Source\PSoC5/Filter.c ****     /* Data RAMs */
  67:.\Generated_Source\PSoC5/Filter.c ****     (void)memcpy(Filter_DA_RAM,
 115              		.loc 1 67 0
 116 00be 4FF44042 		mov	r2, #49152
 117 00c2 C4F20002 		movt	r2, 16384
 118 00c6 40F20003 		movw	r3, #:lower16:Filter_data_a
 119 00ca C0F20003 		movt	r3, #:upper16:Filter_data_a
 120 00ce 1146     		mov	r1, r2
 121 00d0 1A46     		mov	r2, r3
 122 00d2 4FF40073 		mov	r3, #512
 123 00d6 0846     		mov	r0, r1
 124 00d8 1146     		mov	r1, r2
 125 00da 1A46     		mov	r2, r3
 126 00dc FFF7FEFF 		bl	memcpy
  68:.\Generated_Source\PSoC5/Filter.c ****         Filter_data_a, Filter_DA_RAM_SIZE); 
  69:.\Generated_Source\PSoC5/Filter.c ****     (void)memcpy(Filter_DB_RAM,
 127              		.loc 1 69 0
 128 00e0 4FF44242 		mov	r2, #49664
 129 00e4 C4F20002 		movt	r2, 16384
 130 00e8 40F20003 		movw	r3, #:lower16:Filter_data_b
 131 00ec C0F20003 		movt	r3, #:upper16:Filter_data_b
 132 00f0 1146     		mov	r1, r2
 133 00f2 1A46     		mov	r2, r3
 134 00f4 4FF40073 		mov	r3, #512
 135 00f8 0846     		mov	r0, r1
 136 00fa 1146     		mov	r1, r2
 137 00fc 1A46     		mov	r2, r3
 138 00fe FFF7FEFF 		bl	memcpy
  70:.\Generated_Source\PSoC5/Filter.c ****         Filter_data_b, Filter_DB_RAM_SIZE); 
  71:.\Generated_Source\PSoC5/Filter.c ****     /* ACU RAM */
  72:.\Generated_Source\PSoC5/Filter.c ****     (void)memcpy(Filter_ACU_RAM,
 139              		.loc 1 72 0
 140 0102 4FF44742 		mov	r2, #50944
 141 0106 C4F20002 		movt	r2, 16384
 142 010a 40F20003 		movw	r3, #:lower16:Filter_acu
 143 010e C0F20003 		movt	r3, #:upper16:Filter_acu
 144 0112 1046     		mov	r0, r2
 145 0114 03F14004 		add	r4, r3, #64
 146              	.L2:
 147 0118 0246     		mov	r2, r0
 148 011a 1946     		mov	r1, r3
 149 011c D1F800E0 		ldr	lr, [r1, #0]	@ unaligned
 150 0120 4E68     		ldr	r6, [r1, #4]	@ unaligned
 151 0122 8D68     		ldr	r5, [r1, #8]	@ unaligned
 152 0124 C968     		ldr	r1, [r1, #12]	@ unaligned
 153 0126 C2F800E0 		str	lr, [r2, #0]	@ unaligned
 154 012a 5660     		str	r6, [r2, #4]	@ unaligned
 155 012c 9560     		str	r5, [r2, #8]	@ unaligned
 156 012e D160     		str	r1, [r2, #12]	@ unaligned
ARM GAS  C:\Users\VICTOR~1\AppData\Local\Temp\ccSusWlX.s 			page 5


 157 0130 03F11003 		add	r3, r3, #16
 158 0134 00F11000 		add	r0, r0, #16
 159 0138 A342     		cmp	r3, r4
 160 013a EDD1     		bne	.L2
  73:.\Generated_Source\PSoC5/Filter.c ****         Filter_acu, Filter_ACU_RAM_SIZE); 
  74:.\Generated_Source\PSoC5/Filter.c **** 
  75:.\Generated_Source\PSoC5/Filter.c ****     /* Take DFB RAM off the bus */
  76:.\Generated_Source\PSoC5/Filter.c ****     Filter_RAM_DIR_REG = Filter_RAM_DIR_DFB;
 161              		.loc 1 76 0
 162 013c 4CF28C73 		movw	r3, #51084
 163 0140 C4F20003 		movt	r3, 16384
 164 0144 4FF00002 		mov	r2, #0
 165 0148 1A70     		strb	r2, [r3, #0]
  77:.\Generated_Source\PSoC5/Filter.c **** 
  78:.\Generated_Source\PSoC5/Filter.c ****     /* Set up interrupt and DMA events */
  79:.\Generated_Source\PSoC5/Filter.c ****     Filter_SetInterruptMode(Filter_INIT_INTERRUPT_MODE);
 166              		.loc 1 79 0
 167 014a 4FF00000 		mov	r0, #0
 168 014e FFF7FEFF 		bl	Filter_SetInterruptMode
  80:.\Generated_Source\PSoC5/Filter.c ****     Filter_SetDMAMode(Filter_INIT_DMA_MODE);
 169              		.loc 1 80 0
 170 0152 4FF00000 		mov	r0, #0
 171 0156 FFF7FEFF 		bl	Filter_SetDMAMode
  81:.\Generated_Source\PSoC5/Filter.c ****         
  82:.\Generated_Source\PSoC5/Filter.c ****     /* Clear any pending interrupts */
  83:.\Generated_Source\PSoC5/Filter.c ****     /* Bits [2..0] of this register are readonly. */
  84:.\Generated_Source\PSoC5/Filter.c ****     Filter_SR_REG = 0xf8u;   
 172              		.loc 1 84 0
 173 015a 4CF28473 		movw	r3, #51076
 174 015e C4F20003 		movt	r3, 16384
 175 0162 4FF0F802 		mov	r2, #248
 176 0166 1A70     		strb	r2, [r3, #0]
  85:.\Generated_Source\PSoC5/Filter.c **** }
 177              		.loc 1 85 0
 178 0168 F8BD     		pop	{r3, r4, r5, r6, r7, pc}
 179              		.cfi_endproc
 180              	.LFE0:
 181              		.size	Filter_Init, .-Filter_Init
 182 016a 00BF     		.section	.text.Filter_Enable,"ax",%progbits
 183              		.align	2
 184              		.global	Filter_Enable
 185              		.thumb
 186              		.thumb_func
 187              		.type	Filter_Enable, %function
 188              	Filter_Enable:
 189              	.LFB1:
  86:.\Generated_Source\PSoC5/Filter.c **** 
  87:.\Generated_Source\PSoC5/Filter.c **** 
  88:.\Generated_Source\PSoC5/Filter.c **** /*******************************************************************************
  89:.\Generated_Source\PSoC5/Filter.c **** * Function Name: Filter_Enable
  90:.\Generated_Source\PSoC5/Filter.c **** ********************************************************************************
  91:.\Generated_Source\PSoC5/Filter.c **** *  
  92:.\Generated_Source\PSoC5/Filter.c **** * Summary: 
  93:.\Generated_Source\PSoC5/Filter.c **** *  Enables the DFB run bit.
  94:.\Generated_Source\PSoC5/Filter.c **** *
  95:.\Generated_Source\PSoC5/Filter.c **** * Parameters:  
  96:.\Generated_Source\PSoC5/Filter.c **** *  void
ARM GAS  C:\Users\VICTOR~1\AppData\Local\Temp\ccSusWlX.s 			page 6


  97:.\Generated_Source\PSoC5/Filter.c **** *
  98:.\Generated_Source\PSoC5/Filter.c **** * Return: 
  99:.\Generated_Source\PSoC5/Filter.c **** *  void
 100:.\Generated_Source\PSoC5/Filter.c **** *
 101:.\Generated_Source\PSoC5/Filter.c **** *******************************************************************************/
 102:.\Generated_Source\PSoC5/Filter.c **** void Filter_Enable(void) 
 103:.\Generated_Source\PSoC5/Filter.c **** {
 190              		.loc 1 103 0
 191              		.cfi_startproc
 192              		@ args = 0, pretend = 0, frame = 0
 193              		@ frame_needed = 1, uses_anonymous_args = 0
 194              		@ link register save eliminated.
 195 0000 80B4     		push	{r7}
 196              	.LCFI2:
 197              		.cfi_def_cfa_offset 4
 198              		.cfi_offset 7, -4
 199 0002 00AF     		add	r7, sp, #0
 200              	.LCFI3:
 201              		.cfi_def_cfa_register 7
 104:.\Generated_Source\PSoC5/Filter.c ****     /* Power on DFB in Active mode */
 105:.\Generated_Source\PSoC5/Filter.c ****     Filter_PM_ACT_CFG_REG |= Filter_PM_ACT_MSK;
 202              		.loc 1 105 0
 203 0004 44F2A633 		movw	r3, #17318
 204 0008 C4F20003 		movt	r3, 16384
 205 000c 44F2A632 		movw	r2, #17318
 206 0010 C4F20002 		movt	r2, 16384
 207 0014 1278     		ldrb	r2, [r2, #0]
 208 0016 D2B2     		uxtb	r2, r2
 209 0018 42F01002 		orr	r2, r2, #16
 210 001c D2B2     		uxtb	r2, r2
 211 001e 1A70     		strb	r2, [r3, #0]
 106:.\Generated_Source\PSoC5/Filter.c ****         
 107:.\Generated_Source\PSoC5/Filter.c ****     /* Power on DFB in Alternative Active mode */
 108:.\Generated_Source\PSoC5/Filter.c ****     Filter_PM_STBY_CFG_REG |= Filter_PM_STBY_MSK;
 212              		.loc 1 108 0
 213 0020 44F2B633 		movw	r3, #17334
 214 0024 C4F20003 		movt	r3, 16384
 215 0028 44F2B632 		movw	r2, #17334
 216 002c C4F20002 		movt	r2, 16384
 217 0030 1278     		ldrb	r2, [r2, #0]
 218 0032 D2B2     		uxtb	r2, r2
 219 0034 42F01002 		orr	r2, r2, #16
 220 0038 D2B2     		uxtb	r2, r2
 221 003a 1A70     		strb	r2, [r3, #0]
 109:.\Generated_Source\PSoC5/Filter.c **** 
 110:.\Generated_Source\PSoC5/Filter.c ****     /* Turn on Run Bit */
 111:.\Generated_Source\PSoC5/Filter.c ****     Filter_CR_REG |= Filter_RUN_MASK;
 222              		.loc 1 111 0
 223 003c 4CF28073 		movw	r3, #51072
 224 0040 C4F20003 		movt	r3, 16384
 225 0044 4CF28072 		movw	r2, #51072
 226 0048 C4F20002 		movt	r2, 16384
 227 004c 1278     		ldrb	r2, [r2, #0]
 228 004e D2B2     		uxtb	r2, r2
 229 0050 42F00102 		orr	r2, r2, #1
 230 0054 D2B2     		uxtb	r2, r2
 231 0056 1A70     		strb	r2, [r3, #0]
ARM GAS  C:\Users\VICTOR~1\AppData\Local\Temp\ccSusWlX.s 			page 7


 112:.\Generated_Source\PSoC5/Filter.c **** }
 232              		.loc 1 112 0
 233 0058 BD46     		mov	sp, r7
 234 005a 80BC     		pop	{r7}
 235 005c 7047     		bx	lr
 236              		.cfi_endproc
 237              	.LFE1:
 238              		.size	Filter_Enable, .-Filter_Enable
 239 005e 00BF     		.section	.text.Filter_Start,"ax",%progbits
 240              		.align	2
 241              		.global	Filter_Start
 242              		.thumb
 243              		.thumb_func
 244              		.type	Filter_Start, %function
 245              	Filter_Start:
 246              	.LFB2:
 113:.\Generated_Source\PSoC5/Filter.c **** 
 114:.\Generated_Source\PSoC5/Filter.c **** 
 115:.\Generated_Source\PSoC5/Filter.c **** /*******************************************************************************
 116:.\Generated_Source\PSoC5/Filter.c **** * Function Name: Filter_Start
 117:.\Generated_Source\PSoC5/Filter.c **** ********************************************************************************
 118:.\Generated_Source\PSoC5/Filter.c **** *
 119:.\Generated_Source\PSoC5/Filter.c **** * Summary:
 120:.\Generated_Source\PSoC5/Filter.c **** *  This method does the prep work necessary to setup DFB.  This includes loading 
 121:.\Generated_Source\PSoC5/Filter.c **** *
 122:.\Generated_Source\PSoC5/Filter.c **** * Parameters:  
 123:.\Generated_Source\PSoC5/Filter.c **** *  void
 124:.\Generated_Source\PSoC5/Filter.c **** * 
 125:.\Generated_Source\PSoC5/Filter.c **** * Return: 
 126:.\Generated_Source\PSoC5/Filter.c **** *  void
 127:.\Generated_Source\PSoC5/Filter.c **** *
 128:.\Generated_Source\PSoC5/Filter.c **** * Global variables:
 129:.\Generated_Source\PSoC5/Filter.c **** *  Filter_initVar:  Used to check the initial configuration,
 130:.\Generated_Source\PSoC5/Filter.c **** *  modified when this function is called for the first time.
 131:.\Generated_Source\PSoC5/Filter.c **** *
 132:.\Generated_Source\PSoC5/Filter.c **** * Note: 
 133:.\Generated_Source\PSoC5/Filter.c **** *  Use Filter_InterruptConfig to control which events trigger 
 134:.\Generated_Source\PSoC5/Filter.c **** *  interrupts in the DFB. 
 135:.\Generated_Source\PSoC5/Filter.c **** *
 136:.\Generated_Source\PSoC5/Filter.c **** *******************************************************************************/
 137:.\Generated_Source\PSoC5/Filter.c **** void Filter_Start(void) 
 138:.\Generated_Source\PSoC5/Filter.c **** {
 247              		.loc 1 138 0
 248              		.cfi_startproc
 249              		@ args = 0, pretend = 0, frame = 0
 250              		@ frame_needed = 1, uses_anonymous_args = 0
 251 0000 80B5     		push	{r7, lr}
 252              	.LCFI4:
 253              		.cfi_def_cfa_offset 8
 254              		.cfi_offset 7, -8
 255              		.cfi_offset 14, -4
 256 0002 00AF     		add	r7, sp, #0
 257              	.LCFI5:
 258              		.cfi_def_cfa_register 7
 139:.\Generated_Source\PSoC5/Filter.c ****      /* If not Initialized then initialize all required hardware and software */
 140:.\Generated_Source\PSoC5/Filter.c ****     if(Filter_initVar == 0u)
 259              		.loc 1 140 0
ARM GAS  C:\Users\VICTOR~1\AppData\Local\Temp\ccSusWlX.s 			page 8


 260 0004 40F20003 		movw	r3, #:lower16:Filter_initVar
 261 0008 C0F20003 		movt	r3, #:upper16:Filter_initVar
 262 000c 1B78     		ldrb	r3, [r3, #0]	@ zero_extendqisi2
 263 000e 002B     		cmp	r3, #0
 264 0010 08D1     		bne	.L5
 141:.\Generated_Source\PSoC5/Filter.c ****     {
 142:.\Generated_Source\PSoC5/Filter.c ****         Filter_Init();
 265              		.loc 1 142 0
 266 0012 FFF7FEFF 		bl	Filter_Init
 143:.\Generated_Source\PSoC5/Filter.c ****         Filter_initVar = 1u;
 267              		.loc 1 143 0
 268 0016 40F20003 		movw	r3, #:lower16:Filter_initVar
 269 001a C0F20003 		movt	r3, #:upper16:Filter_initVar
 270 001e 4FF00102 		mov	r2, #1
 271 0022 1A70     		strb	r2, [r3, #0]
 272              	.L5:
 144:.\Generated_Source\PSoC5/Filter.c ****     }
 145:.\Generated_Source\PSoC5/Filter.c **** 
 146:.\Generated_Source\PSoC5/Filter.c ****     /* Enable the DFB block */
 147:.\Generated_Source\PSoC5/Filter.c ****     Filter_Enable();
 273              		.loc 1 147 0
 274 0024 FFF7FEFF 		bl	Filter_Enable
 148:.\Generated_Source\PSoC5/Filter.c **** }
 275              		.loc 1 148 0
 276 0028 80BD     		pop	{r7, pc}
 277              		.cfi_endproc
 278              	.LFE2:
 279              		.size	Filter_Start, .-Filter_Start
 280 002a 00BF     		.section	.text.Filter_Stop,"ax",%progbits
 281              		.align	2
 282              		.global	Filter_Stop
 283              		.thumb
 284              		.thumb_func
 285              		.type	Filter_Stop, %function
 286              	Filter_Stop:
 287              	.LFB3:
 149:.\Generated_Source\PSoC5/Filter.c **** 
 150:.\Generated_Source\PSoC5/Filter.c **** 
 151:.\Generated_Source\PSoC5/Filter.c **** /*******************************************************************************
 152:.\Generated_Source\PSoC5/Filter.c **** * Function Name: Filter_Stop
 153:.\Generated_Source\PSoC5/Filter.c **** ********************************************************************************
 154:.\Generated_Source\PSoC5/Filter.c **** *
 155:.\Generated_Source\PSoC5/Filter.c **** * Summary:
 156:.\Generated_Source\PSoC5/Filter.c **** *  Turn off the run bit.  If DMA control is used to feed the channels, allow 
 157:.\Generated_Source\PSoC5/Filter.c **** *  arguments to turn one of the TD channels off. 
 158:.\Generated_Source\PSoC5/Filter.c **** *
 159:.\Generated_Source\PSoC5/Filter.c **** * Parameters:  
 160:.\Generated_Source\PSoC5/Filter.c **** *  void
 161:.\Generated_Source\PSoC5/Filter.c **** *
 162:.\Generated_Source\PSoC5/Filter.c **** * Return: 
 163:.\Generated_Source\PSoC5/Filter.c **** *  void
 164:.\Generated_Source\PSoC5/Filter.c **** *
 165:.\Generated_Source\PSoC5/Filter.c **** *******************************************************************************/
 166:.\Generated_Source\PSoC5/Filter.c **** void Filter_Stop(void) 
 167:.\Generated_Source\PSoC5/Filter.c **** {
 288              		.loc 1 167 0
 289              		.cfi_startproc
ARM GAS  C:\Users\VICTOR~1\AppData\Local\Temp\ccSusWlX.s 			page 9


 290              		@ args = 0, pretend = 0, frame = 0
 291              		@ frame_needed = 1, uses_anonymous_args = 0
 292              		@ link register save eliminated.
 293 0000 80B4     		push	{r7}
 294              	.LCFI6:
 295              		.cfi_def_cfa_offset 4
 296              		.cfi_offset 7, -4
 297 0002 00AF     		add	r7, sp, #0
 298              	.LCFI7:
 299              		.cfi_def_cfa_register 7
 168:.\Generated_Source\PSoC5/Filter.c ****     Filter_CR_REG &= (uint8)~(Filter_RUN_MASK);
 300              		.loc 1 168 0
 301 0004 4CF28073 		movw	r3, #51072
 302 0008 C4F20003 		movt	r3, 16384
 303 000c 4CF28072 		movw	r2, #51072
 304 0010 C4F20002 		movt	r2, 16384
 305 0014 1278     		ldrb	r2, [r2, #0]
 306 0016 D2B2     		uxtb	r2, r2
 307 0018 22F00102 		bic	r2, r2, #1
 308 001c D2B2     		uxtb	r2, r2
 309 001e 1A70     		strb	r2, [r3, #0]
 169:.\Generated_Source\PSoC5/Filter.c **** 
 170:.\Generated_Source\PSoC5/Filter.c ****     /* Power off DFB in Active mode */
 171:.\Generated_Source\PSoC5/Filter.c ****     Filter_PM_ACT_CFG_REG &= (uint8)~Filter_PM_ACT_MSK;
 310              		.loc 1 171 0
 311 0020 44F2A633 		movw	r3, #17318
 312 0024 C4F20003 		movt	r3, 16384
 313 0028 44F2A632 		movw	r2, #17318
 314 002c C4F20002 		movt	r2, 16384
 315 0030 1278     		ldrb	r2, [r2, #0]
 316 0032 D2B2     		uxtb	r2, r2
 317 0034 22F01002 		bic	r2, r2, #16
 318 0038 D2B2     		uxtb	r2, r2
 319 003a 1A70     		strb	r2, [r3, #0]
 172:.\Generated_Source\PSoC5/Filter.c ****     
 173:.\Generated_Source\PSoC5/Filter.c ****     /* Power off DFB in Alternative Active mode */
 174:.\Generated_Source\PSoC5/Filter.c ****     Filter_PM_STBY_CFG_REG &= (uint8)~Filter_PM_STBY_MSK;
 320              		.loc 1 174 0
 321 003c 44F2B633 		movw	r3, #17334
 322 0040 C4F20003 		movt	r3, 16384
 323 0044 44F2B632 		movw	r2, #17334
 324 0048 C4F20002 		movt	r2, 16384
 325 004c 1278     		ldrb	r2, [r2, #0]
 326 004e D2B2     		uxtb	r2, r2
 327 0050 22F01002 		bic	r2, r2, #16
 328 0054 D2B2     		uxtb	r2, r2
 329 0056 1A70     		strb	r2, [r3, #0]
 175:.\Generated_Source\PSoC5/Filter.c **** }
 330              		.loc 1 175 0
 331 0058 BD46     		mov	sp, r7
 332 005a 80BC     		pop	{r7}
 333 005c 7047     		bx	lr
 334              		.cfi_endproc
 335              	.LFE3:
 336              		.size	Filter_Stop, .-Filter_Stop
 337 005e 00BF     		.section	.text.Filter_Read8,"ax",%progbits
 338              		.align	2
ARM GAS  C:\Users\VICTOR~1\AppData\Local\Temp\ccSusWlX.s 			page 10


 339              		.global	Filter_Read8
 340              		.thumb
 341              		.thumb_func
 342              		.type	Filter_Read8, %function
 343              	Filter_Read8:
 344              	.LFB4:
 176:.\Generated_Source\PSoC5/Filter.c **** 
 177:.\Generated_Source\PSoC5/Filter.c **** 
 178:.\Generated_Source\PSoC5/Filter.c **** /*******************************************************************************
 179:.\Generated_Source\PSoC5/Filter.c **** * Function Name: Filter_Read8
 180:.\Generated_Source\PSoC5/Filter.c **** ********************************************************************************
 181:.\Generated_Source\PSoC5/Filter.c **** *
 182:.\Generated_Source\PSoC5/Filter.c **** * Summary:
 183:.\Generated_Source\PSoC5/Filter.c **** *  Get the value in one of the DFB Output Holding Registers 
 184:.\Generated_Source\PSoC5/Filter.c **** *
 185:.\Generated_Source\PSoC5/Filter.c **** * Parameters:  
 186:.\Generated_Source\PSoC5/Filter.c **** *  channel:  Filter_CHANNEL_A or Filter_CHANNEL_B
 187:.\Generated_Source\PSoC5/Filter.c **** *            
 188:.\Generated_Source\PSoC5/Filter.c **** * Return: 
 189:.\Generated_Source\PSoC5/Filter.c **** *  The most significant 8 bits of the current output value sitting in the 
 190:.\Generated_Source\PSoC5/Filter.c **** *  selected channel's holding register or 0x00 for invalid channel numbers.
 191:.\Generated_Source\PSoC5/Filter.c **** *
 192:.\Generated_Source\PSoC5/Filter.c **** *******************************************************************************/
 193:.\Generated_Source\PSoC5/Filter.c **** uint8 Filter_Read8(uint8 channel) 
 194:.\Generated_Source\PSoC5/Filter.c **** {
 345              		.loc 1 194 0
 346              		.cfi_startproc
 347              		@ args = 0, pretend = 0, frame = 16
 348              		@ frame_needed = 1, uses_anonymous_args = 0
 349              		@ link register save eliminated.
 350 0000 80B4     		push	{r7}
 351              	.LCFI8:
 352              		.cfi_def_cfa_offset 4
 353              		.cfi_offset 7, -4
 354 0002 85B0     		sub	sp, sp, #20
 355              	.LCFI9:
 356              		.cfi_def_cfa_offset 24
 357 0004 00AF     		add	r7, sp, #0
 358              	.LCFI10:
 359              		.cfi_def_cfa_register 7
 360 0006 0346     		mov	r3, r0
 361 0008 FB71     		strb	r3, [r7, #7]
 195:.\Generated_Source\PSoC5/Filter.c ****     uint8 value;
 196:.\Generated_Source\PSoC5/Filter.c **** 
 197:.\Generated_Source\PSoC5/Filter.c ****     if (channel == Filter_CHANNEL_A)
 362              		.loc 1 197 0
 363 000a FB79     		ldrb	r3, [r7, #7]	@ zero_extendqisi2
 364 000c 002B     		cmp	r3, #0
 365 000e 06D1     		bne	.L8
 198:.\Generated_Source\PSoC5/Filter.c ****     {
 199:.\Generated_Source\PSoC5/Filter.c ****         value = Filter_HOLDAH_REG;
 366              		.loc 1 199 0
 367 0010 4CF2AA73 		movw	r3, #51114
 368 0014 C4F20003 		movt	r3, 16384
 369 0018 1B78     		ldrb	r3, [r3, #0]
 370 001a FB73     		strb	r3, [r7, #15]
 371 001c 0CE0     		b	.L9
ARM GAS  C:\Users\VICTOR~1\AppData\Local\Temp\ccSusWlX.s 			page 11


 372              	.L8:
 200:.\Generated_Source\PSoC5/Filter.c ****     }
 201:.\Generated_Source\PSoC5/Filter.c ****     else if (channel == Filter_CHANNEL_B)
 373              		.loc 1 201 0
 374 001e FB79     		ldrb	r3, [r7, #7]	@ zero_extendqisi2
 375 0020 012B     		cmp	r3, #1
 376 0022 06D1     		bne	.L10
 202:.\Generated_Source\PSoC5/Filter.c ****     {
 203:.\Generated_Source\PSoC5/Filter.c ****         value = Filter_HOLDBH_REG;
 377              		.loc 1 203 0
 378 0024 4CF2AE73 		movw	r3, #51118
 379 0028 C4F20003 		movt	r3, 16384
 380 002c 1B78     		ldrb	r3, [r3, #0]
 381 002e FB73     		strb	r3, [r7, #15]
 382 0030 02E0     		b	.L9
 383              	.L10:
 204:.\Generated_Source\PSoC5/Filter.c ****     }
 205:.\Generated_Source\PSoC5/Filter.c ****     else
 206:.\Generated_Source\PSoC5/Filter.c ****     {
 207:.\Generated_Source\PSoC5/Filter.c ****         value = 0x0u;
 384              		.loc 1 207 0
 385 0032 4FF00003 		mov	r3, #0
 386 0036 FB73     		strb	r3, [r7, #15]
 387              	.L9:
 208:.\Generated_Source\PSoC5/Filter.c ****     }
 209:.\Generated_Source\PSoC5/Filter.c ****     return value;
 388              		.loc 1 209 0
 389 0038 FB7B     		ldrb	r3, [r7, #15]	@ zero_extendqisi2
 210:.\Generated_Source\PSoC5/Filter.c **** }
 390              		.loc 1 210 0
 391 003a 1846     		mov	r0, r3
 392 003c 07F11407 		add	r7, r7, #20
 393 0040 BD46     		mov	sp, r7
 394 0042 80BC     		pop	{r7}
 395 0044 7047     		bx	lr
 396              		.cfi_endproc
 397              	.LFE4:
 398              		.size	Filter_Read8, .-Filter_Read8
 399 0046 00BF     		.section	.text.Filter_Read16,"ax",%progbits
 400              		.align	2
 401              		.global	Filter_Read16
 402              		.thumb
 403              		.thumb_func
 404              		.type	Filter_Read16, %function
 405              	Filter_Read16:
 406              	.LFB5:
 211:.\Generated_Source\PSoC5/Filter.c **** 
 212:.\Generated_Source\PSoC5/Filter.c **** 
 213:.\Generated_Source\PSoC5/Filter.c **** /*******************************************************************************
 214:.\Generated_Source\PSoC5/Filter.c **** * Function Name: Filter_Read16
 215:.\Generated_Source\PSoC5/Filter.c **** ********************************************************************************
 216:.\Generated_Source\PSoC5/Filter.c **** *
 217:.\Generated_Source\PSoC5/Filter.c **** * Summary:
 218:.\Generated_Source\PSoC5/Filter.c **** *  Get the value in one of the DFB Output Holding Registers 
 219:.\Generated_Source\PSoC5/Filter.c **** *
 220:.\Generated_Source\PSoC5/Filter.c **** * Parameters:  
 221:.\Generated_Source\PSoC5/Filter.c **** *  channel:  Filter_CHANNEL_A or Filter_CHANNEL_B
ARM GAS  C:\Users\VICTOR~1\AppData\Local\Temp\ccSusWlX.s 			page 12


 222:.\Generated_Source\PSoC5/Filter.c **** *            
 223:.\Generated_Source\PSoC5/Filter.c **** * Return: 
 224:.\Generated_Source\PSoC5/Filter.c **** *  The most significant 16 bits of the current output value sitting in the 
 225:.\Generated_Source\PSoC5/Filter.c **** *  selected channel's holding register or 0x0000 for invalid channel numbers
 226:.\Generated_Source\PSoC5/Filter.c **** *
 227:.\Generated_Source\PSoC5/Filter.c **** * Note:
 228:.\Generated_Source\PSoC5/Filter.c **** *  Order of the read is important.  On the read of the high byte, the DFB clears
 229:.\Generated_Source\PSoC5/Filter.c **** *  the data ready bit.
 230:.\Generated_Source\PSoC5/Filter.c **** *
 231:.\Generated_Source\PSoC5/Filter.c **** *******************************************************************************/
 232:.\Generated_Source\PSoC5/Filter.c **** #if defined(__C51__) || defined(__CX51__) 
 233:.\Generated_Source\PSoC5/Filter.c **** 
 234:.\Generated_Source\PSoC5/Filter.c ****     uint16 Filter_Read16(uint8 channel) 
 235:.\Generated_Source\PSoC5/Filter.c ****     {
 236:.\Generated_Source\PSoC5/Filter.c ****         uint16 val;
 237:.\Generated_Source\PSoC5/Filter.c ****     
 238:.\Generated_Source\PSoC5/Filter.c ****         if (channel == Filter_CHANNEL_A)
 239:.\Generated_Source\PSoC5/Filter.c ****         {        
 240:.\Generated_Source\PSoC5/Filter.c ****             val = Filter_HOLDAM_REG;
 241:.\Generated_Source\PSoC5/Filter.c ****             val |= (uint16)(Filter_HOLDAH_REG) << 8u;
 242:.\Generated_Source\PSoC5/Filter.c ****         }
 243:.\Generated_Source\PSoC5/Filter.c ****         else if (channel == Filter_CHANNEL_B)
 244:.\Generated_Source\PSoC5/Filter.c ****         {      
 245:.\Generated_Source\PSoC5/Filter.c ****             val = Filter_HOLDBM_REG;
 246:.\Generated_Source\PSoC5/Filter.c ****             val |= (uint16)Filter_HOLDBH_REG << 8u;
 247:.\Generated_Source\PSoC5/Filter.c ****         }
 248:.\Generated_Source\PSoC5/Filter.c ****         else
 249:.\Generated_Source\PSoC5/Filter.c ****         {
 250:.\Generated_Source\PSoC5/Filter.c ****             val = 0x0u;
 251:.\Generated_Source\PSoC5/Filter.c ****         }
 252:.\Generated_Source\PSoC5/Filter.c ****         return val;
 253:.\Generated_Source\PSoC5/Filter.c ****     }
 254:.\Generated_Source\PSoC5/Filter.c **** 
 255:.\Generated_Source\PSoC5/Filter.c **** #else
 256:.\Generated_Source\PSoC5/Filter.c **** 
 257:.\Generated_Source\PSoC5/Filter.c ****     uint16 Filter_Read16(uint8 channel) 
 258:.\Generated_Source\PSoC5/Filter.c ****     {
 407              		.loc 1 258 0
 408              		.cfi_startproc
 409              		@ args = 0, pretend = 0, frame = 16
 410              		@ frame_needed = 1, uses_anonymous_args = 0
 411              		@ link register save eliminated.
 412 0000 80B4     		push	{r7}
 413              	.LCFI11:
 414              		.cfi_def_cfa_offset 4
 415              		.cfi_offset 7, -4
 416 0002 85B0     		sub	sp, sp, #20
 417              	.LCFI12:
 418              		.cfi_def_cfa_offset 24
 419 0004 00AF     		add	r7, sp, #0
 420              	.LCFI13:
 421              		.cfi_def_cfa_register 7
 422 0006 0346     		mov	r3, r0
 423 0008 FB71     		strb	r3, [r7, #7]
 259:.\Generated_Source\PSoC5/Filter.c ****         uint16 val;
 260:.\Generated_Source\PSoC5/Filter.c **** 
 261:.\Generated_Source\PSoC5/Filter.c ****         if (channel == Filter_CHANNEL_A)
ARM GAS  C:\Users\VICTOR~1\AppData\Local\Temp\ccSusWlX.s 			page 13


 424              		.loc 1 261 0
 425 000a FB79     		ldrb	r3, [r7, #7]	@ zero_extendqisi2
 426 000c 002B     		cmp	r3, #0
 427 000e 06D1     		bne	.L13
 262:.\Generated_Source\PSoC5/Filter.c ****         {        
 263:.\Generated_Source\PSoC5/Filter.c ****             val = Filter_HOLDA16_REG;
 428              		.loc 1 263 0
 429 0010 4CF2A973 		movw	r3, #51113
 430 0014 C4F20003 		movt	r3, 16384
 431 0018 1B88     		ldrh	r3, [r3, #0]	@ movhi
 432 001a FB81     		strh	r3, [r7, #14]	@ movhi
 433 001c 0CE0     		b	.L14
 434              	.L13:
 264:.\Generated_Source\PSoC5/Filter.c ****         }
 265:.\Generated_Source\PSoC5/Filter.c ****         else if (channel == Filter_CHANNEL_B)
 435              		.loc 1 265 0
 436 001e FB79     		ldrb	r3, [r7, #7]	@ zero_extendqisi2
 437 0020 012B     		cmp	r3, #1
 438 0022 06D1     		bne	.L15
 266:.\Generated_Source\PSoC5/Filter.c ****         {      
 267:.\Generated_Source\PSoC5/Filter.c ****             val = Filter_HOLDB16_REG;
 439              		.loc 1 267 0
 440 0024 4CF2AD73 		movw	r3, #51117
 441 0028 C4F20003 		movt	r3, 16384
 442 002c 1B88     		ldrh	r3, [r3, #0]	@ movhi
 443 002e FB81     		strh	r3, [r7, #14]	@ movhi
 444 0030 02E0     		b	.L14
 445              	.L15:
 268:.\Generated_Source\PSoC5/Filter.c ****         }
 269:.\Generated_Source\PSoC5/Filter.c ****         else
 270:.\Generated_Source\PSoC5/Filter.c ****         {
 271:.\Generated_Source\PSoC5/Filter.c ****             val = 0x0u;
 446              		.loc 1 271 0
 447 0032 4FF00003 		mov	r3, #0
 448 0036 FB81     		strh	r3, [r7, #14]	@ movhi
 449              	.L14:
 272:.\Generated_Source\PSoC5/Filter.c ****         }
 273:.\Generated_Source\PSoC5/Filter.c ****         return val;
 450              		.loc 1 273 0
 451 0038 FB89     		ldrh	r3, [r7, #14]
 274:.\Generated_Source\PSoC5/Filter.c ****     }
 452              		.loc 1 274 0
 453 003a 1846     		mov	r0, r3
 454 003c 07F11407 		add	r7, r7, #20
 455 0040 BD46     		mov	sp, r7
 456 0042 80BC     		pop	{r7}
 457 0044 7047     		bx	lr
 458              		.cfi_endproc
 459              	.LFE5:
 460              		.size	Filter_Read16, .-Filter_Read16
 461 0046 00BF     		.section	.text.Filter_Read24,"ax",%progbits
 462              		.align	2
 463              		.global	Filter_Read24
 464              		.thumb
 465              		.thumb_func
 466              		.type	Filter_Read24, %function
 467              	Filter_Read24:
ARM GAS  C:\Users\VICTOR~1\AppData\Local\Temp\ccSusWlX.s 			page 14


 468              	.LFB6:
 275:.\Generated_Source\PSoC5/Filter.c **** 
 276:.\Generated_Source\PSoC5/Filter.c **** #endif /* defined(__C51__) || defined(__CX51__) */
 277:.\Generated_Source\PSoC5/Filter.c **** 
 278:.\Generated_Source\PSoC5/Filter.c **** 
 279:.\Generated_Source\PSoC5/Filter.c **** /*******************************************************************************
 280:.\Generated_Source\PSoC5/Filter.c **** * Function Name: Filter_Read24
 281:.\Generated_Source\PSoC5/Filter.c **** ********************************************************************************
 282:.\Generated_Source\PSoC5/Filter.c **** *
 283:.\Generated_Source\PSoC5/Filter.c **** * Summary:
 284:.\Generated_Source\PSoC5/Filter.c **** *  Get the value in one of the DFB Output Holding Registers 
 285:.\Generated_Source\PSoC5/Filter.c **** *
 286:.\Generated_Source\PSoC5/Filter.c **** * Parameters:  
 287:.\Generated_Source\PSoC5/Filter.c **** *  channel:  Filter_CHANNEL_A or Filter_CHANNEL_B
 288:.\Generated_Source\PSoC5/Filter.c **** *            
 289:.\Generated_Source\PSoC5/Filter.c **** * Return: 
 290:.\Generated_Source\PSoC5/Filter.c **** *  The current 24-bit output value sitting in the selected channel's
 291:.\Generated_Source\PSoC5/Filter.c **** *  holding register or 0x00000000 for invalid channel numbers
 292:.\Generated_Source\PSoC5/Filter.c **** *
 293:.\Generated_Source\PSoC5/Filter.c **** * Note:
 294:.\Generated_Source\PSoC5/Filter.c **** *  Order of the read is important.  On the read of the high byte, the DFB clears
 295:.\Generated_Source\PSoC5/Filter.c **** *  the data ready bit.
 296:.\Generated_Source\PSoC5/Filter.c **** *
 297:.\Generated_Source\PSoC5/Filter.c **** *******************************************************************************/
 298:.\Generated_Source\PSoC5/Filter.c **** #if defined(__C51__) || defined(__CX51__)
 299:.\Generated_Source\PSoC5/Filter.c **** 
 300:.\Generated_Source\PSoC5/Filter.c ****     uint32 Filter_Read24(uint8 channel) 
 301:.\Generated_Source\PSoC5/Filter.c ****     {
 302:.\Generated_Source\PSoC5/Filter.c ****         uint32 val;
 303:.\Generated_Source\PSoC5/Filter.c ****     
 304:.\Generated_Source\PSoC5/Filter.c ****         if (channel == Filter_CHANNEL_A)
 305:.\Generated_Source\PSoC5/Filter.c ****         {        
 306:.\Generated_Source\PSoC5/Filter.c ****             val = Filter_HOLDA_REG;
 307:.\Generated_Source\PSoC5/Filter.c ****             val |= (uint32)(Filter_HOLDAM_REG) << 8u;
 308:.\Generated_Source\PSoC5/Filter.c ****             val |= (uint32)(Filter_HOLDAH_REG) << 16u;
 309:.\Generated_Source\PSoC5/Filter.c ****             
 310:.\Generated_Source\PSoC5/Filter.c ****             /* SignExtend */
 311:.\Generated_Source\PSoC5/Filter.c ****             if((val & Filter_SIGN_BIT) == Filter_SIGN_BIT)
 312:.\Generated_Source\PSoC5/Filter.c ****             {    
 313:.\Generated_Source\PSoC5/Filter.c **** 				val |= Filter_SIGN_BYTE;
 314:.\Generated_Source\PSoC5/Filter.c **** 			}
 315:.\Generated_Source\PSoC5/Filter.c ****         }
 316:.\Generated_Source\PSoC5/Filter.c ****         else if (channel == Filter_CHANNEL_B)
 317:.\Generated_Source\PSoC5/Filter.c ****         {      
 318:.\Generated_Source\PSoC5/Filter.c ****             val = Filter_HOLDB_REG;
 319:.\Generated_Source\PSoC5/Filter.c ****             val |= (uint32)Filter_HOLDBM_REG << 8u;
 320:.\Generated_Source\PSoC5/Filter.c ****             val |= (uint32)Filter_HOLDBH_REG << 16u;
 321:.\Generated_Source\PSoC5/Filter.c ****             
 322:.\Generated_Source\PSoC5/Filter.c ****             /* SignExtend */
 323:.\Generated_Source\PSoC5/Filter.c ****             if((val & Filter_SIGN_BIT) == Filter_SIGN_BIT)
 324:.\Generated_Source\PSoC5/Filter.c ****             {
 325:.\Generated_Source\PSoC5/Filter.c **** 				val |= Filter_SIGN_BYTE;
 326:.\Generated_Source\PSoC5/Filter.c **** 			}
 327:.\Generated_Source\PSoC5/Filter.c ****         }
 328:.\Generated_Source\PSoC5/Filter.c ****         else
 329:.\Generated_Source\PSoC5/Filter.c ****         {
 330:.\Generated_Source\PSoC5/Filter.c ****             val = 0x0u;
ARM GAS  C:\Users\VICTOR~1\AppData\Local\Temp\ccSusWlX.s 			page 15


 331:.\Generated_Source\PSoC5/Filter.c ****         }
 332:.\Generated_Source\PSoC5/Filter.c ****         return val;
 333:.\Generated_Source\PSoC5/Filter.c ****     }
 334:.\Generated_Source\PSoC5/Filter.c **** 
 335:.\Generated_Source\PSoC5/Filter.c **** #else
 336:.\Generated_Source\PSoC5/Filter.c **** 
 337:.\Generated_Source\PSoC5/Filter.c ****     uint32 Filter_Read24(uint8 channel) 
 338:.\Generated_Source\PSoC5/Filter.c ****     {
 469              		.loc 1 338 0
 470              		.cfi_startproc
 471              		@ args = 0, pretend = 0, frame = 16
 472              		@ frame_needed = 1, uses_anonymous_args = 0
 473              		@ link register save eliminated.
 474 0000 80B4     		push	{r7}
 475              	.LCFI14:
 476              		.cfi_def_cfa_offset 4
 477              		.cfi_offset 7, -4
 478 0002 85B0     		sub	sp, sp, #20
 479              	.LCFI15:
 480              		.cfi_def_cfa_offset 24
 481 0004 00AF     		add	r7, sp, #0
 482              	.LCFI16:
 483              		.cfi_def_cfa_register 7
 484 0006 0346     		mov	r3, r0
 485 0008 FB71     		strb	r3, [r7, #7]
 339:.\Generated_Source\PSoC5/Filter.c ****         uint32 val;
 340:.\Generated_Source\PSoC5/Filter.c ****          
 341:.\Generated_Source\PSoC5/Filter.c ****         if (channel == Filter_CHANNEL_A)
 486              		.loc 1 341 0
 487 000a FB79     		ldrb	r3, [r7, #7]	@ zero_extendqisi2
 488 000c 002B     		cmp	r3, #0
 489 000e 06D1     		bne	.L18
 342:.\Generated_Source\PSoC5/Filter.c ****         {        
 343:.\Generated_Source\PSoC5/Filter.c ****             val = Filter_HOLDA24_REG;
 490              		.loc 1 343 0
 491 0010 4CF2A873 		movw	r3, #51112
 492 0014 C4F20003 		movt	r3, 16384
 493 0018 1B68     		ldr	r3, [r3, #0]
 494 001a FB60     		str	r3, [r7, #12]
 495 001c 0CE0     		b	.L19
 496              	.L18:
 344:.\Generated_Source\PSoC5/Filter.c ****         }
 345:.\Generated_Source\PSoC5/Filter.c ****         else if (channel == Filter_CHANNEL_B)
 497              		.loc 1 345 0
 498 001e FB79     		ldrb	r3, [r7, #7]	@ zero_extendqisi2
 499 0020 012B     		cmp	r3, #1
 500 0022 06D1     		bne	.L20
 346:.\Generated_Source\PSoC5/Filter.c ****         {      
 347:.\Generated_Source\PSoC5/Filter.c ****             val = Filter_HOLDB24_REG;
 501              		.loc 1 347 0
 502 0024 4CF2AC73 		movw	r3, #51116
 503 0028 C4F20003 		movt	r3, 16384
 504 002c 1B68     		ldr	r3, [r3, #0]
 505 002e FB60     		str	r3, [r7, #12]
 506 0030 02E0     		b	.L19
 507              	.L20:
 348:.\Generated_Source\PSoC5/Filter.c ****         }
ARM GAS  C:\Users\VICTOR~1\AppData\Local\Temp\ccSusWlX.s 			page 16


 349:.\Generated_Source\PSoC5/Filter.c ****         else
 350:.\Generated_Source\PSoC5/Filter.c ****         {
 351:.\Generated_Source\PSoC5/Filter.c ****             val = 0x0u;
 508              		.loc 1 351 0
 509 0032 4FF00003 		mov	r3, #0
 510 0036 FB60     		str	r3, [r7, #12]
 511              	.L19:
 352:.\Generated_Source\PSoC5/Filter.c ****         }
 353:.\Generated_Source\PSoC5/Filter.c ****         return val;
 512              		.loc 1 353 0
 513 0038 FB68     		ldr	r3, [r7, #12]
 354:.\Generated_Source\PSoC5/Filter.c ****     }
 514              		.loc 1 354 0
 515 003a 1846     		mov	r0, r3
 516 003c 07F11407 		add	r7, r7, #20
 517 0040 BD46     		mov	sp, r7
 518 0042 80BC     		pop	{r7}
 519 0044 7047     		bx	lr
 520              		.cfi_endproc
 521              	.LFE6:
 522              		.size	Filter_Read24, .-Filter_Read24
 523 0046 00BF     		.section	.text.Filter_Write8,"ax",%progbits
 524              		.align	2
 525              		.global	Filter_Write8
 526              		.thumb
 527              		.thumb_func
 528              		.type	Filter_Write8, %function
 529              	Filter_Write8:
 530              	.LFB7:
 355:.\Generated_Source\PSoC5/Filter.c **** 
 356:.\Generated_Source\PSoC5/Filter.c **** #endif /* defined(__C51__) || defined(__CX51__) */
 357:.\Generated_Source\PSoC5/Filter.c **** 
 358:.\Generated_Source\PSoC5/Filter.c **** 
 359:.\Generated_Source\PSoC5/Filter.c **** /*******************************************************************************
 360:.\Generated_Source\PSoC5/Filter.c **** * Function Name: Filter_Write8
 361:.\Generated_Source\PSoC5/Filter.c **** ********************************************************************************
 362:.\Generated_Source\PSoC5/Filter.c **** *
 363:.\Generated_Source\PSoC5/Filter.c **** * Summary:
 364:.\Generated_Source\PSoC5/Filter.c **** *  Set the value in one of the DFB Input Staging Registers 
 365:.\Generated_Source\PSoC5/Filter.c **** *
 366:.\Generated_Source\PSoC5/Filter.c **** * Parameters:  
 367:.\Generated_Source\PSoC5/Filter.c **** *  channel:  Use either Filter_CHANNEL_A or 
 368:.\Generated_Source\PSoC5/Filter.c **** *            Filter_CHANNEL_B as arguments to the function.  
 369:.\Generated_Source\PSoC5/Filter.c **** *  sample:   The 8-bit, right justified input sample. 
 370:.\Generated_Source\PSoC5/Filter.c **** *
 371:.\Generated_Source\PSoC5/Filter.c **** * Return: 
 372:.\Generated_Source\PSoC5/Filter.c **** *  void
 373:.\Generated_Source\PSoC5/Filter.c **** *
 374:.\Generated_Source\PSoC5/Filter.c **** * Note:
 375:.\Generated_Source\PSoC5/Filter.c **** *  Order of the write is important.  On the load of the high byte, the DFB sets
 376:.\Generated_Source\PSoC5/Filter.c **** *  the input ready bit.
 377:.\Generated_Source\PSoC5/Filter.c **** *
 378:.\Generated_Source\PSoC5/Filter.c **** *******************************************************************************/
 379:.\Generated_Source\PSoC5/Filter.c **** void Filter_Write8(uint8 channel, uint8 sample) 
 380:.\Generated_Source\PSoC5/Filter.c **** {
 531              		.loc 1 380 0
 532              		.cfi_startproc
ARM GAS  C:\Users\VICTOR~1\AppData\Local\Temp\ccSusWlX.s 			page 17


 533              		@ args = 0, pretend = 0, frame = 8
 534              		@ frame_needed = 1, uses_anonymous_args = 0
 535              		@ link register save eliminated.
 536 0000 80B4     		push	{r7}
 537              	.LCFI17:
 538              		.cfi_def_cfa_offset 4
 539              		.cfi_offset 7, -4
 540 0002 83B0     		sub	sp, sp, #12
 541              	.LCFI18:
 542              		.cfi_def_cfa_offset 16
 543 0004 00AF     		add	r7, sp, #0
 544              	.LCFI19:
 545              		.cfi_def_cfa_register 7
 546 0006 0246     		mov	r2, r0
 547 0008 0B46     		mov	r3, r1
 548 000a FA71     		strb	r2, [r7, #7]
 549 000c BB71     		strb	r3, [r7, #6]
 381:.\Generated_Source\PSoC5/Filter.c ****     if (channel == Filter_CHANNEL_A)
 550              		.loc 1 381 0
 551 000e FB79     		ldrb	r3, [r7, #7]	@ zero_extendqisi2
 552 0010 002B     		cmp	r3, #0
 553 0012 06D1     		bne	.L23
 382:.\Generated_Source\PSoC5/Filter.c ****     {
 383:.\Generated_Source\PSoC5/Filter.c ****         Filter_STAGEAH_REG = sample;
 554              		.loc 1 383 0
 555 0014 4CF2A273 		movw	r3, #51106
 556 0018 C4F20003 		movt	r3, 16384
 557 001c BA79     		ldrb	r2, [r7, #6]
 558 001e 1A70     		strb	r2, [r3, #0]
 559 0020 08E0     		b	.L22
 560              	.L23:
 384:.\Generated_Source\PSoC5/Filter.c ****     }
 385:.\Generated_Source\PSoC5/Filter.c ****     else if (channel == Filter_CHANNEL_B)
 561              		.loc 1 385 0
 562 0022 FB79     		ldrb	r3, [r7, #7]	@ zero_extendqisi2
 563 0024 012B     		cmp	r3, #1
 564 0026 05D1     		bne	.L22
 386:.\Generated_Source\PSoC5/Filter.c ****     {
 387:.\Generated_Source\PSoC5/Filter.c ****         Filter_STAGEBH_REG = sample;
 565              		.loc 1 387 0
 566 0028 4CF2A673 		movw	r3, #51110
 567 002c C4F20003 		movt	r3, 16384
 568 0030 BA79     		ldrb	r2, [r7, #6]
 569 0032 1A70     		strb	r2, [r3, #0]
 570              	.L22:
 388:.\Generated_Source\PSoC5/Filter.c ****     }
 389:.\Generated_Source\PSoC5/Filter.c **** 	else
 390:.\Generated_Source\PSoC5/Filter.c **** 	{
 391:.\Generated_Source\PSoC5/Filter.c **** 		/* No value is loaded on bad channel input */
 392:.\Generated_Source\PSoC5/Filter.c **** 	}
 393:.\Generated_Source\PSoC5/Filter.c **** }
 571              		.loc 1 393 0
 572 0034 07F10C07 		add	r7, r7, #12
 573 0038 BD46     		mov	sp, r7
 574 003a 80BC     		pop	{r7}
 575 003c 7047     		bx	lr
 576              		.cfi_endproc
ARM GAS  C:\Users\VICTOR~1\AppData\Local\Temp\ccSusWlX.s 			page 18


 577              	.LFE7:
 578              		.size	Filter_Write8, .-Filter_Write8
 579 003e 00BF     		.section	.text.Filter_Write16,"ax",%progbits
 580              		.align	2
 581              		.global	Filter_Write16
 582              		.thumb
 583              		.thumb_func
 584              		.type	Filter_Write16, %function
 585              	Filter_Write16:
 586              	.LFB8:
 394:.\Generated_Source\PSoC5/Filter.c **** 
 395:.\Generated_Source\PSoC5/Filter.c **** 
 396:.\Generated_Source\PSoC5/Filter.c **** /*******************************************************************************
 397:.\Generated_Source\PSoC5/Filter.c **** * Function Name: Filter_Write16
 398:.\Generated_Source\PSoC5/Filter.c **** ********************************************************************************
 399:.\Generated_Source\PSoC5/Filter.c **** *
 400:.\Generated_Source\PSoC5/Filter.c **** * Summary:
 401:.\Generated_Source\PSoC5/Filter.c **** *  Set the value in one of the DFB Input Staging Registers 
 402:.\Generated_Source\PSoC5/Filter.c **** *
 403:.\Generated_Source\PSoC5/Filter.c **** * Parameters:  
 404:.\Generated_Source\PSoC5/Filter.c **** *  channel:  Use either Filter_CHANNEL_A or 
 405:.\Generated_Source\PSoC5/Filter.c **** *            Filter_CHANNEL_B as arguments to the function.  
 406:.\Generated_Source\PSoC5/Filter.c **** *  sample:   The 16-bit, right justified input sample. 
 407:.\Generated_Source\PSoC5/Filter.c **** *
 408:.\Generated_Source\PSoC5/Filter.c **** * Return: 
 409:.\Generated_Source\PSoC5/Filter.c **** *  void
 410:.\Generated_Source\PSoC5/Filter.c **** *
 411:.\Generated_Source\PSoC5/Filter.c **** * Note:
 412:.\Generated_Source\PSoC5/Filter.c **** *  Order of the write is important.  On the load of the high byte, the DFB sets
 413:.\Generated_Source\PSoC5/Filter.c **** *  the input ready bit.
 414:.\Generated_Source\PSoC5/Filter.c **** *
 415:.\Generated_Source\PSoC5/Filter.c **** *******************************************************************************/
 416:.\Generated_Source\PSoC5/Filter.c **** #if defined(__C51__) || defined(__CX51__)
 417:.\Generated_Source\PSoC5/Filter.c **** 
 418:.\Generated_Source\PSoC5/Filter.c ****     void Filter_Write16(uint8 channel, uint16 sample) 
 419:.\Generated_Source\PSoC5/Filter.c ****     {
 420:.\Generated_Source\PSoC5/Filter.c ****         /* Write the STAGE MSB reg last as it signals a complete wrote to the 
 421:.\Generated_Source\PSoC5/Filter.c ****            DFB.*/
 422:.\Generated_Source\PSoC5/Filter.c ****         if (channel == Filter_CHANNEL_A)
 423:.\Generated_Source\PSoC5/Filter.c ****         {
 424:.\Generated_Source\PSoC5/Filter.c ****             Filter_STAGEAM_REG = (uint8)(sample);
 425:.\Generated_Source\PSoC5/Filter.c ****             Filter_STAGEAH_REG = (uint8)(sample >> 8u);
 426:.\Generated_Source\PSoC5/Filter.c ****         }
 427:.\Generated_Source\PSoC5/Filter.c ****         else if (channel == Filter_CHANNEL_B)
 428:.\Generated_Source\PSoC5/Filter.c ****         {
 429:.\Generated_Source\PSoC5/Filter.c ****             Filter_STAGEBM_REG = (uint8)(sample);
 430:.\Generated_Source\PSoC5/Filter.c ****             Filter_STAGEBH_REG = (uint8)(sample >> 8u);
 431:.\Generated_Source\PSoC5/Filter.c ****         }
 432:.\Generated_Source\PSoC5/Filter.c ****         else
 433:.\Generated_Source\PSoC5/Filter.c **** 		{
 434:.\Generated_Source\PSoC5/Filter.c **** 			/* No value is loaded on bad channel input */
 435:.\Generated_Source\PSoC5/Filter.c **** 		}
 436:.\Generated_Source\PSoC5/Filter.c ****     }
 437:.\Generated_Source\PSoC5/Filter.c **** 
 438:.\Generated_Source\PSoC5/Filter.c **** #else
 439:.\Generated_Source\PSoC5/Filter.c **** 
 440:.\Generated_Source\PSoC5/Filter.c ****     void Filter_Write16(uint8 channel, uint16 sample) 
ARM GAS  C:\Users\VICTOR~1\AppData\Local\Temp\ccSusWlX.s 			page 19


 441:.\Generated_Source\PSoC5/Filter.c ****     {
 587              		.loc 1 441 0
 588              		.cfi_startproc
 589              		@ args = 0, pretend = 0, frame = 8
 590              		@ frame_needed = 1, uses_anonymous_args = 0
 591              		@ link register save eliminated.
 592 0000 80B4     		push	{r7}
 593              	.LCFI20:
 594              		.cfi_def_cfa_offset 4
 595              		.cfi_offset 7, -4
 596 0002 83B0     		sub	sp, sp, #12
 597              	.LCFI21:
 598              		.cfi_def_cfa_offset 16
 599 0004 00AF     		add	r7, sp, #0
 600              	.LCFI22:
 601              		.cfi_def_cfa_register 7
 602 0006 0246     		mov	r2, r0
 603 0008 0B46     		mov	r3, r1
 604 000a FA71     		strb	r2, [r7, #7]
 605 000c BB80     		strh	r3, [r7, #4]	@ movhi
 442:.\Generated_Source\PSoC5/Filter.c ****         if (channel == Filter_CHANNEL_A)
 606              		.loc 1 442 0
 607 000e FB79     		ldrb	r3, [r7, #7]	@ zero_extendqisi2
 608 0010 002B     		cmp	r3, #0
 609 0012 06D1     		bne	.L26
 443:.\Generated_Source\PSoC5/Filter.c ****         {
 444:.\Generated_Source\PSoC5/Filter.c ****             Filter_STAGEA16_REG = sample;
 610              		.loc 1 444 0
 611 0014 4CF2A173 		movw	r3, #51105
 612 0018 C4F20003 		movt	r3, 16384
 613 001c BA88     		ldrh	r2, [r7, #4]	@ movhi
 614 001e 1A80     		strh	r2, [r3, #0]	@ movhi
 615 0020 08E0     		b	.L25
 616              	.L26:
 445:.\Generated_Source\PSoC5/Filter.c ****         }
 446:.\Generated_Source\PSoC5/Filter.c ****         else if (channel == Filter_CHANNEL_B)
 617              		.loc 1 446 0
 618 0022 FB79     		ldrb	r3, [r7, #7]	@ zero_extendqisi2
 619 0024 012B     		cmp	r3, #1
 620 0026 05D1     		bne	.L25
 447:.\Generated_Source\PSoC5/Filter.c ****         {
 448:.\Generated_Source\PSoC5/Filter.c ****             Filter_STAGEB16_REG = sample;
 621              		.loc 1 448 0
 622 0028 4CF2A573 		movw	r3, #51109
 623 002c C4F20003 		movt	r3, 16384
 624 0030 BA88     		ldrh	r2, [r7, #4]	@ movhi
 625 0032 1A80     		strh	r2, [r3, #0]	@ movhi
 626              	.L25:
 449:.\Generated_Source\PSoC5/Filter.c ****         }
 450:.\Generated_Source\PSoC5/Filter.c ****         else
 451:.\Generated_Source\PSoC5/Filter.c **** 		{
 452:.\Generated_Source\PSoC5/Filter.c **** 			/* No value is loaded on bad channel input */
 453:.\Generated_Source\PSoC5/Filter.c **** 		}
 454:.\Generated_Source\PSoC5/Filter.c ****     }
 627              		.loc 1 454 0
 628 0034 07F10C07 		add	r7, r7, #12
 629 0038 BD46     		mov	sp, r7
ARM GAS  C:\Users\VICTOR~1\AppData\Local\Temp\ccSusWlX.s 			page 20


 630 003a 80BC     		pop	{r7}
 631 003c 7047     		bx	lr
 632              		.cfi_endproc
 633              	.LFE8:
 634              		.size	Filter_Write16, .-Filter_Write16
 635 003e 00BF     		.section	.text.Filter_Write24,"ax",%progbits
 636              		.align	2
 637              		.global	Filter_Write24
 638              		.thumb
 639              		.thumb_func
 640              		.type	Filter_Write24, %function
 641              	Filter_Write24:
 642              	.LFB9:
 455:.\Generated_Source\PSoC5/Filter.c **** 
 456:.\Generated_Source\PSoC5/Filter.c **** #endif /* defined(__C51__) || defined(__CX51__) */
 457:.\Generated_Source\PSoC5/Filter.c **** 
 458:.\Generated_Source\PSoC5/Filter.c **** 
 459:.\Generated_Source\PSoC5/Filter.c **** /*******************************************************************************
 460:.\Generated_Source\PSoC5/Filter.c **** * Function Name: Filter_Write24
 461:.\Generated_Source\PSoC5/Filter.c **** ********************************************************************************
 462:.\Generated_Source\PSoC5/Filter.c **** *
 463:.\Generated_Source\PSoC5/Filter.c **** * Summary:
 464:.\Generated_Source\PSoC5/Filter.c **** *  Set the value in one of the DFB Input Staging Registers 
 465:.\Generated_Source\PSoC5/Filter.c **** *
 466:.\Generated_Source\PSoC5/Filter.c **** * Parameters:  
 467:.\Generated_Source\PSoC5/Filter.c **** *  channel:  Use either Filter_CHANNEL_A or 
 468:.\Generated_Source\PSoC5/Filter.c **** *            Filter_CHANNEL_B as arguments to the function.  
 469:.\Generated_Source\PSoC5/Filter.c **** *  sample:   The 24-bit, right justified input sample inside of a uint32. 
 470:.\Generated_Source\PSoC5/Filter.c **** *
 471:.\Generated_Source\PSoC5/Filter.c **** * Return: 
 472:.\Generated_Source\PSoC5/Filter.c **** *  void
 473:.\Generated_Source\PSoC5/Filter.c **** *
 474:.\Generated_Source\PSoC5/Filter.c **** * Note:
 475:.\Generated_Source\PSoC5/Filter.c **** *  Order of the write is important.  On the load of the high byte, the DFB sets
 476:.\Generated_Source\PSoC5/Filter.c **** *  the input ready bit.
 477:.\Generated_Source\PSoC5/Filter.c **** *
 478:.\Generated_Source\PSoC5/Filter.c **** *******************************************************************************/
 479:.\Generated_Source\PSoC5/Filter.c **** #if defined(__C51__) || defined(__CX51__)
 480:.\Generated_Source\PSoC5/Filter.c **** 
 481:.\Generated_Source\PSoC5/Filter.c ****     void Filter_Write24(uint8 channel, uint32 sample) 
 482:.\Generated_Source\PSoC5/Filter.c ****     {
 483:.\Generated_Source\PSoC5/Filter.c ****         /* Write the STAGE LSB reg last as it signals a complete wrote to 
 484:.\Generated_Source\PSoC5/Filter.c ****            the DFB.*/
 485:.\Generated_Source\PSoC5/Filter.c ****         if (channel == Filter_CHANNEL_A)
 486:.\Generated_Source\PSoC5/Filter.c ****         {
 487:.\Generated_Source\PSoC5/Filter.c ****             Filter_STAGEA_REG  = (uint8)(sample);
 488:.\Generated_Source\PSoC5/Filter.c ****             Filter_STAGEAM_REG = (uint8)(sample >> 8u);
 489:.\Generated_Source\PSoC5/Filter.c ****             Filter_STAGEAH_REG = (uint8)(sample >> 16u);
 490:.\Generated_Source\PSoC5/Filter.c ****         }
 491:.\Generated_Source\PSoC5/Filter.c ****         else if (channel == Filter_CHANNEL_B)
 492:.\Generated_Source\PSoC5/Filter.c ****         {
 493:.\Generated_Source\PSoC5/Filter.c ****             Filter_STAGEB_REG = (uint8)(sample);
 494:.\Generated_Source\PSoC5/Filter.c ****             Filter_STAGEBM_REG = (uint8)(sample >> 8u);
 495:.\Generated_Source\PSoC5/Filter.c ****             Filter_STAGEBH_REG = (uint8)(sample >> 16u);
 496:.\Generated_Source\PSoC5/Filter.c ****         }
 497:.\Generated_Source\PSoC5/Filter.c ****         else
 498:.\Generated_Source\PSoC5/Filter.c **** 		{
ARM GAS  C:\Users\VICTOR~1\AppData\Local\Temp\ccSusWlX.s 			page 21


 499:.\Generated_Source\PSoC5/Filter.c **** 			/* No value is loaded on bad channel input */
 500:.\Generated_Source\PSoC5/Filter.c **** 		}
 501:.\Generated_Source\PSoC5/Filter.c ****     }
 502:.\Generated_Source\PSoC5/Filter.c **** 
 503:.\Generated_Source\PSoC5/Filter.c **** #else
 504:.\Generated_Source\PSoC5/Filter.c **** 
 505:.\Generated_Source\PSoC5/Filter.c ****     void Filter_Write24(uint8 channel, uint32 sample) 
 506:.\Generated_Source\PSoC5/Filter.c ****     {
 643              		.loc 1 506 0
 644              		.cfi_startproc
 645              		@ args = 0, pretend = 0, frame = 8
 646              		@ frame_needed = 1, uses_anonymous_args = 0
 647              		@ link register save eliminated.
 648 0000 80B4     		push	{r7}
 649              	.LCFI23:
 650              		.cfi_def_cfa_offset 4
 651              		.cfi_offset 7, -4
 652 0002 83B0     		sub	sp, sp, #12
 653              	.LCFI24:
 654              		.cfi_def_cfa_offset 16
 655 0004 00AF     		add	r7, sp, #0
 656              	.LCFI25:
 657              		.cfi_def_cfa_register 7
 658 0006 0346     		mov	r3, r0
 659 0008 3960     		str	r1, [r7, #0]
 660 000a FB71     		strb	r3, [r7, #7]
 507:.\Generated_Source\PSoC5/Filter.c ****         if (channel == Filter_CHANNEL_A)
 661              		.loc 1 507 0
 662 000c FB79     		ldrb	r3, [r7, #7]	@ zero_extendqisi2
 663 000e 002B     		cmp	r3, #0
 664 0010 06D1     		bne	.L29
 508:.\Generated_Source\PSoC5/Filter.c ****         {
 509:.\Generated_Source\PSoC5/Filter.c ****             Filter_STAGEA24_REG = sample;
 665              		.loc 1 509 0
 666 0012 4CF2A073 		movw	r3, #51104
 667 0016 C4F20003 		movt	r3, 16384
 668 001a 3A68     		ldr	r2, [r7, #0]
 669 001c 1A60     		str	r2, [r3, #0]
 670 001e 08E0     		b	.L28
 671              	.L29:
 510:.\Generated_Source\PSoC5/Filter.c ****         }
 511:.\Generated_Source\PSoC5/Filter.c ****         else if (channel == Filter_CHANNEL_B)
 672              		.loc 1 511 0
 673 0020 FB79     		ldrb	r3, [r7, #7]	@ zero_extendqisi2
 674 0022 012B     		cmp	r3, #1
 675 0024 05D1     		bne	.L28
 512:.\Generated_Source\PSoC5/Filter.c ****         {
 513:.\Generated_Source\PSoC5/Filter.c ****             Filter_STAGEB24_REG = sample;
 676              		.loc 1 513 0
 677 0026 4CF2A473 		movw	r3, #51108
 678 002a C4F20003 		movt	r3, 16384
 679 002e 3A68     		ldr	r2, [r7, #0]
 680 0030 1A60     		str	r2, [r3, #0]
 681              	.L28:
 514:.\Generated_Source\PSoC5/Filter.c ****         }
 515:.\Generated_Source\PSoC5/Filter.c ****         else
 516:.\Generated_Source\PSoC5/Filter.c **** 		{
ARM GAS  C:\Users\VICTOR~1\AppData\Local\Temp\ccSusWlX.s 			page 22


 517:.\Generated_Source\PSoC5/Filter.c **** 			/* No value is loaded on bad channel input */
 518:.\Generated_Source\PSoC5/Filter.c **** 		}
 519:.\Generated_Source\PSoC5/Filter.c ****     }
 682              		.loc 1 519 0
 683 0032 07F10C07 		add	r7, r7, #12
 684 0036 BD46     		mov	sp, r7
 685 0038 80BC     		pop	{r7}
 686 003a 7047     		bx	lr
 687              		.cfi_endproc
 688              	.LFE9:
 689              		.size	Filter_Write24, .-Filter_Write24
 690              		.section	.text.Filter_SetCoherency,"ax",%progbits
 691              		.align	2
 692              		.global	Filter_SetCoherency
 693              		.thumb
 694              		.thumb_func
 695              		.type	Filter_SetCoherency, %function
 696              	Filter_SetCoherency:
 697              	.LFB10:
 520:.\Generated_Source\PSoC5/Filter.c **** 
 521:.\Generated_Source\PSoC5/Filter.c **** #endif /* defined(__C51__) || defined(__CX51__) */
 522:.\Generated_Source\PSoC5/Filter.c **** 
 523:.\Generated_Source\PSoC5/Filter.c **** 
 524:.\Generated_Source\PSoC5/Filter.c **** /*******************************************************************************
 525:.\Generated_Source\PSoC5/Filter.c **** * Function Name: Filter_SetCoherency
 526:.\Generated_Source\PSoC5/Filter.c **** ********************************************************************************
 527:.\Generated_Source\PSoC5/Filter.c **** *
 528:.\Generated_Source\PSoC5/Filter.c **** * Summary:
 529:.\Generated_Source\PSoC5/Filter.c **** *  Sets the DFB coherency register with the user provided input 
 530:.\Generated_Source\PSoC5/Filter.c **** *
 531:.\Generated_Source\PSoC5/Filter.c **** * Parameters:  
 532:.\Generated_Source\PSoC5/Filter.c **** *  channel:  Filter_CHANNEL_A or Filter_CHANNEL_B
 533:.\Generated_Source\PSoC5/Filter.c **** *  byteSelect:  High byte, Middle byte or Low byte as the key coherency byte.
 534:.\Generated_Source\PSoC5/Filter.c **** *            
 535:.\Generated_Source\PSoC5/Filter.c **** * Return: 
 536:.\Generated_Source\PSoC5/Filter.c **** *  None.
 537:.\Generated_Source\PSoC5/Filter.c **** *
 538:.\Generated_Source\PSoC5/Filter.c **** *******************************************************************************/
 539:.\Generated_Source\PSoC5/Filter.c **** void Filter_SetCoherency(uint8 channel, uint8 byteSelect) 
 540:.\Generated_Source\PSoC5/Filter.c **** {
 698              		.loc 1 540 0
 699              		.cfi_startproc
 700              		@ args = 0, pretend = 0, frame = 8
 701              		@ frame_needed = 1, uses_anonymous_args = 0
 702              		@ link register save eliminated.
 703 0000 80B4     		push	{r7}
 704              	.LCFI26:
 705              		.cfi_def_cfa_offset 4
 706              		.cfi_offset 7, -4
 707 0002 83B0     		sub	sp, sp, #12
 708              	.LCFI27:
 709              		.cfi_def_cfa_offset 16
 710 0004 00AF     		add	r7, sp, #0
 711              	.LCFI28:
 712              		.cfi_def_cfa_register 7
 713 0006 0246     		mov	r2, r0
 714 0008 0B46     		mov	r3, r1
ARM GAS  C:\Users\VICTOR~1\AppData\Local\Temp\ccSusWlX.s 			page 23


 715 000a FA71     		strb	r2, [r7, #7]
 716 000c BB71     		strb	r3, [r7, #6]
 541:.\Generated_Source\PSoC5/Filter.c ****     if (channel == Filter_CHANNEL_A)
 717              		.loc 1 541 0
 718 000e FB79     		ldrb	r3, [r7, #7]	@ zero_extendqisi2
 719 0010 002B     		cmp	r3, #0
 720 0012 2DD1     		bne	.L32
 542:.\Generated_Source\PSoC5/Filter.c ****     {
 543:.\Generated_Source\PSoC5/Filter.c ****         Filter_COHER_REG &= 
 721              		.loc 1 543 0
 722 0014 4CF2B073 		movw	r3, #51120
 723 0018 C4F20003 		movt	r3, 16384
 724 001c 4CF2B072 		movw	r2, #51120
 725 0020 C4F20002 		movt	r2, 16384
 726 0024 1278     		ldrb	r2, [r2, #0]
 727 0026 D2B2     		uxtb	r2, r2
 728 0028 22F03302 		bic	r2, r2, #51
 729 002c D2B2     		uxtb	r2, r2
 730 002e 1A70     		strb	r2, [r3, #0]
 544:.\Generated_Source\PSoC5/Filter.c ****                 (uint8)(~(uint8)(Filter_STAGEA_COHER_MASK | Filter_HOLDA_COHER_MASK));
 545:.\Generated_Source\PSoC5/Filter.c ****         Filter_COHER_REG |= byteSelect;
 731              		.loc 1 545 0
 732 0030 4CF2B073 		movw	r3, #51120
 733 0034 C4F20003 		movt	r3, 16384
 734 0038 4CF2B072 		movw	r2, #51120
 735 003c C4F20002 		movt	r2, 16384
 736 0040 1278     		ldrb	r2, [r2, #0]
 737 0042 D1B2     		uxtb	r1, r2
 738 0044 BA79     		ldrb	r2, [r7, #6]
 739 0046 0A43     		orrs	r2, r2, r1
 740 0048 D2B2     		uxtb	r2, r2
 741 004a 1A70     		strb	r2, [r3, #0]
 546:.\Generated_Source\PSoC5/Filter.c ****         Filter_COHER_REG |= (uint8)((uint8)byteSelect << 4u);
 742              		.loc 1 546 0
 743 004c 4CF2B073 		movw	r3, #51120
 744 0050 C4F20003 		movt	r3, 16384
 745 0054 4CF2B072 		movw	r2, #51120
 746 0058 C4F20002 		movt	r2, 16384
 747 005c 1278     		ldrb	r2, [r2, #0]
 748 005e D1B2     		uxtb	r1, r2
 749 0060 BA79     		ldrb	r2, [r7, #6]
 750 0062 4FEA0212 		lsl	r2, r2, #4
 751 0066 D2B2     		uxtb	r2, r2
 752 0068 0A43     		orrs	r2, r2, r1
 753 006a D2B2     		uxtb	r2, r2
 754 006c 1A70     		strb	r2, [r3, #0]
 755 006e 32E0     		b	.L31
 756              	.L32:
 547:.\Generated_Source\PSoC5/Filter.c ****     }
 548:.\Generated_Source\PSoC5/Filter.c ****     else if (channel == Filter_CHANNEL_B)
 757              		.loc 1 548 0
 758 0070 FB79     		ldrb	r3, [r7, #7]	@ zero_extendqisi2
 759 0072 012B     		cmp	r3, #1
 760 0074 2FD1     		bne	.L31
 549:.\Generated_Source\PSoC5/Filter.c ****     {
 550:.\Generated_Source\PSoC5/Filter.c ****         Filter_COHER_REG &= 
 761              		.loc 1 550 0
ARM GAS  C:\Users\VICTOR~1\AppData\Local\Temp\ccSusWlX.s 			page 24


 762 0076 4CF2B073 		movw	r3, #51120
 763 007a C4F20003 		movt	r3, 16384
 764 007e 4CF2B072 		movw	r2, #51120
 765 0082 C4F20002 		movt	r2, 16384
 766 0086 1278     		ldrb	r2, [r2, #0]
 767 0088 D2B2     		uxtb	r2, r2
 768 008a 02F03302 		and	r2, r2, #51
 769 008e D2B2     		uxtb	r2, r2
 770 0090 1A70     		strb	r2, [r3, #0]
 551:.\Generated_Source\PSoC5/Filter.c ****                 (uint8)(~(uint8)(Filter_STAGEB_COHER_MASK | Filter_HOLDB_COHER_MASK));
 552:.\Generated_Source\PSoC5/Filter.c ****         Filter_COHER_REG |= (uint8)((uint8)byteSelect << 2u);
 771              		.loc 1 552 0
 772 0092 4CF2B073 		movw	r3, #51120
 773 0096 C4F20003 		movt	r3, 16384
 774 009a 4CF2B072 		movw	r2, #51120
 775 009e C4F20002 		movt	r2, 16384
 776 00a2 1278     		ldrb	r2, [r2, #0]
 777 00a4 D1B2     		uxtb	r1, r2
 778 00a6 BA79     		ldrb	r2, [r7, #6]
 779 00a8 4FEA8202 		lsl	r2, r2, #2
 780 00ac D2B2     		uxtb	r2, r2
 781 00ae 0A43     		orrs	r2, r2, r1
 782 00b0 D2B2     		uxtb	r2, r2
 783 00b2 1A70     		strb	r2, [r3, #0]
 553:.\Generated_Source\PSoC5/Filter.c ****         Filter_COHER_REG |= (uint8)((uint8)byteSelect << 6u);
 784              		.loc 1 553 0
 785 00b4 4CF2B073 		movw	r3, #51120
 786 00b8 C4F20003 		movt	r3, 16384
 787 00bc 4CF2B072 		movw	r2, #51120
 788 00c0 C4F20002 		movt	r2, 16384
 789 00c4 1278     		ldrb	r2, [r2, #0]
 790 00c6 D1B2     		uxtb	r1, r2
 791 00c8 BA79     		ldrb	r2, [r7, #6]
 792 00ca 4FEA8212 		lsl	r2, r2, #6
 793 00ce D2B2     		uxtb	r2, r2
 794 00d0 0A43     		orrs	r2, r2, r1
 795 00d2 D2B2     		uxtb	r2, r2
 796 00d4 1A70     		strb	r2, [r3, #0]
 797              	.L31:
 554:.\Generated_Source\PSoC5/Filter.c ****     }
 555:.\Generated_Source\PSoC5/Filter.c ****     else
 556:.\Generated_Source\PSoC5/Filter.c ****     {
 557:.\Generated_Source\PSoC5/Filter.c ****         /* Invalid channel value */
 558:.\Generated_Source\PSoC5/Filter.c ****     }
 559:.\Generated_Source\PSoC5/Filter.c **** }
 798              		.loc 1 559 0
 799 00d6 07F10C07 		add	r7, r7, #12
 800 00da BD46     		mov	sp, r7
 801 00dc 80BC     		pop	{r7}
 802 00de 7047     		bx	lr
 803              		.cfi_endproc
 804              	.LFE10:
 805              		.size	Filter_SetCoherency, .-Filter_SetCoherency
 806              		.text
 807              	.Letext0:
 808              		.file 2 ".\\Generated_Source\\PSoC5\\cytypes.h"
 809              		.file 3 ".\\Generated_Source\\PSoC5\\Filter_PVT.h"
ARM GAS  C:\Users\VICTOR~1\AppData\Local\Temp\ccSusWlX.s 			page 25


 810              		.section	.debug_info,"",%progbits
 811              	.Ldebug_info0:
 812 0000 6D030000 		.4byte	0x36d
 813 0004 0200     		.2byte	0x2
 814 0006 00000000 		.4byte	.Ldebug_abbrev0
 815 000a 04       		.byte	0x4
 816 000b 01       		.uleb128 0x1
 817 000c F3010000 		.4byte	.LASF40
 818 0010 01       		.byte	0x1
 819 0011 D1010000 		.4byte	.LASF41
 820 0015 32000000 		.4byte	.LASF42
 821 0019 00000000 		.4byte	.Ldebug_ranges0+0
 822 001d 00000000 		.4byte	0
 823 0021 00000000 		.4byte	0
 824 0025 00000000 		.4byte	.Ldebug_line0
 825 0029 02       		.uleb128 0x2
 826 002a 01       		.byte	0x1
 827 002b 06       		.byte	0x6
 828 002c 4E020000 		.4byte	.LASF0
 829 0030 02       		.uleb128 0x2
 830 0031 01       		.byte	0x1
 831 0032 08       		.byte	0x8
 832 0033 B5000000 		.4byte	.LASF1
 833 0037 02       		.uleb128 0x2
 834 0038 02       		.byte	0x2
 835 0039 05       		.byte	0x5
 836 003a C7010000 		.4byte	.LASF2
 837 003e 02       		.uleb128 0x2
 838 003f 02       		.byte	0x2
 839 0040 07       		.byte	0x7
 840 0041 5A020000 		.4byte	.LASF3
 841 0045 03       		.uleb128 0x3
 842 0046 04       		.byte	0x4
 843 0047 05       		.byte	0x5
 844 0048 696E7400 		.ascii	"int\000"
 845 004c 02       		.uleb128 0x2
 846 004d 04       		.byte	0x4
 847 004e 07       		.byte	0x7
 848 004f 44010000 		.4byte	.LASF4
 849 0053 02       		.uleb128 0x2
 850 0054 08       		.byte	0x8
 851 0055 05       		.byte	0x5
 852 0056 A6010000 		.4byte	.LASF5
 853 005a 02       		.uleb128 0x2
 854 005b 08       		.byte	0x8
 855 005c 07       		.byte	0x7
 856 005d 51010000 		.4byte	.LASF6
 857 0061 02       		.uleb128 0x2
 858 0062 04       		.byte	0x4
 859 0063 05       		.byte	0x5
 860 0064 7B000000 		.4byte	.LASF7
 861 0068 02       		.uleb128 0x2
 862 0069 04       		.byte	0x4
 863 006a 07       		.byte	0x7
 864 006b 9D010000 		.4byte	.LASF8
 865 006f 02       		.uleb128 0x2
 866 0070 04       		.byte	0x4
ARM GAS  C:\Users\VICTOR~1\AppData\Local\Temp\ccSusWlX.s 			page 26


 867 0071 07       		.byte	0x7
 868 0072 E1000000 		.4byte	.LASF9
 869 0076 02       		.uleb128 0x2
 870 0077 01       		.byte	0x1
 871 0078 08       		.byte	0x8
 872 0079 B4010000 		.4byte	.LASF10
 873 007d 04       		.uleb128 0x4
 874 007e F3000000 		.4byte	.LASF11
 875 0082 02       		.byte	0x2
 876 0083 5B       		.byte	0x5b
 877 0084 30000000 		.4byte	0x30
 878 0088 04       		.uleb128 0x4
 879 0089 36010000 		.4byte	.LASF12
 880 008d 02       		.byte	0x2
 881 008e 5C       		.byte	0x5c
 882 008f 3E000000 		.4byte	0x3e
 883 0093 04       		.uleb128 0x4
 884 0094 3D010000 		.4byte	.LASF13
 885 0098 02       		.byte	0x2
 886 0099 5D       		.byte	0x5d
 887 009a 6F000000 		.4byte	0x6f
 888 009e 02       		.uleb128 0x2
 889 009f 04       		.byte	0x4
 890 00a0 04       		.byte	0x4
 891 00a1 AF000000 		.4byte	.LASF14
 892 00a5 02       		.uleb128 0x2
 893 00a6 08       		.byte	0x8
 894 00a7 04       		.byte	0x4
 895 00a8 21010000 		.4byte	.LASF15
 896 00ac 04       		.uleb128 0x4
 897 00ad CF000000 		.4byte	.LASF16
 898 00b1 02       		.byte	0x2
 899 00b2 F0       		.byte	0xf0
 900 00b3 B7000000 		.4byte	0xb7
 901 00b7 05       		.uleb128 0x5
 902 00b8 7D000000 		.4byte	0x7d
 903 00bc 04       		.uleb128 0x4
 904 00bd 00000000 		.4byte	.LASF17
 905 00c1 02       		.byte	0x2
 906 00c2 F1       		.byte	0xf1
 907 00c3 C7000000 		.4byte	0xc7
 908 00c7 05       		.uleb128 0x5
 909 00c8 88000000 		.4byte	0x88
 910 00cc 04       		.uleb128 0x4
 911 00cd 06000000 		.4byte	.LASF18
 912 00d1 02       		.byte	0x2
 913 00d2 F2       		.byte	0xf2
 914 00d3 D7000000 		.4byte	0xd7
 915 00d7 05       		.uleb128 0x5
 916 00d8 93000000 		.4byte	0x93
 917 00dc 06       		.uleb128 0x6
 918 00dd 7D000000 		.4byte	0x7d
 919 00e1 EC000000 		.4byte	0xec
 920 00e5 07       		.uleb128 0x7
 921 00e6 68000000 		.4byte	0x68
 922 00ea 3F       		.byte	0x3f
 923 00eb 00       		.byte	0
ARM GAS  C:\Users\VICTOR~1\AppData\Local\Temp\ccSusWlX.s 			page 27


 924 00ec 08       		.uleb128 0x8
 925 00ed 01       		.byte	0x1
 926 00ee 79020000 		.4byte	.LASF19
 927 00f2 01       		.byte	0x1
 928 00f3 2B       		.byte	0x2b
 929 00f4 01       		.byte	0x1
 930 00f5 00000000 		.4byte	.LFB0
 931 00f9 6A010000 		.4byte	.LFE0
 932 00fd 00000000 		.4byte	.LLST0
 933 0101 01       		.byte	0x1
 934 0102 09       		.uleb128 0x9
 935 0103 01       		.byte	0x1
 936 0104 84000000 		.4byte	.LASF20
 937 0108 01       		.byte	0x1
 938 0109 66       		.byte	0x66
 939 010a 01       		.byte	0x1
 940 010b 00000000 		.4byte	.LFB1
 941 010f 5E000000 		.4byte	.LFE1
 942 0113 2C000000 		.4byte	.LLST1
 943 0117 01       		.byte	0x1
 944 0118 08       		.uleb128 0x8
 945 0119 01       		.byte	0x1
 946 011a D4000000 		.4byte	.LASF21
 947 011e 01       		.byte	0x1
 948 011f 89       		.byte	0x89
 949 0120 01       		.byte	0x1
 950 0121 00000000 		.4byte	.LFB2
 951 0125 2A000000 		.4byte	.LFE2
 952 0129 58000000 		.4byte	.LLST2
 953 012d 01       		.byte	0x1
 954 012e 09       		.uleb128 0x9
 955 012f 01       		.byte	0x1
 956 0130 C3000000 		.4byte	.LASF22
 957 0134 01       		.byte	0x1
 958 0135 A6       		.byte	0xa6
 959 0136 01       		.byte	0x1
 960 0137 00000000 		.4byte	.LFB3
 961 013b 5E000000 		.4byte	.LFE3
 962 013f 84000000 		.4byte	.LLST3
 963 0143 01       		.byte	0x1
 964 0144 0A       		.uleb128 0xa
 965 0145 01       		.byte	0x1
 966 0146 68010000 		.4byte	.LASF23
 967 014a 01       		.byte	0x1
 968 014b C1       		.byte	0xc1
 969 014c 01       		.byte	0x1
 970 014d 7D000000 		.4byte	0x7d
 971 0151 00000000 		.4byte	.LFB4
 972 0155 46000000 		.4byte	.LFE4
 973 0159 B0000000 		.4byte	.LLST4
 974 015d 01       		.byte	0x1
 975 015e 7F010000 		.4byte	0x17f
 976 0162 0B       		.uleb128 0xb
 977 0163 0C000000 		.4byte	.LASF25
 978 0167 01       		.byte	0x1
 979 0168 C1       		.byte	0xc1
 980 0169 7D000000 		.4byte	0x7d
ARM GAS  C:\Users\VICTOR~1\AppData\Local\Temp\ccSusWlX.s 			page 28


 981 016d 02       		.byte	0x2
 982 016e 91       		.byte	0x91
 983 016f 6F       		.sleb128 -17
 984 0170 0C       		.uleb128 0xc
 985 0171 1B010000 		.4byte	.LASF26
 986 0175 01       		.byte	0x1
 987 0176 C3       		.byte	0xc3
 988 0177 7D000000 		.4byte	0x7d
 989 017b 02       		.byte	0x2
 990 017c 91       		.byte	0x91
 991 017d 77       		.sleb128 -9
 992 017e 00       		.byte	0
 993 017f 0D       		.uleb128 0xd
 994 0180 01       		.byte	0x1
 995 0181 A1000000 		.4byte	.LASF24
 996 0185 01       		.byte	0x1
 997 0186 0101     		.2byte	0x101
 998 0188 01       		.byte	0x1
 999 0189 88000000 		.4byte	0x88
 1000 018d 00000000 		.4byte	.LFB5
 1001 0191 46000000 		.4byte	.LFE5
 1002 0195 E8000000 		.4byte	.LLST5
 1003 0199 01       		.byte	0x1
 1004 019a BD010000 		.4byte	0x1bd
 1005 019e 0E       		.uleb128 0xe
 1006 019f 0C000000 		.4byte	.LASF25
 1007 01a3 01       		.byte	0x1
 1008 01a4 0101     		.2byte	0x101
 1009 01a6 7D000000 		.4byte	0x7d
 1010 01aa 02       		.byte	0x2
 1011 01ab 91       		.byte	0x91
 1012 01ac 6F       		.sleb128 -17
 1013 01ad 0F       		.uleb128 0xf
 1014 01ae 76616C00 		.ascii	"val\000"
 1015 01b2 01       		.byte	0x1
 1016 01b3 0301     		.2byte	0x103
 1017 01b5 88000000 		.4byte	0x88
 1018 01b9 02       		.byte	0x2
 1019 01ba 91       		.byte	0x91
 1020 01bb 76       		.sleb128 -10
 1021 01bc 00       		.byte	0
 1022 01bd 0D       		.uleb128 0xd
 1023 01be 01       		.byte	0x1
 1024 01bf B9010000 		.4byte	.LASF27
 1025 01c3 01       		.byte	0x1
 1026 01c4 5101     		.2byte	0x151
 1027 01c6 01       		.byte	0x1
 1028 01c7 93000000 		.4byte	0x93
 1029 01cb 00000000 		.4byte	.LFB6
 1030 01cf 46000000 		.4byte	.LFE6
 1031 01d3 20010000 		.4byte	.LLST6
 1032 01d7 01       		.byte	0x1
 1033 01d8 FB010000 		.4byte	0x1fb
 1034 01dc 0E       		.uleb128 0xe
 1035 01dd 0C000000 		.4byte	.LASF25
 1036 01e1 01       		.byte	0x1
 1037 01e2 5101     		.2byte	0x151
ARM GAS  C:\Users\VICTOR~1\AppData\Local\Temp\ccSusWlX.s 			page 29


 1038 01e4 7D000000 		.4byte	0x7d
 1039 01e8 02       		.byte	0x2
 1040 01e9 91       		.byte	0x91
 1041 01ea 6F       		.sleb128 -17
 1042 01eb 0F       		.uleb128 0xf
 1043 01ec 76616C00 		.ascii	"val\000"
 1044 01f0 01       		.byte	0x1
 1045 01f1 5301     		.2byte	0x153
 1046 01f3 93000000 		.4byte	0x93
 1047 01f7 02       		.byte	0x2
 1048 01f8 91       		.byte	0x91
 1049 01f9 74       		.sleb128 -12
 1050 01fa 00       		.byte	0
 1051 01fb 10       		.uleb128 0x10
 1052 01fc 01       		.byte	0x1
 1053 01fd 75010000 		.4byte	.LASF29
 1054 0201 01       		.byte	0x1
 1055 0202 7B01     		.2byte	0x17b
 1056 0204 01       		.byte	0x1
 1057 0205 00000000 		.4byte	.LFB7
 1058 0209 3E000000 		.4byte	.LFE7
 1059 020d 58010000 		.4byte	.LLST7
 1060 0211 01       		.byte	0x1
 1061 0212 35020000 		.4byte	0x235
 1062 0216 0E       		.uleb128 0xe
 1063 0217 0C000000 		.4byte	.LASF25
 1064 021b 01       		.byte	0x1
 1065 021c 7B01     		.2byte	0x17b
 1066 021e 7D000000 		.4byte	0x7d
 1067 0222 02       		.byte	0x2
 1068 0223 91       		.byte	0x91
 1069 0224 77       		.sleb128 -9
 1070 0225 0E       		.uleb128 0xe
 1071 0226 3C020000 		.4byte	.LASF28
 1072 022a 01       		.byte	0x1
 1073 022b 7B01     		.2byte	0x17b
 1074 022d 7D000000 		.4byte	0x7d
 1075 0231 02       		.byte	0x2
 1076 0232 91       		.byte	0x91
 1077 0233 76       		.sleb128 -10
 1078 0234 00       		.byte	0
 1079 0235 10       		.uleb128 0x10
 1080 0236 01       		.byte	0x1
 1081 0237 92000000 		.4byte	.LASF30
 1082 023b 01       		.byte	0x1
 1083 023c B801     		.2byte	0x1b8
 1084 023e 01       		.byte	0x1
 1085 023f 00000000 		.4byte	.LFB8
 1086 0243 3E000000 		.4byte	.LFE8
 1087 0247 90010000 		.4byte	.LLST8
 1088 024b 01       		.byte	0x1
 1089 024c 6F020000 		.4byte	0x26f
 1090 0250 0E       		.uleb128 0xe
 1091 0251 0C000000 		.4byte	.LASF25
 1092 0255 01       		.byte	0x1
 1093 0256 B801     		.2byte	0x1b8
 1094 0258 7D000000 		.4byte	0x7d
ARM GAS  C:\Users\VICTOR~1\AppData\Local\Temp\ccSusWlX.s 			page 30


 1095 025c 02       		.byte	0x2
 1096 025d 91       		.byte	0x91
 1097 025e 77       		.sleb128 -9
 1098 025f 0E       		.uleb128 0xe
 1099 0260 3C020000 		.4byte	.LASF28
 1100 0264 01       		.byte	0x1
 1101 0265 B801     		.2byte	0x1b8
 1102 0267 88000000 		.4byte	0x88
 1103 026b 02       		.byte	0x2
 1104 026c 91       		.byte	0x91
 1105 026d 74       		.sleb128 -12
 1106 026e 00       		.byte	0
 1107 026f 10       		.uleb128 0x10
 1108 0270 01       		.byte	0x1
 1109 0271 8E010000 		.4byte	.LASF31
 1110 0275 01       		.byte	0x1
 1111 0276 F901     		.2byte	0x1f9
 1112 0278 01       		.byte	0x1
 1113 0279 00000000 		.4byte	.LFB9
 1114 027d 3C000000 		.4byte	.LFE9
 1115 0281 C8010000 		.4byte	.LLST9
 1116 0285 01       		.byte	0x1
 1117 0286 A9020000 		.4byte	0x2a9
 1118 028a 0E       		.uleb128 0xe
 1119 028b 0C000000 		.4byte	.LASF25
 1120 028f 01       		.byte	0x1
 1121 0290 F901     		.2byte	0x1f9
 1122 0292 7D000000 		.4byte	0x7d
 1123 0296 02       		.byte	0x2
 1124 0297 91       		.byte	0x91
 1125 0298 77       		.sleb128 -9
 1126 0299 0E       		.uleb128 0xe
 1127 029a 3C020000 		.4byte	.LASF28
 1128 029e 01       		.byte	0x1
 1129 029f F901     		.2byte	0x1f9
 1130 02a1 93000000 		.4byte	0x93
 1131 02a5 02       		.byte	0x2
 1132 02a6 91       		.byte	0x91
 1133 02a7 70       		.sleb128 -16
 1134 02a8 00       		.byte	0
 1135 02a9 10       		.uleb128 0x10
 1136 02aa 01       		.byte	0x1
 1137 02ab 07010000 		.4byte	.LASF32
 1138 02af 01       		.byte	0x1
 1139 02b0 1B02     		.2byte	0x21b
 1140 02b2 01       		.byte	0x1
 1141 02b3 00000000 		.4byte	.LFB10
 1142 02b7 E0000000 		.4byte	.LFE10
 1143 02bb 00020000 		.4byte	.LLST10
 1144 02bf 01       		.byte	0x1
 1145 02c0 E3020000 		.4byte	0x2e3
 1146 02c4 0E       		.uleb128 0xe
 1147 02c5 0C000000 		.4byte	.LASF25
 1148 02c9 01       		.byte	0x1
 1149 02ca 1B02     		.2byte	0x21b
 1150 02cc 7D000000 		.4byte	0x7d
 1151 02d0 02       		.byte	0x2
ARM GAS  C:\Users\VICTOR~1\AppData\Local\Temp\ccSusWlX.s 			page 31


 1152 02d1 91       		.byte	0x91
 1153 02d2 77       		.sleb128 -9
 1154 02d3 0E       		.uleb128 0xe
 1155 02d4 83010000 		.4byte	.LASF33
 1156 02d8 01       		.byte	0x1
 1157 02d9 1B02     		.2byte	0x21b
 1158 02db 7D000000 		.4byte	0x7d
 1159 02df 02       		.byte	0x2
 1160 02e0 91       		.byte	0x91
 1161 02e1 76       		.sleb128 -10
 1162 02e2 00       		.byte	0
 1163 02e3 11       		.uleb128 0x11
 1164 02e4 14000000 		.4byte	.LASF34
 1165 02e8 01       		.byte	0x1
 1166 02e9 18       		.byte	0x18
 1167 02ea 7D000000 		.4byte	0x7d
 1168 02ee 01       		.byte	0x1
 1169 02ef 05       		.byte	0x5
 1170 02f0 03       		.byte	0x3
 1171 02f1 00000000 		.4byte	Filter_initVar
 1172 02f5 06       		.uleb128 0x6
 1173 02f6 7D000000 		.4byte	0x7d
 1174 02fa 05030000 		.4byte	0x305
 1175 02fe 07       		.uleb128 0x7
 1176 02ff 68000000 		.4byte	0x68
 1177 0303 FF       		.byte	0xff
 1178 0304 00       		.byte	0
 1179 0305 12       		.uleb128 0x12
 1180 0306 23000000 		.4byte	.LASF35
 1181 030a 03       		.byte	0x3
 1182 030b 24       		.byte	0x24
 1183 030c 12030000 		.4byte	0x312
 1184 0310 01       		.byte	0x1
 1185 0311 01       		.byte	0x1
 1186 0312 13       		.uleb128 0x13
 1187 0313 F5020000 		.4byte	0x2f5
 1188 0317 06       		.uleb128 0x6
 1189 0318 7D000000 		.4byte	0x7d
 1190 031c 28030000 		.4byte	0x328
 1191 0320 14       		.uleb128 0x14
 1192 0321 68000000 		.4byte	0x68
 1193 0325 FF01     		.2byte	0x1ff
 1194 0327 00       		.byte	0
 1195 0328 12       		.uleb128 0x12
 1196 0329 28010000 		.4byte	.LASF36
 1197 032d 03       		.byte	0x3
 1198 032e 25       		.byte	0x25
 1199 032f 35030000 		.4byte	0x335
 1200 0333 01       		.byte	0x1
 1201 0334 01       		.byte	0x1
 1202 0335 13       		.uleb128 0x13
 1203 0336 17030000 		.4byte	0x317
 1204 033a 12       		.uleb128 0x12
 1205 033b F9000000 		.4byte	.LASF37
 1206 033f 03       		.byte	0x3
 1207 0340 26       		.byte	0x26
 1208 0341 47030000 		.4byte	0x347
ARM GAS  C:\Users\VICTOR~1\AppData\Local\Temp\ccSusWlX.s 			page 32


 1209 0345 01       		.byte	0x1
 1210 0346 01       		.byte	0x1
 1211 0347 13       		.uleb128 0x13
 1212 0348 17030000 		.4byte	0x317
 1213 034c 12       		.uleb128 0x12
 1214 034d 6D020000 		.4byte	.LASF38
 1215 0351 03       		.byte	0x3
 1216 0352 27       		.byte	0x27
 1217 0353 59030000 		.4byte	0x359
 1218 0357 01       		.byte	0x1
 1219 0358 01       		.byte	0x1
 1220 0359 13       		.uleb128 0x13
 1221 035a F5020000 		.4byte	0x2f5
 1222 035e 12       		.uleb128 0x12
 1223 035f 43020000 		.4byte	.LASF39
 1224 0363 03       		.byte	0x3
 1225 0364 28       		.byte	0x28
 1226 0365 6B030000 		.4byte	0x36b
 1227 0369 01       		.byte	0x1
 1228 036a 01       		.byte	0x1
 1229 036b 13       		.uleb128 0x13
 1230 036c DC000000 		.4byte	0xdc
 1231 0370 00       		.byte	0
 1232              		.section	.debug_abbrev,"",%progbits
 1233              	.Ldebug_abbrev0:
 1234 0000 01       		.uleb128 0x1
 1235 0001 11       		.uleb128 0x11
 1236 0002 01       		.byte	0x1
 1237 0003 25       		.uleb128 0x25
 1238 0004 0E       		.uleb128 0xe
 1239 0005 13       		.uleb128 0x13
 1240 0006 0B       		.uleb128 0xb
 1241 0007 03       		.uleb128 0x3
 1242 0008 0E       		.uleb128 0xe
 1243 0009 1B       		.uleb128 0x1b
 1244 000a 0E       		.uleb128 0xe
 1245 000b 55       		.uleb128 0x55
 1246 000c 06       		.uleb128 0x6
 1247 000d 11       		.uleb128 0x11
 1248 000e 01       		.uleb128 0x1
 1249 000f 52       		.uleb128 0x52
 1250 0010 01       		.uleb128 0x1
 1251 0011 10       		.uleb128 0x10
 1252 0012 06       		.uleb128 0x6
 1253 0013 00       		.byte	0
 1254 0014 00       		.byte	0
 1255 0015 02       		.uleb128 0x2
 1256 0016 24       		.uleb128 0x24
 1257 0017 00       		.byte	0
 1258 0018 0B       		.uleb128 0xb
 1259 0019 0B       		.uleb128 0xb
 1260 001a 3E       		.uleb128 0x3e
 1261 001b 0B       		.uleb128 0xb
 1262 001c 03       		.uleb128 0x3
 1263 001d 0E       		.uleb128 0xe
 1264 001e 00       		.byte	0
 1265 001f 00       		.byte	0
ARM GAS  C:\Users\VICTOR~1\AppData\Local\Temp\ccSusWlX.s 			page 33


 1266 0020 03       		.uleb128 0x3
 1267 0021 24       		.uleb128 0x24
 1268 0022 00       		.byte	0
 1269 0023 0B       		.uleb128 0xb
 1270 0024 0B       		.uleb128 0xb
 1271 0025 3E       		.uleb128 0x3e
 1272 0026 0B       		.uleb128 0xb
 1273 0027 03       		.uleb128 0x3
 1274 0028 08       		.uleb128 0x8
 1275 0029 00       		.byte	0
 1276 002a 00       		.byte	0
 1277 002b 04       		.uleb128 0x4
 1278 002c 16       		.uleb128 0x16
 1279 002d 00       		.byte	0
 1280 002e 03       		.uleb128 0x3
 1281 002f 0E       		.uleb128 0xe
 1282 0030 3A       		.uleb128 0x3a
 1283 0031 0B       		.uleb128 0xb
 1284 0032 3B       		.uleb128 0x3b
 1285 0033 0B       		.uleb128 0xb
 1286 0034 49       		.uleb128 0x49
 1287 0035 13       		.uleb128 0x13
 1288 0036 00       		.byte	0
 1289 0037 00       		.byte	0
 1290 0038 05       		.uleb128 0x5
 1291 0039 35       		.uleb128 0x35
 1292 003a 00       		.byte	0
 1293 003b 49       		.uleb128 0x49
 1294 003c 13       		.uleb128 0x13
 1295 003d 00       		.byte	0
 1296 003e 00       		.byte	0
 1297 003f 06       		.uleb128 0x6
 1298 0040 01       		.uleb128 0x1
 1299 0041 01       		.byte	0x1
 1300 0042 49       		.uleb128 0x49
 1301 0043 13       		.uleb128 0x13
 1302 0044 01       		.uleb128 0x1
 1303 0045 13       		.uleb128 0x13
 1304 0046 00       		.byte	0
 1305 0047 00       		.byte	0
 1306 0048 07       		.uleb128 0x7
 1307 0049 21       		.uleb128 0x21
 1308 004a 00       		.byte	0
 1309 004b 49       		.uleb128 0x49
 1310 004c 13       		.uleb128 0x13
 1311 004d 2F       		.uleb128 0x2f
 1312 004e 0B       		.uleb128 0xb
 1313 004f 00       		.byte	0
 1314 0050 00       		.byte	0
 1315 0051 08       		.uleb128 0x8
 1316 0052 2E       		.uleb128 0x2e
 1317 0053 00       		.byte	0
 1318 0054 3F       		.uleb128 0x3f
 1319 0055 0C       		.uleb128 0xc
 1320 0056 03       		.uleb128 0x3
 1321 0057 0E       		.uleb128 0xe
 1322 0058 3A       		.uleb128 0x3a
ARM GAS  C:\Users\VICTOR~1\AppData\Local\Temp\ccSusWlX.s 			page 34


 1323 0059 0B       		.uleb128 0xb
 1324 005a 3B       		.uleb128 0x3b
 1325 005b 0B       		.uleb128 0xb
 1326 005c 27       		.uleb128 0x27
 1327 005d 0C       		.uleb128 0xc
 1328 005e 11       		.uleb128 0x11
 1329 005f 01       		.uleb128 0x1
 1330 0060 12       		.uleb128 0x12
 1331 0061 01       		.uleb128 0x1
 1332 0062 40       		.uleb128 0x40
 1333 0063 06       		.uleb128 0x6
 1334 0064 9642     		.uleb128 0x2116
 1335 0066 0C       		.uleb128 0xc
 1336 0067 00       		.byte	0
 1337 0068 00       		.byte	0
 1338 0069 09       		.uleb128 0x9
 1339 006a 2E       		.uleb128 0x2e
 1340 006b 00       		.byte	0
 1341 006c 3F       		.uleb128 0x3f
 1342 006d 0C       		.uleb128 0xc
 1343 006e 03       		.uleb128 0x3
 1344 006f 0E       		.uleb128 0xe
 1345 0070 3A       		.uleb128 0x3a
 1346 0071 0B       		.uleb128 0xb
 1347 0072 3B       		.uleb128 0x3b
 1348 0073 0B       		.uleb128 0xb
 1349 0074 27       		.uleb128 0x27
 1350 0075 0C       		.uleb128 0xc
 1351 0076 11       		.uleb128 0x11
 1352 0077 01       		.uleb128 0x1
 1353 0078 12       		.uleb128 0x12
 1354 0079 01       		.uleb128 0x1
 1355 007a 40       		.uleb128 0x40
 1356 007b 06       		.uleb128 0x6
 1357 007c 9742     		.uleb128 0x2117
 1358 007e 0C       		.uleb128 0xc
 1359 007f 00       		.byte	0
 1360 0080 00       		.byte	0
 1361 0081 0A       		.uleb128 0xa
 1362 0082 2E       		.uleb128 0x2e
 1363 0083 01       		.byte	0x1
 1364 0084 3F       		.uleb128 0x3f
 1365 0085 0C       		.uleb128 0xc
 1366 0086 03       		.uleb128 0x3
 1367 0087 0E       		.uleb128 0xe
 1368 0088 3A       		.uleb128 0x3a
 1369 0089 0B       		.uleb128 0xb
 1370 008a 3B       		.uleb128 0x3b
 1371 008b 0B       		.uleb128 0xb
 1372 008c 27       		.uleb128 0x27
 1373 008d 0C       		.uleb128 0xc
 1374 008e 49       		.uleb128 0x49
 1375 008f 13       		.uleb128 0x13
 1376 0090 11       		.uleb128 0x11
 1377 0091 01       		.uleb128 0x1
 1378 0092 12       		.uleb128 0x12
 1379 0093 01       		.uleb128 0x1
ARM GAS  C:\Users\VICTOR~1\AppData\Local\Temp\ccSusWlX.s 			page 35


 1380 0094 40       		.uleb128 0x40
 1381 0095 06       		.uleb128 0x6
 1382 0096 9742     		.uleb128 0x2117
 1383 0098 0C       		.uleb128 0xc
 1384 0099 01       		.uleb128 0x1
 1385 009a 13       		.uleb128 0x13
 1386 009b 00       		.byte	0
 1387 009c 00       		.byte	0
 1388 009d 0B       		.uleb128 0xb
 1389 009e 05       		.uleb128 0x5
 1390 009f 00       		.byte	0
 1391 00a0 03       		.uleb128 0x3
 1392 00a1 0E       		.uleb128 0xe
 1393 00a2 3A       		.uleb128 0x3a
 1394 00a3 0B       		.uleb128 0xb
 1395 00a4 3B       		.uleb128 0x3b
 1396 00a5 0B       		.uleb128 0xb
 1397 00a6 49       		.uleb128 0x49
 1398 00a7 13       		.uleb128 0x13
 1399 00a8 02       		.uleb128 0x2
 1400 00a9 0A       		.uleb128 0xa
 1401 00aa 00       		.byte	0
 1402 00ab 00       		.byte	0
 1403 00ac 0C       		.uleb128 0xc
 1404 00ad 34       		.uleb128 0x34
 1405 00ae 00       		.byte	0
 1406 00af 03       		.uleb128 0x3
 1407 00b0 0E       		.uleb128 0xe
 1408 00b1 3A       		.uleb128 0x3a
 1409 00b2 0B       		.uleb128 0xb
 1410 00b3 3B       		.uleb128 0x3b
 1411 00b4 0B       		.uleb128 0xb
 1412 00b5 49       		.uleb128 0x49
 1413 00b6 13       		.uleb128 0x13
 1414 00b7 02       		.uleb128 0x2
 1415 00b8 0A       		.uleb128 0xa
 1416 00b9 00       		.byte	0
 1417 00ba 00       		.byte	0
 1418 00bb 0D       		.uleb128 0xd
 1419 00bc 2E       		.uleb128 0x2e
 1420 00bd 01       		.byte	0x1
 1421 00be 3F       		.uleb128 0x3f
 1422 00bf 0C       		.uleb128 0xc
 1423 00c0 03       		.uleb128 0x3
 1424 00c1 0E       		.uleb128 0xe
 1425 00c2 3A       		.uleb128 0x3a
 1426 00c3 0B       		.uleb128 0xb
 1427 00c4 3B       		.uleb128 0x3b
 1428 00c5 05       		.uleb128 0x5
 1429 00c6 27       		.uleb128 0x27
 1430 00c7 0C       		.uleb128 0xc
 1431 00c8 49       		.uleb128 0x49
 1432 00c9 13       		.uleb128 0x13
 1433 00ca 11       		.uleb128 0x11
 1434 00cb 01       		.uleb128 0x1
 1435 00cc 12       		.uleb128 0x12
 1436 00cd 01       		.uleb128 0x1
ARM GAS  C:\Users\VICTOR~1\AppData\Local\Temp\ccSusWlX.s 			page 36


 1437 00ce 40       		.uleb128 0x40
 1438 00cf 06       		.uleb128 0x6
 1439 00d0 9742     		.uleb128 0x2117
 1440 00d2 0C       		.uleb128 0xc
 1441 00d3 01       		.uleb128 0x1
 1442 00d4 13       		.uleb128 0x13
 1443 00d5 00       		.byte	0
 1444 00d6 00       		.byte	0
 1445 00d7 0E       		.uleb128 0xe
 1446 00d8 05       		.uleb128 0x5
 1447 00d9 00       		.byte	0
 1448 00da 03       		.uleb128 0x3
 1449 00db 0E       		.uleb128 0xe
 1450 00dc 3A       		.uleb128 0x3a
 1451 00dd 0B       		.uleb128 0xb
 1452 00de 3B       		.uleb128 0x3b
 1453 00df 05       		.uleb128 0x5
 1454 00e0 49       		.uleb128 0x49
 1455 00e1 13       		.uleb128 0x13
 1456 00e2 02       		.uleb128 0x2
 1457 00e3 0A       		.uleb128 0xa
 1458 00e4 00       		.byte	0
 1459 00e5 00       		.byte	0
 1460 00e6 0F       		.uleb128 0xf
 1461 00e7 34       		.uleb128 0x34
 1462 00e8 00       		.byte	0
 1463 00e9 03       		.uleb128 0x3
 1464 00ea 08       		.uleb128 0x8
 1465 00eb 3A       		.uleb128 0x3a
 1466 00ec 0B       		.uleb128 0xb
 1467 00ed 3B       		.uleb128 0x3b
 1468 00ee 05       		.uleb128 0x5
 1469 00ef 49       		.uleb128 0x49
 1470 00f0 13       		.uleb128 0x13
 1471 00f1 02       		.uleb128 0x2
 1472 00f2 0A       		.uleb128 0xa
 1473 00f3 00       		.byte	0
 1474 00f4 00       		.byte	0
 1475 00f5 10       		.uleb128 0x10
 1476 00f6 2E       		.uleb128 0x2e
 1477 00f7 01       		.byte	0x1
 1478 00f8 3F       		.uleb128 0x3f
 1479 00f9 0C       		.uleb128 0xc
 1480 00fa 03       		.uleb128 0x3
 1481 00fb 0E       		.uleb128 0xe
 1482 00fc 3A       		.uleb128 0x3a
 1483 00fd 0B       		.uleb128 0xb
 1484 00fe 3B       		.uleb128 0x3b
 1485 00ff 05       		.uleb128 0x5
 1486 0100 27       		.uleb128 0x27
 1487 0101 0C       		.uleb128 0xc
 1488 0102 11       		.uleb128 0x11
 1489 0103 01       		.uleb128 0x1
 1490 0104 12       		.uleb128 0x12
 1491 0105 01       		.uleb128 0x1
 1492 0106 40       		.uleb128 0x40
 1493 0107 06       		.uleb128 0x6
ARM GAS  C:\Users\VICTOR~1\AppData\Local\Temp\ccSusWlX.s 			page 37


 1494 0108 9742     		.uleb128 0x2117
 1495 010a 0C       		.uleb128 0xc
 1496 010b 01       		.uleb128 0x1
 1497 010c 13       		.uleb128 0x13
 1498 010d 00       		.byte	0
 1499 010e 00       		.byte	0
 1500 010f 11       		.uleb128 0x11
 1501 0110 34       		.uleb128 0x34
 1502 0111 00       		.byte	0
 1503 0112 03       		.uleb128 0x3
 1504 0113 0E       		.uleb128 0xe
 1505 0114 3A       		.uleb128 0x3a
 1506 0115 0B       		.uleb128 0xb
 1507 0116 3B       		.uleb128 0x3b
 1508 0117 0B       		.uleb128 0xb
 1509 0118 49       		.uleb128 0x49
 1510 0119 13       		.uleb128 0x13
 1511 011a 3F       		.uleb128 0x3f
 1512 011b 0C       		.uleb128 0xc
 1513 011c 02       		.uleb128 0x2
 1514 011d 0A       		.uleb128 0xa
 1515 011e 00       		.byte	0
 1516 011f 00       		.byte	0
 1517 0120 12       		.uleb128 0x12
 1518 0121 34       		.uleb128 0x34
 1519 0122 00       		.byte	0
 1520 0123 03       		.uleb128 0x3
 1521 0124 0E       		.uleb128 0xe
 1522 0125 3A       		.uleb128 0x3a
 1523 0126 0B       		.uleb128 0xb
 1524 0127 3B       		.uleb128 0x3b
 1525 0128 0B       		.uleb128 0xb
 1526 0129 49       		.uleb128 0x49
 1527 012a 13       		.uleb128 0x13
 1528 012b 3F       		.uleb128 0x3f
 1529 012c 0C       		.uleb128 0xc
 1530 012d 3C       		.uleb128 0x3c
 1531 012e 0C       		.uleb128 0xc
 1532 012f 00       		.byte	0
 1533 0130 00       		.byte	0
 1534 0131 13       		.uleb128 0x13
 1535 0132 26       		.uleb128 0x26
 1536 0133 00       		.byte	0
 1537 0134 49       		.uleb128 0x49
 1538 0135 13       		.uleb128 0x13
 1539 0136 00       		.byte	0
 1540 0137 00       		.byte	0
 1541 0138 14       		.uleb128 0x14
 1542 0139 21       		.uleb128 0x21
 1543 013a 00       		.byte	0
 1544 013b 49       		.uleb128 0x49
 1545 013c 13       		.uleb128 0x13
 1546 013d 2F       		.uleb128 0x2f
 1547 013e 05       		.uleb128 0x5
 1548 013f 00       		.byte	0
 1549 0140 00       		.byte	0
 1550 0141 00       		.byte	0
ARM GAS  C:\Users\VICTOR~1\AppData\Local\Temp\ccSusWlX.s 			page 38


 1551              		.section	.debug_loc,"",%progbits
 1552              	.Ldebug_loc0:
 1553              	.LLST0:
 1554 0000 00000000 		.4byte	.LFB0
 1555 0004 02000000 		.4byte	.LCFI0
 1556 0008 0200     		.2byte	0x2
 1557 000a 7D       		.byte	0x7d
 1558 000b 00       		.sleb128 0
 1559 000c 02000000 		.4byte	.LCFI0
 1560 0010 04000000 		.4byte	.LCFI1
 1561 0014 0200     		.2byte	0x2
 1562 0016 7D       		.byte	0x7d
 1563 0017 18       		.sleb128 24
 1564 0018 04000000 		.4byte	.LCFI1
 1565 001c 6A010000 		.4byte	.LFE0
 1566 0020 0200     		.2byte	0x2
 1567 0022 77       		.byte	0x77
 1568 0023 18       		.sleb128 24
 1569 0024 00000000 		.4byte	0
 1570 0028 00000000 		.4byte	0
 1571              	.LLST1:
 1572 002c 00000000 		.4byte	.LFB1
 1573 0030 02000000 		.4byte	.LCFI2
 1574 0034 0200     		.2byte	0x2
 1575 0036 7D       		.byte	0x7d
 1576 0037 00       		.sleb128 0
 1577 0038 02000000 		.4byte	.LCFI2
 1578 003c 04000000 		.4byte	.LCFI3
 1579 0040 0200     		.2byte	0x2
 1580 0042 7D       		.byte	0x7d
 1581 0043 04       		.sleb128 4
 1582 0044 04000000 		.4byte	.LCFI3
 1583 0048 5E000000 		.4byte	.LFE1
 1584 004c 0200     		.2byte	0x2
 1585 004e 77       		.byte	0x77
 1586 004f 04       		.sleb128 4
 1587 0050 00000000 		.4byte	0
 1588 0054 00000000 		.4byte	0
 1589              	.LLST2:
 1590 0058 00000000 		.4byte	.LFB2
 1591 005c 02000000 		.4byte	.LCFI4
 1592 0060 0200     		.2byte	0x2
 1593 0062 7D       		.byte	0x7d
 1594 0063 00       		.sleb128 0
 1595 0064 02000000 		.4byte	.LCFI4
 1596 0068 04000000 		.4byte	.LCFI5
 1597 006c 0200     		.2byte	0x2
 1598 006e 7D       		.byte	0x7d
 1599 006f 08       		.sleb128 8
 1600 0070 04000000 		.4byte	.LCFI5
 1601 0074 2A000000 		.4byte	.LFE2
 1602 0078 0200     		.2byte	0x2
 1603 007a 77       		.byte	0x77
 1604 007b 08       		.sleb128 8
 1605 007c 00000000 		.4byte	0
 1606 0080 00000000 		.4byte	0
 1607              	.LLST3:
ARM GAS  C:\Users\VICTOR~1\AppData\Local\Temp\ccSusWlX.s 			page 39


 1608 0084 00000000 		.4byte	.LFB3
 1609 0088 02000000 		.4byte	.LCFI6
 1610 008c 0200     		.2byte	0x2
 1611 008e 7D       		.byte	0x7d
 1612 008f 00       		.sleb128 0
 1613 0090 02000000 		.4byte	.LCFI6
 1614 0094 04000000 		.4byte	.LCFI7
 1615 0098 0200     		.2byte	0x2
 1616 009a 7D       		.byte	0x7d
 1617 009b 04       		.sleb128 4
 1618 009c 04000000 		.4byte	.LCFI7
 1619 00a0 5E000000 		.4byte	.LFE3
 1620 00a4 0200     		.2byte	0x2
 1621 00a6 77       		.byte	0x77
 1622 00a7 04       		.sleb128 4
 1623 00a8 00000000 		.4byte	0
 1624 00ac 00000000 		.4byte	0
 1625              	.LLST4:
 1626 00b0 00000000 		.4byte	.LFB4
 1627 00b4 02000000 		.4byte	.LCFI8
 1628 00b8 0200     		.2byte	0x2
 1629 00ba 7D       		.byte	0x7d
 1630 00bb 00       		.sleb128 0
 1631 00bc 02000000 		.4byte	.LCFI8
 1632 00c0 04000000 		.4byte	.LCFI9
 1633 00c4 0200     		.2byte	0x2
 1634 00c6 7D       		.byte	0x7d
 1635 00c7 04       		.sleb128 4
 1636 00c8 04000000 		.4byte	.LCFI9
 1637 00cc 06000000 		.4byte	.LCFI10
 1638 00d0 0200     		.2byte	0x2
 1639 00d2 7D       		.byte	0x7d
 1640 00d3 18       		.sleb128 24
 1641 00d4 06000000 		.4byte	.LCFI10
 1642 00d8 46000000 		.4byte	.LFE4
 1643 00dc 0200     		.2byte	0x2
 1644 00de 77       		.byte	0x77
 1645 00df 18       		.sleb128 24
 1646 00e0 00000000 		.4byte	0
 1647 00e4 00000000 		.4byte	0
 1648              	.LLST5:
 1649 00e8 00000000 		.4byte	.LFB5
 1650 00ec 02000000 		.4byte	.LCFI11
 1651 00f0 0200     		.2byte	0x2
 1652 00f2 7D       		.byte	0x7d
 1653 00f3 00       		.sleb128 0
 1654 00f4 02000000 		.4byte	.LCFI11
 1655 00f8 04000000 		.4byte	.LCFI12
 1656 00fc 0200     		.2byte	0x2
 1657 00fe 7D       		.byte	0x7d
 1658 00ff 04       		.sleb128 4
 1659 0100 04000000 		.4byte	.LCFI12
 1660 0104 06000000 		.4byte	.LCFI13
 1661 0108 0200     		.2byte	0x2
 1662 010a 7D       		.byte	0x7d
 1663 010b 18       		.sleb128 24
 1664 010c 06000000 		.4byte	.LCFI13
ARM GAS  C:\Users\VICTOR~1\AppData\Local\Temp\ccSusWlX.s 			page 40


 1665 0110 46000000 		.4byte	.LFE5
 1666 0114 0200     		.2byte	0x2
 1667 0116 77       		.byte	0x77
 1668 0117 18       		.sleb128 24
 1669 0118 00000000 		.4byte	0
 1670 011c 00000000 		.4byte	0
 1671              	.LLST6:
 1672 0120 00000000 		.4byte	.LFB6
 1673 0124 02000000 		.4byte	.LCFI14
 1674 0128 0200     		.2byte	0x2
 1675 012a 7D       		.byte	0x7d
 1676 012b 00       		.sleb128 0
 1677 012c 02000000 		.4byte	.LCFI14
 1678 0130 04000000 		.4byte	.LCFI15
 1679 0134 0200     		.2byte	0x2
 1680 0136 7D       		.byte	0x7d
 1681 0137 04       		.sleb128 4
 1682 0138 04000000 		.4byte	.LCFI15
 1683 013c 06000000 		.4byte	.LCFI16
 1684 0140 0200     		.2byte	0x2
 1685 0142 7D       		.byte	0x7d
 1686 0143 18       		.sleb128 24
 1687 0144 06000000 		.4byte	.LCFI16
 1688 0148 46000000 		.4byte	.LFE6
 1689 014c 0200     		.2byte	0x2
 1690 014e 77       		.byte	0x77
 1691 014f 18       		.sleb128 24
 1692 0150 00000000 		.4byte	0
 1693 0154 00000000 		.4byte	0
 1694              	.LLST7:
 1695 0158 00000000 		.4byte	.LFB7
 1696 015c 02000000 		.4byte	.LCFI17
 1697 0160 0200     		.2byte	0x2
 1698 0162 7D       		.byte	0x7d
 1699 0163 00       		.sleb128 0
 1700 0164 02000000 		.4byte	.LCFI17
 1701 0168 04000000 		.4byte	.LCFI18
 1702 016c 0200     		.2byte	0x2
 1703 016e 7D       		.byte	0x7d
 1704 016f 04       		.sleb128 4
 1705 0170 04000000 		.4byte	.LCFI18
 1706 0174 06000000 		.4byte	.LCFI19
 1707 0178 0200     		.2byte	0x2
 1708 017a 7D       		.byte	0x7d
 1709 017b 10       		.sleb128 16
 1710 017c 06000000 		.4byte	.LCFI19
 1711 0180 3E000000 		.4byte	.LFE7
 1712 0184 0200     		.2byte	0x2
 1713 0186 77       		.byte	0x77
 1714 0187 10       		.sleb128 16
 1715 0188 00000000 		.4byte	0
 1716 018c 00000000 		.4byte	0
 1717              	.LLST8:
 1718 0190 00000000 		.4byte	.LFB8
 1719 0194 02000000 		.4byte	.LCFI20
 1720 0198 0200     		.2byte	0x2
 1721 019a 7D       		.byte	0x7d
ARM GAS  C:\Users\VICTOR~1\AppData\Local\Temp\ccSusWlX.s 			page 41


 1722 019b 00       		.sleb128 0
 1723 019c 02000000 		.4byte	.LCFI20
 1724 01a0 04000000 		.4byte	.LCFI21
 1725 01a4 0200     		.2byte	0x2
 1726 01a6 7D       		.byte	0x7d
 1727 01a7 04       		.sleb128 4
 1728 01a8 04000000 		.4byte	.LCFI21
 1729 01ac 06000000 		.4byte	.LCFI22
 1730 01b0 0200     		.2byte	0x2
 1731 01b2 7D       		.byte	0x7d
 1732 01b3 10       		.sleb128 16
 1733 01b4 06000000 		.4byte	.LCFI22
 1734 01b8 3E000000 		.4byte	.LFE8
 1735 01bc 0200     		.2byte	0x2
 1736 01be 77       		.byte	0x77
 1737 01bf 10       		.sleb128 16
 1738 01c0 00000000 		.4byte	0
 1739 01c4 00000000 		.4byte	0
 1740              	.LLST9:
 1741 01c8 00000000 		.4byte	.LFB9
 1742 01cc 02000000 		.4byte	.LCFI23
 1743 01d0 0200     		.2byte	0x2
 1744 01d2 7D       		.byte	0x7d
 1745 01d3 00       		.sleb128 0
 1746 01d4 02000000 		.4byte	.LCFI23
 1747 01d8 04000000 		.4byte	.LCFI24
 1748 01dc 0200     		.2byte	0x2
 1749 01de 7D       		.byte	0x7d
 1750 01df 04       		.sleb128 4
 1751 01e0 04000000 		.4byte	.LCFI24
 1752 01e4 06000000 		.4byte	.LCFI25
 1753 01e8 0200     		.2byte	0x2
 1754 01ea 7D       		.byte	0x7d
 1755 01eb 10       		.sleb128 16
 1756 01ec 06000000 		.4byte	.LCFI25
 1757 01f0 3C000000 		.4byte	.LFE9
 1758 01f4 0200     		.2byte	0x2
 1759 01f6 77       		.byte	0x77
 1760 01f7 10       		.sleb128 16
 1761 01f8 00000000 		.4byte	0
 1762 01fc 00000000 		.4byte	0
 1763              	.LLST10:
 1764 0200 00000000 		.4byte	.LFB10
 1765 0204 02000000 		.4byte	.LCFI26
 1766 0208 0200     		.2byte	0x2
 1767 020a 7D       		.byte	0x7d
 1768 020b 00       		.sleb128 0
 1769 020c 02000000 		.4byte	.LCFI26
 1770 0210 04000000 		.4byte	.LCFI27
 1771 0214 0200     		.2byte	0x2
 1772 0216 7D       		.byte	0x7d
 1773 0217 04       		.sleb128 4
 1774 0218 04000000 		.4byte	.LCFI27
 1775 021c 06000000 		.4byte	.LCFI28
 1776 0220 0200     		.2byte	0x2
 1777 0222 7D       		.byte	0x7d
 1778 0223 10       		.sleb128 16
ARM GAS  C:\Users\VICTOR~1\AppData\Local\Temp\ccSusWlX.s 			page 42


 1779 0224 06000000 		.4byte	.LCFI28
 1780 0228 E0000000 		.4byte	.LFE10
 1781 022c 0200     		.2byte	0x2
 1782 022e 77       		.byte	0x77
 1783 022f 10       		.sleb128 16
 1784 0230 00000000 		.4byte	0
 1785 0234 00000000 		.4byte	0
 1786              		.section	.debug_aranges,"",%progbits
 1787 0000 6C000000 		.4byte	0x6c
 1788 0004 0200     		.2byte	0x2
 1789 0006 00000000 		.4byte	.Ldebug_info0
 1790 000a 04       		.byte	0x4
 1791 000b 00       		.byte	0
 1792 000c 0000     		.2byte	0
 1793 000e 0000     		.2byte	0
 1794 0010 00000000 		.4byte	.LFB0
 1795 0014 6A010000 		.4byte	.LFE0-.LFB0
 1796 0018 00000000 		.4byte	.LFB1
 1797 001c 5E000000 		.4byte	.LFE1-.LFB1
 1798 0020 00000000 		.4byte	.LFB2
 1799 0024 2A000000 		.4byte	.LFE2-.LFB2
 1800 0028 00000000 		.4byte	.LFB3
 1801 002c 5E000000 		.4byte	.LFE3-.LFB3
 1802 0030 00000000 		.4byte	.LFB4
 1803 0034 46000000 		.4byte	.LFE4-.LFB4
 1804 0038 00000000 		.4byte	.LFB5
 1805 003c 46000000 		.4byte	.LFE5-.LFB5
 1806 0040 00000000 		.4byte	.LFB6
 1807 0044 46000000 		.4byte	.LFE6-.LFB6
 1808 0048 00000000 		.4byte	.LFB7
 1809 004c 3E000000 		.4byte	.LFE7-.LFB7
 1810 0050 00000000 		.4byte	.LFB8
 1811 0054 3E000000 		.4byte	.LFE8-.LFB8
 1812 0058 00000000 		.4byte	.LFB9
 1813 005c 3C000000 		.4byte	.LFE9-.LFB9
 1814 0060 00000000 		.4byte	.LFB10
 1815 0064 E0000000 		.4byte	.LFE10-.LFB10
 1816 0068 00000000 		.4byte	0
 1817 006c 00000000 		.4byte	0
 1818              		.section	.debug_ranges,"",%progbits
 1819              	.Ldebug_ranges0:
 1820 0000 00000000 		.4byte	.LFB0
 1821 0004 6A010000 		.4byte	.LFE0
 1822 0008 00000000 		.4byte	.LFB1
 1823 000c 5E000000 		.4byte	.LFE1
 1824 0010 00000000 		.4byte	.LFB2
 1825 0014 2A000000 		.4byte	.LFE2
 1826 0018 00000000 		.4byte	.LFB3
 1827 001c 5E000000 		.4byte	.LFE3
 1828 0020 00000000 		.4byte	.LFB4
 1829 0024 46000000 		.4byte	.LFE4
 1830 0028 00000000 		.4byte	.LFB5
 1831 002c 46000000 		.4byte	.LFE5
 1832 0030 00000000 		.4byte	.LFB6
 1833 0034 46000000 		.4byte	.LFE6
 1834 0038 00000000 		.4byte	.LFB7
 1835 003c 3E000000 		.4byte	.LFE7
ARM GAS  C:\Users\VICTOR~1\AppData\Local\Temp\ccSusWlX.s 			page 43


 1836 0040 00000000 		.4byte	.LFB8
 1837 0044 3E000000 		.4byte	.LFE8
 1838 0048 00000000 		.4byte	.LFB9
 1839 004c 3C000000 		.4byte	.LFE9
 1840 0050 00000000 		.4byte	.LFB10
 1841 0054 E0000000 		.4byte	.LFE10
 1842 0058 00000000 		.4byte	0
 1843 005c 00000000 		.4byte	0
 1844              		.section	.debug_line,"",%progbits
 1845              	.Ldebug_line0:
 1846 0000 5C010000 		.section	.debug_str,"MS",%progbits,1
 1846      02005500 
 1846      00000201 
 1846      FB0E0D00 
 1846      01010101 
 1847              	.LASF17:
 1848 0000 72656731 		.ascii	"reg16\000"
 1848      3600
 1849              	.LASF18:
 1850 0006 72656733 		.ascii	"reg32\000"
 1850      3200
 1851              	.LASF25:
 1852 000c 6368616E 		.ascii	"channel\000"
 1852      6E656C00 
 1853              	.LASF34:
 1854 0014 46696C74 		.ascii	"Filter_initVar\000"
 1854      65725F69 
 1854      6E697456 
 1854      617200
 1855              	.LASF35:
 1856 0023 46696C74 		.ascii	"Filter_control\000"
 1856      65725F63 
 1856      6F6E7472 
 1856      6F6C00
 1857              	.LASF42:
 1858 0032 433A5C55 		.ascii	"C:\\Users\\Victor Ruela\\Desktop\\IC\\CTPmag\\teste"
 1858      73657273 
 1858      5C566963 
 1858      746F7220 
 1858      5275656C 
 1859 005f 5553425C 		.ascii	"USB\\TesteUSB\\TesteUSB.cydsn\000"
 1859      54657374 
 1859      65555342 
 1859      5C546573 
 1859      74655553 
 1860              	.LASF7:
 1861 007b 6C6F6E67 		.ascii	"long int\000"
 1861      20696E74 
 1861      00
 1862              	.LASF20:
 1863 0084 46696C74 		.ascii	"Filter_Enable\000"
 1863      65725F45 
 1863      6E61626C 
 1863      6500
 1864              	.LASF30:
 1865 0092 46696C74 		.ascii	"Filter_Write16\000"
 1865      65725F57 
ARM GAS  C:\Users\VICTOR~1\AppData\Local\Temp\ccSusWlX.s 			page 44


 1865      72697465 
 1865      313600
 1866              	.LASF24:
 1867 00a1 46696C74 		.ascii	"Filter_Read16\000"
 1867      65725F52 
 1867      65616431 
 1867      3600
 1868              	.LASF14:
 1869 00af 666C6F61 		.ascii	"float\000"
 1869      7400
 1870              	.LASF1:
 1871 00b5 756E7369 		.ascii	"unsigned char\000"
 1871      676E6564 
 1871      20636861 
 1871      7200
 1872              	.LASF22:
 1873 00c3 46696C74 		.ascii	"Filter_Stop\000"
 1873      65725F53 
 1873      746F7000 
 1874              	.LASF16:
 1875 00cf 72656738 		.ascii	"reg8\000"
 1875      00
 1876              	.LASF21:
 1877 00d4 46696C74 		.ascii	"Filter_Start\000"
 1877      65725F53 
 1877      74617274 
 1877      00
 1878              	.LASF9:
 1879 00e1 6C6F6E67 		.ascii	"long unsigned int\000"
 1879      20756E73 
 1879      69676E65 
 1879      6420696E 
 1879      7400
 1880              	.LASF11:
 1881 00f3 75696E74 		.ascii	"uint8\000"
 1881      3800
 1882              	.LASF37:
 1883 00f9 46696C74 		.ascii	"Filter_data_b\000"
 1883      65725F64 
 1883      6174615F 
 1883      6200
 1884              	.LASF32:
 1885 0107 46696C74 		.ascii	"Filter_SetCoherency\000"
 1885      65725F53 
 1885      6574436F 
 1885      68657265 
 1885      6E637900 
 1886              	.LASF26:
 1887 011b 76616C75 		.ascii	"value\000"
 1887      6500
 1888              	.LASF15:
 1889 0121 646F7562 		.ascii	"double\000"
 1889      6C6500
 1890              	.LASF36:
 1891 0128 46696C74 		.ascii	"Filter_data_a\000"
 1891      65725F64 
 1891      6174615F 
ARM GAS  C:\Users\VICTOR~1\AppData\Local\Temp\ccSusWlX.s 			page 45


 1891      6100
 1892              	.LASF12:
 1893 0136 75696E74 		.ascii	"uint16\000"
 1893      313600
 1894              	.LASF13:
 1895 013d 75696E74 		.ascii	"uint32\000"
 1895      333200
 1896              	.LASF4:
 1897 0144 756E7369 		.ascii	"unsigned int\000"
 1897      676E6564 
 1897      20696E74 
 1897      00
 1898              	.LASF6:
 1899 0151 6C6F6E67 		.ascii	"long long unsigned int\000"
 1899      206C6F6E 
 1899      6720756E 
 1899      7369676E 
 1899      65642069 
 1900              	.LASF23:
 1901 0168 46696C74 		.ascii	"Filter_Read8\000"
 1901      65725F52 
 1901      65616438 
 1901      00
 1902              	.LASF29:
 1903 0175 46696C74 		.ascii	"Filter_Write8\000"
 1903      65725F57 
 1903      72697465 
 1903      3800
 1904              	.LASF33:
 1905 0183 62797465 		.ascii	"byteSelect\000"
 1905      53656C65 
 1905      637400
 1906              	.LASF31:
 1907 018e 46696C74 		.ascii	"Filter_Write24\000"
 1907      65725F57 
 1907      72697465 
 1907      323400
 1908              	.LASF8:
 1909 019d 73697A65 		.ascii	"sizetype\000"
 1909      74797065 
 1909      00
 1910              	.LASF5:
 1911 01a6 6C6F6E67 		.ascii	"long long int\000"
 1911      206C6F6E 
 1911      6720696E 
 1911      7400
 1912              	.LASF10:
 1913 01b4 63686172 		.ascii	"char\000"
 1913      00
 1914              	.LASF27:
 1915 01b9 46696C74 		.ascii	"Filter_Read24\000"
 1915      65725F52 
 1915      65616432 
 1915      3400
 1916              	.LASF2:
 1917 01c7 73686F72 		.ascii	"short int\000"
 1917      7420696E 
ARM GAS  C:\Users\VICTOR~1\AppData\Local\Temp\ccSusWlX.s 			page 46


 1917      7400
 1918              	.LASF41:
 1919 01d1 2E5C4765 		.ascii	".\\Generated_Source\\PSoC5\\Filter.c\000"
 1919      6E657261 
 1919      7465645F 
 1919      536F7572 
 1919      63655C50 
 1920              	.LASF40:
 1921 01f3 474E5520 		.ascii	"GNU C 4.7.3 20130312 (release) [ARM/embedded-4_7-br"
 1921      4320342E 
 1921      372E3320 
 1921      32303133 
 1921      30333132 
 1922 0226 616E6368 		.ascii	"anch revision 196615]\000"
 1922      20726576 
 1922      6973696F 
 1922      6E203139 
 1922      36363135 
 1923              	.LASF28:
 1924 023c 73616D70 		.ascii	"sample\000"
 1924      6C6500
 1925              	.LASF39:
 1926 0243 46696C74 		.ascii	"Filter_acu\000"
 1926      65725F61 
 1926      637500
 1927              	.LASF0:
 1928 024e 7369676E 		.ascii	"signed char\000"
 1928      65642063 
 1928      68617200 
 1929              	.LASF3:
 1930 025a 73686F72 		.ascii	"short unsigned int\000"
 1930      7420756E 
 1930      7369676E 
 1930      65642069 
 1930      6E7400
 1931              	.LASF38:
 1932 026d 46696C74 		.ascii	"Filter_cfsm\000"
 1932      65725F63 
 1932      66736D00 
 1933              	.LASF19:
 1934 0279 46696C74 		.ascii	"Filter_Init\000"
 1934      65725F49 
 1934      6E697400 
 1935              		.ident	"GCC: (GNU Tools for ARM Embedded Processors) 4.7.3 20130312 (release) [ARM/embedded-4_7-br
