ARM GAS  C:\Users\VICTOR~1\AppData\Local\Temp\cc329r6Z.s 			page 1


   1              		.syntax unified
   2              		.cpu cortex-m3
   3              		.fpu softvfp
   4              		.eabi_attribute 20, 1
   5              		.eabi_attribute 21, 1
   6              		.eabi_attribute 23, 3
   7              		.eabi_attribute 24, 1
   8              		.eabi_attribute 25, 1
   9              		.eabi_attribute 26, 1
  10              		.eabi_attribute 30, 6
  11              		.eabi_attribute 34, 1
  12              		.eabi_attribute 18, 4
  13              		.thumb
  14              		.file	"main.c"
  15              		.text
  16              	.Ltext0:
  17              		.cfi_sections	.debug_frame
  18              		.global	AltSettingNumber
  19              		.bss
  20              		.type	AltSettingNumber, %object
  21              		.size	AltSettingNumber, 1
  22              	AltSettingNumber:
  23 0000 00       		.space	1
  24              		.comm	Interrupt_OUT_Buffer,8,4
  25              		.comm	EP2_Count,1,1
  26              		.comm	Bulk_OUT_Buffer,8,4
  27              		.comm	EP4_Count,1,1
  28              		.comm	Isochronous_OUT_Buffer,8,4
  29              		.comm	EP6_Count,1,1
  30              		.section	.text.main,"ax",%progbits
  31              		.align	2
  32              		.global	main
  33              		.thumb
  34              		.thumb_func
  35              		.type	main, %function
  36              	main:
  37              	.LFB56:
  38              		.file 1 ".\\main.c"
   1:.\main.c      **** //#include <device.h>
   2:.\main.c      **** //#include <project.h>
   3:.\main.c      **** 
   4:.\main.c      **** #include <device.h>
   5:.\main.c      **** 
   6:.\main.c      **** /* Create Defines for various Endpoints */
   7:.\main.c      **** #define EP1 0x01
   8:.\main.c      **** #define EP2 0x02
   9:.\main.c      **** #define EP3 0x03
  10:.\main.c      **** #define EP4 0x04
  11:.\main.c      **** #define EP5 0x05
  12:.\main.c      **** #define EP6 0x06
  13:.\main.c      **** #define ZeroBandwidthInterface 0
  14:.\main.c      **** #define UnassignedAddress 0
  15:.\main.c      **** 
  16:.\main.c      **** 
  17:.\main.c      **** 
  18:.\main.c      **** /* Function Prototypes */
  19:.\main.c      **** void Interrupt_Transfer (void);
ARM GAS  C:\Users\VICTOR~1\AppData\Local\Temp\cc329r6Z.s 			page 2


  20:.\main.c      **** void Bulk_Transfer (void);
  21:.\main.c      **** void Isochronous_Transfer (void);
  22:.\main.c      **** 
  23:.\main.c      **** /* External variable that contains device address assigned by host */
  24:.\main.c      **** extern volatile uint8 USBFS_deviceAddress;
  25:.\main.c      **** 
  26:.\main.c      **** uint8 AltSettingNumber = 0u;
  27:.\main.c      **** 
  28:.\main.c      **** 
  29:.\main.c      **** /* Buffers variables where data sent from host will be stored */
  30:.\main.c      **** uint8 Interrupt_OUT_Buffer[8], EP2_Count;
  31:.\main.c      **** uint8 Bulk_OUT_Buffer[8], EP4_Count;
  32:.\main.c      **** uint8 Isochronous_OUT_Buffer[8], EP6_Count ;
  33:.\main.c      **** 
  34:.\main.c      **** 
  35:.\main.c      **** 
  36:.\main.c      **** 
  37:.\main.c      **** int main(void)
  38:.\main.c      **** {
  39              		.loc 1 38 0
  40              		.cfi_startproc
  41              		@ args = 0, pretend = 0, frame = 0
  42              		@ frame_needed = 1, uses_anonymous_args = 0
  43 0000 80B5     		push	{r7, lr}
  44              	.LCFI0:
  45              		.cfi_def_cfa_offset 8
  46              		.cfi_offset 7, -8
  47              		.cfi_offset 14, -4
  48 0002 00AF     		add	r7, sp, #0
  49              	.LCFI1:
  50              		.cfi_def_cfa_register 7
  39:.\main.c      ****      
  40:.\main.c      ****     /* Start all components used on schematic */
  41:.\main.c      ****     ADC_DelSig_IRQ_Start();
  51              		.loc 1 41 0
  52 0004 FFF7FEFF 		bl	ADC_DelSig_IRQ_Start
  42:.\main.c      ****     ADC_DelSig_Start();
  53              		.loc 1 42 0
  54 0008 FFF7FEFF 		bl	ADC_DelSig_Start
  43:.\main.c      ****     ADC_DelSig_StartConvert();
  55              		.loc 1 43 0
  56 000c FFF7FEFF 		bl	ADC_DelSig_StartConvert
  44:.\main.c      ****     Filter_Start();
  57              		.loc 1 44 0
  58 0010 FFF7FEFF 		bl	Filter_Start
  45:.\main.c      ****     WaveDAC8_Start();
  59              		.loc 1 45 0
  60 0014 FFF7FEFF 		bl	WaveDAC8_Start
  46:.\main.c      ****     Opamp_1_Start();
  61              		.loc 1 46 0
  62 0018 FFF7FEFF 		bl	Opamp_1_Start
  47:.\main.c      ****     //isr_StartEx(isr);
  48:.\main.c      **** 
  49:.\main.c      **** 	// Enable the interrupt register bit to poll
  50:.\main.c      ****     // Value 1 for Channel A, Value 2 for Channel B
  51:.\main.c      ****     Filter_INT_CTRL_REG |= (1 << Filter_CHANNEL_A);
  63              		.loc 1 51 0
ARM GAS  C:\Users\VICTOR~1\AppData\Local\Temp\cc329r6Z.s 			page 3


  64 001c 4CF29873 		movw	r3, #51096
  65 0020 C4F20003 		movt	r3, 16384
  66 0024 4CF29872 		movw	r2, #51096
  67 0028 C4F20002 		movt	r2, 16384
  68 002c 1278     		ldrb	r2, [r2, #0]
  69 002e D2B2     		uxtb	r2, r2
  70 0030 42F00102 		orr	r2, r2, #1
  71 0034 D2B2     		uxtb	r2, r2
  72 0036 1A70     		strb	r2, [r3, #0]
  52:.\main.c      **** 	    
  53:.\main.c      ****      /* Local Variable to store active configuration number */
  54:.\main.c      ****      //uint8 AltSettingNumber = 0u;
  55:.\main.c      ****       
  56:.\main.c      ****      /* Enable global interrupts */
  57:.\main.c      ****      CYGlobalIntEnable;
  73              		.loc 1 57 0
  74              	@ 57 ".\main.c" 1
  75 0038 62B6     		CPSIE   i
  76              	@ 0 "" 2
  58:.\main.c      ****      
  59:.\main.c      ****      /* Start USBFS Component based on power settings in DWR (5V in this case) */
  60:.\main.c      ****      USBFS_Start(0, USBFS_DWR_VDDD_OPERATION);
  77              		.loc 1 60 0
  78              		.thumb
  79 003a 4FF00000 		mov	r0, #0
  80 003e 4FF00201 		mov	r1, #2
  81 0042 FFF7FEFF 		bl	USBFS_Start
  61:.\main.c      ****      
  62:.\main.c      ****      /* Wait until device address is assigned */
  63:.\main.c      ****      while(USBFS_deviceAddress == UnassignedAddress);
  82              		.loc 1 63 0
  83 0046 00BF     		nop
  84              	.L2:
  85              		.loc 1 63 0 is_stmt 0 discriminator 1
  86 0048 40F20003 		movw	r3, #:lower16:USBFS_deviceAddress
  87 004c C0F20003 		movt	r3, #:upper16:USBFS_deviceAddress
  88 0050 1B78     		ldrb	r3, [r3, #0]
  89 0052 DBB2     		uxtb	r3, r3
  90 0054 002B     		cmp	r3, #0
  91 0056 F7D0     		beq	.L2
  92 0058 00E0     		b	.L11
  93              	.L13:
  64:.\main.c      ****      for(;;)
  65:.\main.c      ****      {
  66:.\main.c      ****          /* Ensure USB device is fully enumerated prior to running code */
  67:.\main.c      ****          if(USBFS_GetConfiguration() != 0)
  68:.\main.c      ****          {
  69:.\main.c      ****          /* Check USB configuration has changed */
  70:.\main.c      ****              if(USBFS_IsConfigurationChanged() != ZeroBandwidthInterface)
  71:.\main.c      ****              {
  72:.\main.c      ****                  /* Get the active interface number and re-enable OUT EP based on Alternative Setti
  73:.\main.c      ****                  AltSettingNumber = USBFS_GetInterfaceSetting(0);
  74:.\main.c      ****                  if(AltSettingNumber == 0x01) USBFS_EnableOutEP(2);
  75:.\main.c      ****                  if(AltSettingNumber == 0x02) USBFS_EnableOutEP(4);
  76:.\main.c      ****                  if(AltSettingNumber == 0x03) USBFS_EnableOutEP(6);
  77:.\main.c      ****              }
  78:.\main.c      ****              /* Check the Alternative Setting variable to see which endpoint buffers to read and lo
ARM GAS  C:\Users\VICTOR~1\AppData\Local\Temp\cc329r6Z.s 			page 4


  79:.\main.c      ****          switch(AltSettingNumber)
  80:.\main.c      ****          {
  81:.\main.c      ****              /* Check if Interrupt Configuration is Active */
  82:.\main.c      ****              case 0x01:Interrupt_Transfer();
  83:.\main.c      ****              break;
  84:.\main.c      ****              /* Check if Bulk Configuration is Active */
  85:.\main.c      ****              case 0x02:Bulk_Transfer();
  86:.\main.c      ****              break;
  87:.\main.c      ****              /* Check if Isochronous Configuration is Active */
  88:.\main.c      ****              case 0x03:Isochronous_Transfer();
  89:.\main.c      ****              break;
  90:.\main.c      ****              /* Should Never Get Here */
  91:.\main.c      ****              default: break;
  92:.\main.c      ****             }
  93:.\main.c      ****         }
  94:.\main.c      ****     }  
  94              		.loc 1 94 0 is_stmt 1
  95 005a 00BF     		nop
  96              	.L11:
  67:.\main.c      ****          if(USBFS_GetConfiguration() != 0)
  97              		.loc 1 67 0
  98 005c FFF7FEFF 		bl	USBFS_GetConfiguration
  99 0060 0346     		mov	r3, r0
 100 0062 002B     		cmp	r3, #0
 101 0064 F9D0     		beq	.L13
  70:.\main.c      ****              if(USBFS_IsConfigurationChanged() != ZeroBandwidthInterface)
 102              		.loc 1 70 0
 103 0066 FFF7FEFF 		bl	USBFS_IsConfigurationChanged
 104 006a 0346     		mov	r3, r0
 105 006c 002B     		cmp	r3, #0
 106 006e 2BD0     		beq	.L4
  73:.\main.c      ****                  AltSettingNumber = USBFS_GetInterfaceSetting(0);
 107              		.loc 1 73 0
 108 0070 4FF00000 		mov	r0, #0
 109 0074 FFF7FEFF 		bl	USBFS_GetInterfaceSetting
 110 0078 0346     		mov	r3, r0
 111 007a 1A46     		mov	r2, r3
 112 007c 40F20003 		movw	r3, #:lower16:AltSettingNumber
 113 0080 C0F20003 		movt	r3, #:upper16:AltSettingNumber
 114 0084 1A70     		strb	r2, [r3, #0]
  74:.\main.c      ****                  if(AltSettingNumber == 0x01) USBFS_EnableOutEP(2);
 115              		.loc 1 74 0
 116 0086 40F20003 		movw	r3, #:lower16:AltSettingNumber
 117 008a C0F20003 		movt	r3, #:upper16:AltSettingNumber
 118 008e 1B78     		ldrb	r3, [r3, #0]	@ zero_extendqisi2
 119 0090 012B     		cmp	r3, #1
 120 0092 03D1     		bne	.L5
  74:.\main.c      ****                  if(AltSettingNumber == 0x01) USBFS_EnableOutEP(2);
 121              		.loc 1 74 0 is_stmt 0 discriminator 1
 122 0094 4FF00200 		mov	r0, #2
 123 0098 FFF7FEFF 		bl	USBFS_EnableOutEP
 124              	.L5:
  75:.\main.c      ****                  if(AltSettingNumber == 0x02) USBFS_EnableOutEP(4);
 125              		.loc 1 75 0 is_stmt 1
 126 009c 40F20003 		movw	r3, #:lower16:AltSettingNumber
 127 00a0 C0F20003 		movt	r3, #:upper16:AltSettingNumber
 128 00a4 1B78     		ldrb	r3, [r3, #0]	@ zero_extendqisi2
ARM GAS  C:\Users\VICTOR~1\AppData\Local\Temp\cc329r6Z.s 			page 5


 129 00a6 022B     		cmp	r3, #2
 130 00a8 03D1     		bne	.L6
  75:.\main.c      ****                  if(AltSettingNumber == 0x02) USBFS_EnableOutEP(4);
 131              		.loc 1 75 0 is_stmt 0 discriminator 1
 132 00aa 4FF00400 		mov	r0, #4
 133 00ae FFF7FEFF 		bl	USBFS_EnableOutEP
 134              	.L6:
  76:.\main.c      ****                  if(AltSettingNumber == 0x03) USBFS_EnableOutEP(6);
 135              		.loc 1 76 0 is_stmt 1
 136 00b2 40F20003 		movw	r3, #:lower16:AltSettingNumber
 137 00b6 C0F20003 		movt	r3, #:upper16:AltSettingNumber
 138 00ba 1B78     		ldrb	r3, [r3, #0]	@ zero_extendqisi2
 139 00bc 032B     		cmp	r3, #3
 140 00be 03D1     		bne	.L4
  76:.\main.c      ****                  if(AltSettingNumber == 0x03) USBFS_EnableOutEP(6);
 141              		.loc 1 76 0 is_stmt 0 discriminator 1
 142 00c0 4FF00600 		mov	r0, #6
 143 00c4 FFF7FEFF 		bl	USBFS_EnableOutEP
 144              	.L4:
  79:.\main.c      ****          switch(AltSettingNumber)
 145              		.loc 1 79 0 is_stmt 1
 146 00c8 40F20003 		movw	r3, #:lower16:AltSettingNumber
 147 00cc C0F20003 		movt	r3, #:upper16:AltSettingNumber
 148 00d0 1B78     		ldrb	r3, [r3, #0]	@ zero_extendqisi2
 149 00d2 022B     		cmp	r3, #2
 150 00d4 06D0     		beq	.L9
 151 00d6 032B     		cmp	r3, #3
 152 00d8 07D0     		beq	.L10
 153 00da 012B     		cmp	r3, #1
 154 00dc 08D1     		bne	.L12
 155              	.L8:
  82:.\main.c      ****              case 0x01:Interrupt_Transfer();
 156              		.loc 1 82 0
 157 00de FFF7FEFF 		bl	Interrupt_Transfer
  83:.\main.c      ****              break;
 158              		.loc 1 83 0
 159 00e2 06E0     		b	.L3
 160              	.L9:
  85:.\main.c      ****              case 0x02:Bulk_Transfer();
 161              		.loc 1 85 0
 162 00e4 FFF7FEFF 		bl	Bulk_Transfer
  86:.\main.c      ****              break;
 163              		.loc 1 86 0
 164 00e8 03E0     		b	.L3
 165              	.L10:
  88:.\main.c      ****              case 0x03:Isochronous_Transfer();
 166              		.loc 1 88 0
 167 00ea FFF7FEFF 		bl	Isochronous_Transfer
  89:.\main.c      ****              break;
 168              		.loc 1 89 0
 169 00ee 00E0     		b	.L3
 170              	.L12:
  91:.\main.c      ****              default: break;
 171              		.loc 1 91 0
 172 00f0 00BF     		nop
 173              	.L3:
 174              		.loc 1 94 0
ARM GAS  C:\Users\VICTOR~1\AppData\Local\Temp\cc329r6Z.s 			page 6


 175 00f2 B2E7     		b	.L13
 176              		.cfi_endproc
 177              	.LFE56:
 178              		.size	main, .-main
 179              		.section	.text.Interrupt_Transfer,"ax",%progbits
 180              		.align	2
 181              		.global	Interrupt_Transfer
 182              		.thumb
 183              		.thumb_func
 184              		.type	Interrupt_Transfer, %function
 185              	Interrupt_Transfer:
 186              	.LFB57:
  95:.\main.c      ****  return(0);
  96:.\main.c      **** 
  97:.\main.c      ****     
  98:.\main.c      **** }
  99:.\main.c      **** 
 100:.\main.c      **** /* Transfer data from ADC - Is a bulk transfer actually, change name some time in teh future */
 101:.\main.c      **** void Interrupt_Transfer (void)
 102:.\main.c      **** {
 187              		.loc 1 102 0
 188              		.cfi_startproc
 189              		@ args = 0, pretend = 0, frame = 8
 190              		@ frame_needed = 1, uses_anonymous_args = 0
 191 0000 80B5     		push	{r7, lr}
 192              	.LCFI2:
 193              		.cfi_def_cfa_offset 8
 194              		.cfi_offset 7, -8
 195              		.cfi_offset 14, -4
 196 0002 82B0     		sub	sp, sp, #8
 197              	.LCFI3:
 198              		.cfi_def_cfa_offset 16
 199 0004 00AF     		add	r7, sp, #0
 200              	.LCFI4:
 201              		.cfi_def_cfa_register 7
 103:.\main.c      ****     /* Check to see if OUT Endpoint has data. If so, read EP2 buffer and load back into EP1 for loo
 104:.\main.c      ****     if(USBFS_GetEPState(EP2) == USBFS_OUT_BUFFER_FULL)    
 202              		.loc 1 104 0
 203 0006 4FF00200 		mov	r0, #2
 204 000a FFF7FEFF 		bl	USBFS_GetEPState
 205 000e 0346     		mov	r3, r0
 206 0010 012B     		cmp	r3, #1
 207 0012 44D1     		bne	.L14
 208              	.LBB2:
 105:.\main.c      ****     {
 106:.\main.c      ****         /* Determine the number of bytes received */
 107:.\main.c      ****         EP2_Count = USBFS_GetEPCount(EP2);
 209              		.loc 1 107 0
 210 0014 4FF00200 		mov	r0, #2
 211 0018 FFF7FEFF 		bl	USBFS_GetEPCount
 212 001c 0346     		mov	r3, r0
 213 001e DAB2     		uxtb	r2, r3
 214 0020 40F20003 		movw	r3, #:lower16:EP2_Count
 215 0024 C0F20003 		movt	r3, #:upper16:EP2_Count
 216 0028 1A70     		strb	r2, [r3, #0]
 108:.\main.c      ****         /* Read data from OUT endpoint and store in Interrupt_OUT_Buffer */
 109:.\main.c      ****         USBFS_ReadOutEP(EP2, Interrupt_OUT_Buffer, EP2_Count);
ARM GAS  C:\Users\VICTOR~1\AppData\Local\Temp\cc329r6Z.s 			page 7


 217              		.loc 1 109 0
 218 002a 40F20003 		movw	r3, #:lower16:EP2_Count
 219 002e C0F20003 		movt	r3, #:upper16:EP2_Count
 220 0032 1B78     		ldrb	r3, [r3, #0]	@ zero_extendqisi2
 221 0034 4FF00200 		mov	r0, #2
 222 0038 40F20001 		movw	r1, #:lower16:Interrupt_OUT_Buffer
 223 003c C0F20001 		movt	r1, #:upper16:Interrupt_OUT_Buffer
 224 0040 1A46     		mov	r2, r3
 225 0042 FFF7FEFF 		bl	USBFS_ReadOutEP
 110:.\main.c      ****         /* Send data from the ADC */
 111:.\main.c      ****         // Fill in the buffer
 112:.\main.c      ****         int i;
 113:.\main.c      ****         /* Remove the code in the interrupt routine because the ADC_GetResult 
 114:.\main.c      ****            makes ADC_IsEndConversion useless. Will not work if this is not done */
 115:.\main.c      ****         for(i=0;i<8;i++){
 226              		.loc 1 115 0
 227 0046 4FF00003 		mov	r3, #0
 228 004a 7B60     		str	r3, [r7, #4]
 229 004c 16E0     		b	.L16
 230              	.L19:
 116:.\main.c      ****         while(ADC_DelSig_IsEndConversion(ADC_DelSig_WAIT_FOR_RESULT)==0);
 231              		.loc 1 116 0
 232 004e 00BF     		nop
 233              	.L17:
 234              		.loc 1 116 0 is_stmt 0 discriminator 1
 235 0050 4FF00000 		mov	r0, #0
 236 0054 FFF7FEFF 		bl	ADC_DelSig_IsEndConversion
 237 0058 0346     		mov	r3, r0
 238 005a 002B     		cmp	r3, #0
 239 005c F8D0     		beq	.L17
 117:.\main.c      ****         Interrupt_OUT_Buffer[i] = ADC_DelSig_GetResult8();
 240              		.loc 1 117 0 is_stmt 1
 241 005e FFF7FEFF 		bl	ADC_DelSig_GetResult8
 242 0062 0346     		mov	r3, r0
 243 0064 DAB2     		uxtb	r2, r3
 244 0066 40F20003 		movw	r3, #:lower16:Interrupt_OUT_Buffer
 245 006a C0F20003 		movt	r3, #:upper16:Interrupt_OUT_Buffer
 246 006e 7968     		ldr	r1, [r7, #4]
 247 0070 5B18     		adds	r3, r3, r1
 248 0072 1A70     		strb	r2, [r3, #0]
 115:.\main.c      ****         for(i=0;i<8;i++){
 249              		.loc 1 115 0
 250 0074 7B68     		ldr	r3, [r7, #4]
 251 0076 03F10103 		add	r3, r3, #1
 252 007a 7B60     		str	r3, [r7, #4]
 253              	.L16:
 115:.\main.c      ****         for(i=0;i<8;i++){
 254              		.loc 1 115 0 is_stmt 0 discriminator 1
 255 007c 7B68     		ldr	r3, [r7, #4]
 256 007e 072B     		cmp	r3, #7
 257 0080 E5DD     		ble	.L19
 118:.\main.c      ****         
 119:.\main.c      ****         }
 120:.\main.c      ****         // Sends the buffer
 121:.\main.c      ****         USBFS_LoadInEP(EP1, Interrupt_OUT_Buffer, 8);
 258              		.loc 1 121 0 is_stmt 1
 259 0082 4FF00100 		mov	r0, #1
ARM GAS  C:\Users\VICTOR~1\AppData\Local\Temp\cc329r6Z.s 			page 8


 260 0086 40F20001 		movw	r1, #:lower16:Interrupt_OUT_Buffer
 261 008a C0F20001 		movt	r1, #:upper16:Interrupt_OUT_Buffer
 262 008e 4FF00802 		mov	r2, #8
 263 0092 FFF7FEFF 		bl	USBFS_LoadInEP
 122:.\main.c      ****         /* Re-arm the Out Endpoint */
 123:.\main.c      ****         USBFS_EnableOutEP(EP2);
 264              		.loc 1 123 0
 265 0096 4FF00200 		mov	r0, #2
 266 009a FFF7FEFF 		bl	USBFS_EnableOutEP
 267              	.L14:
 268              	.LBE2:
 124:.\main.c      ****     
 125:.\main.c      ****     }    
 126:.\main.c      ****     
 127:.\main.c      **** //    /* Check to see if OUT Endpoint has data. If so, read EP2 buffer and load back into EP1 for l
 128:.\main.c      **** // if(USBFS_GetEPState(EP2) == USBFS_OUT_BUFFER_FULL)
 129:.\main.c      **** // {
 130:.\main.c      **** //     /* Determine the number of bytes received */
 131:.\main.c      **** //     EP2_Count = USBFS_GetEPCount(EP2);
 132:.\main.c      **** //     /* Read data from OUT endpoint and store in Interrupt_OUT_Buffer */
 133:.\main.c      **** //     USBFS_ReadOutEP(EP2, Interrupt_OUT_Buffer, EP2_Count);
 134:.\main.c      **** //     /* Create loopback by reloading data received into IN endpoint */
 135:.\main.c      **** //     USBFS_LoadInEP(EP1, Interrupt_OUT_Buffer, 8);
 136:.\main.c      **** //     /* Re-arm the Out Endpoint */
 137:.\main.c      **** //     USBFS_EnableOutEP(EP2);
 138:.\main.c      **** // }
 139:.\main.c      **** }
 269              		.loc 1 139 0
 270 009e 07F10807 		add	r7, r7, #8
 271 00a2 BD46     		mov	sp, r7
 272 00a4 80BD     		pop	{r7, pc}
 273              		.cfi_endproc
 274              	.LFE57:
 275              		.size	Interrupt_Transfer, .-Interrupt_Transfer
 276 00a6 00BF     		.section	.text.Bulk_Transfer,"ax",%progbits
 277              		.align	2
 278              		.global	Bulk_Transfer
 279              		.thumb
 280              		.thumb_func
 281              		.type	Bulk_Transfer, %function
 282              	Bulk_Transfer:
 283              	.LFB58:
 140:.\main.c      **** 
 141:.\main.c      **** /* Transfer data from Filter */
 142:.\main.c      **** void Bulk_Transfer (void)
 143:.\main.c      **** {
 284              		.loc 1 143 0
 285              		.cfi_startproc
 286              		@ args = 0, pretend = 0, frame = 8
 287              		@ frame_needed = 1, uses_anonymous_args = 0
 288 0000 80B5     		push	{r7, lr}
 289              	.LCFI5:
 290              		.cfi_def_cfa_offset 8
 291              		.cfi_offset 7, -8
 292              		.cfi_offset 14, -4
 293 0002 82B0     		sub	sp, sp, #8
 294              	.LCFI6:
ARM GAS  C:\Users\VICTOR~1\AppData\Local\Temp\cc329r6Z.s 			page 9


 295              		.cfi_def_cfa_offset 16
 296 0004 00AF     		add	r7, sp, #0
 297              	.LCFI7:
 298              		.cfi_def_cfa_register 7
 144:.\main.c      ****     // Check if there is data available. If so, send some data into EP3
 145:.\main.c      ****     if( USBFS_bGetEPState(EP4) == USBFS_OUT_BUFFER_FULL)
 299              		.loc 1 145 0
 300 0006 4FF00400 		mov	r0, #4
 301 000a FFF7FEFF 		bl	USBFS_GetEPState
 302 000e 0346     		mov	r3, r0
 303 0010 012B     		cmp	r3, #1
 304 0012 49D1     		bne	.L20
 305              	.LBB3:
 146:.\main.c      ****     {
 147:.\main.c      ****     // Determine number of bytes received
 148:.\main.c      ****     EP4_Count = USBFS_wGetEPCount(EP4);
 306              		.loc 1 148 0
 307 0014 4FF00400 		mov	r0, #4
 308 0018 FFF7FEFF 		bl	USBFS_GetEPCount
 309 001c 0346     		mov	r3, r0
 310 001e DAB2     		uxtb	r2, r3
 311 0020 40F20003 		movw	r3, #:lower16:EP4_Count
 312 0024 C0F20003 		movt	r3, #:upper16:EP4_Count
 313 0028 1A70     		strb	r2, [r3, #0]
 149:.\main.c      ****     /* Read data from OUT endpoint and store in Bulk_OUT_Buffer */
 150:.\main.c      ****     USBFS_ReadOutEP(EP4, Bulk_OUT_Buffer, EP4_Count);
 314              		.loc 1 150 0
 315 002a 40F20003 		movw	r3, #:lower16:EP4_Count
 316 002e C0F20003 		movt	r3, #:upper16:EP4_Count
 317 0032 1B78     		ldrb	r3, [r3, #0]	@ zero_extendqisi2
 318 0034 4FF00400 		mov	r0, #4
 319 0038 40F20001 		movw	r1, #:lower16:Bulk_OUT_Buffer
 320 003c C0F20001 		movt	r1, #:upper16:Bulk_OUT_Buffer
 321 0040 1A46     		mov	r2, r3
 322 0042 FFF7FEFF 		bl	USBFS_ReadOutEP
 151:.\main.c      ****    
 152:.\main.c      ****     // Get data from the filter
 153:.\main.c      ****     int i ;
 154:.\main.c      ****     for(i = 0;i < 8;i++)
 323              		.loc 1 154 0
 324 0046 4FF00003 		mov	r3, #0
 325 004a 7B60     		str	r3, [r7, #4]
 326 004c 1BE0     		b	.L22
 327              	.L25:
 155:.\main.c      ****     {
 156:.\main.c      ****         while (Filter_IsInterruptChannelA() == 0) ; 
 328              		.loc 1 156 0
 329 004e 00BF     		nop
 330              	.L23:
 331              		.loc 1 156 0 is_stmt 0 discriminator 1
 332 0050 4CF28473 		movw	r3, #51076
 333 0054 C4F20003 		movt	r3, 16384
 334 0058 1B78     		ldrb	r3, [r3, #0]
 335 005a DBB2     		uxtb	r3, r3
 336 005c 03F00803 		and	r3, r3, #8
 337 0060 002B     		cmp	r3, #0
 338 0062 F5D0     		beq	.L23
ARM GAS  C:\Users\VICTOR~1\AppData\Local\Temp\cc329r6Z.s 			page 10


 157:.\main.c      ****         Bulk_OUT_Buffer[i] = Filter_Read8(Filter_CHANNEL_A);
 339              		.loc 1 157 0 is_stmt 1
 340 0064 4FF00000 		mov	r0, #0
 341 0068 FFF7FEFF 		bl	Filter_Read8
 342 006c 0346     		mov	r3, r0
 343 006e 1A46     		mov	r2, r3
 344 0070 40F20003 		movw	r3, #:lower16:Bulk_OUT_Buffer
 345 0074 C0F20003 		movt	r3, #:upper16:Bulk_OUT_Buffer
 346 0078 7968     		ldr	r1, [r7, #4]
 347 007a 5B18     		adds	r3, r3, r1
 348 007c 1A70     		strb	r2, [r3, #0]
 154:.\main.c      ****     for(i = 0;i < 8;i++)
 349              		.loc 1 154 0
 350 007e 7B68     		ldr	r3, [r7, #4]
 351 0080 03F10103 		add	r3, r3, #1
 352 0084 7B60     		str	r3, [r7, #4]
 353              	.L22:
 154:.\main.c      ****     for(i = 0;i < 8;i++)
 354              		.loc 1 154 0 is_stmt 0 discriminator 1
 355 0086 7B68     		ldr	r3, [r7, #4]
 356 0088 072B     		cmp	r3, #7
 357 008a E0DD     		ble	.L25
 158:.\main.c      ****     
 159:.\main.c      ****     }
 160:.\main.c      ****        
 161:.\main.c      ****     // Sends the buffer to client 
 162:.\main.c      ****     USBFS_LoadInEP(EP3, Bulk_OUT_Buffer, 8);
 358              		.loc 1 162 0 is_stmt 1
 359 008c 4FF00300 		mov	r0, #3
 360 0090 40F20001 		movw	r1, #:lower16:Bulk_OUT_Buffer
 361 0094 C0F20001 		movt	r1, #:upper16:Bulk_OUT_Buffer
 362 0098 4FF00802 		mov	r2, #8
 363 009c FFF7FEFF 		bl	USBFS_LoadInEP
 163:.\main.c      ****     /* Re-arm the OUT Endpoint */
 164:.\main.c      ****     USBFS_EnableOutEP(EP4);
 364              		.loc 1 164 0
 365 00a0 4FF00400 		mov	r0, #4
 366 00a4 FFF7FEFF 		bl	USBFS_EnableOutEP
 367              	.L20:
 368              	.LBE3:
 165:.\main.c      **** 
 166:.\main.c      ****     }
 167:.\main.c      ****     
 168:.\main.c      **** // /* Check to see if OUT Endpoint has data. If so, read EP4 buffer and load back into EP3 for loop
 169:.\main.c      **** // if(USBFS_bGetEPState(EP4) == USBFS_OUT_BUFFER_FULL)
 170:.\main.c      **** // {
 171:.\main.c      **** //     /* Determine the number of bytes received */
 172:.\main.c      **** //     EP4_Count = USBFS_wGetEPCount(EP4);
 173:.\main.c      **** //     /* Read data from OUT endpoint and store in Bulk_OUT_Buffer */
 174:.\main.c      **** //     USBFS_ReadOutEP(EP4, Bulk_OUT_Buffer, EP4_Count);
 175:.\main.c      **** //     /* Create loopback by reloading data received into IN endpoint */
 176:.\main.c      **** //     USBFS_LoadInEP(EP3, Bulk_OUT_Buffer, EP4_Count);
 177:.\main.c      **** //     /* Re-arm the OUT Endpoint */
 178:.\main.c      **** //     USBFS_EnableOutEP(EP4);
 179:.\main.c      **** // }
 180:.\main.c      **** }
 369              		.loc 1 180 0
ARM GAS  C:\Users\VICTOR~1\AppData\Local\Temp\cc329r6Z.s 			page 11


 370 00a8 07F10807 		add	r7, r7, #8
 371 00ac BD46     		mov	sp, r7
 372 00ae 80BD     		pop	{r7, pc}
 373              		.cfi_endproc
 374              	.LFE58:
 375              		.size	Bulk_Transfer, .-Bulk_Transfer
 376              		.section	.text.Isochronous_Transfer,"ax",%progbits
 377              		.align	2
 378              		.global	Isochronous_Transfer
 379              		.thumb
 380              		.thumb_func
 381              		.type	Isochronous_Transfer, %function
 382              	Isochronous_Transfer:
 383              	.LFB59:
 181:.\main.c      **** 
 182:.\main.c      **** void Isochronous_Transfer (void)
 183:.\main.c      **** {
 384              		.loc 1 183 0
 385              		.cfi_startproc
 386              		@ args = 0, pretend = 0, frame = 0
 387              		@ frame_needed = 1, uses_anonymous_args = 0
 388 0000 80B5     		push	{r7, lr}
 389              	.LCFI8:
 390              		.cfi_def_cfa_offset 8
 391              		.cfi_offset 7, -8
 392              		.cfi_offset 14, -4
 393 0002 00AF     		add	r7, sp, #0
 394              	.LCFI9:
 395              		.cfi_def_cfa_register 7
 184:.\main.c      ****  /* Check to see if OUT Endpoint has data. If so, read EP6 buffer and load back into EP5 for loopba
 185:.\main.c      ****  if(USBFS_bGetEPState(EP6) == USBFS_OUT_BUFFER_FULL)
 396              		.loc 1 185 0
 397 0004 4FF00600 		mov	r0, #6
 398 0008 FFF7FEFF 		bl	USBFS_GetEPState
 399 000c 0346     		mov	r3, r0
 400 000e 012B     		cmp	r3, #1
 401 0010 2AD1     		bne	.L26
 186:.\main.c      ****  {
 187:.\main.c      ****      /* Determine the number of bytes received */
 188:.\main.c      ****      EP6_Count = USBFS_wGetEPCount(EP6);
 402              		.loc 1 188 0
 403 0012 4FF00600 		mov	r0, #6
 404 0016 FFF7FEFF 		bl	USBFS_GetEPCount
 405 001a 0346     		mov	r3, r0
 406 001c DAB2     		uxtb	r2, r3
 407 001e 40F20003 		movw	r3, #:lower16:EP6_Count
 408 0022 C0F20003 		movt	r3, #:upper16:EP6_Count
 409 0026 1A70     		strb	r2, [r3, #0]
 189:.\main.c      ****      /* Read data from OUT endpoint and store in Isochronous_OUT_Buffer */
 190:.\main.c      ****      USBFS_ReadOutEP(EP6, Isochronous_OUT_Buffer, EP6_Count);
 410              		.loc 1 190 0
 411 0028 40F20003 		movw	r3, #:lower16:EP6_Count
 412 002c C0F20003 		movt	r3, #:upper16:EP6_Count
 413 0030 1B78     		ldrb	r3, [r3, #0]	@ zero_extendqisi2
 414 0032 4FF00600 		mov	r0, #6
 415 0036 40F20001 		movw	r1, #:lower16:Isochronous_OUT_Buffer
 416 003a C0F20001 		movt	r1, #:upper16:Isochronous_OUT_Buffer
ARM GAS  C:\Users\VICTOR~1\AppData\Local\Temp\cc329r6Z.s 			page 12


 417 003e 1A46     		mov	r2, r3
 418 0040 FFF7FEFF 		bl	USBFS_ReadOutEP
 191:.\main.c      ****       /* Create loopback by reloading data received into IN endpoint */
 192:.\main.c      ****      USBFS_LoadInEP(EP5, Isochronous_OUT_Buffer, EP6_Count);
 419              		.loc 1 192 0
 420 0044 40F20003 		movw	r3, #:lower16:EP6_Count
 421 0048 C0F20003 		movt	r3, #:upper16:EP6_Count
 422 004c 1B78     		ldrb	r3, [r3, #0]	@ zero_extendqisi2
 423 004e 4FF00500 		mov	r0, #5
 424 0052 40F20001 		movw	r1, #:lower16:Isochronous_OUT_Buffer
 425 0056 C0F20001 		movt	r1, #:upper16:Isochronous_OUT_Buffer
 426 005a 1A46     		mov	r2, r3
 427 005c FFF7FEFF 		bl	USBFS_LoadInEP
 193:.\main.c      ****      /* Re-arm the OUT Endpoint */
 194:.\main.c      ****      USBFS_EnableOutEP(EP6);
 428              		.loc 1 194 0
 429 0060 4FF00600 		mov	r0, #6
 430 0064 FFF7FEFF 		bl	USBFS_EnableOutEP
 431              	.L26:
 195:.\main.c      ****  }
 196:.\main.c      **** }...
 432              		.loc 1 196 0
 433 0068 80BD     		pop	{r7, pc}
 434              		.cfi_endproc
 435              	.LFE59:
 436              		.size	Isochronous_Transfer, .-Isochronous_Transfer
 437 006a 00BF     		.text
 438              	.Letext0:
 439              		.file 2 "c:\\program files (x86)\\cypress\\psoc creator\\3.0\\psoc creator\\import\\gnu_cs\\arm\\4
 440              		.file 3 "./Generated_Source/PSoC5/cytypes.h"
 441              		.file 4 "./Generated_Source/PSoC5/core_cm3.h"