ARM GAS  C:\Users\VICTOR~1\AppData\Local\Temp\ccn4KLip.s 			page 1


   1              		.syntax unified
   2              		.cpu cortex-m3
   3              		.fpu softvfp
   4              		.eabi_attribute 20, 1
   5              		.eabi_attribute 21, 1
   6              		.eabi_attribute 23, 3
   7              		.eabi_attribute 24, 1
   8              		.eabi_attribute 25, 1
   9              		.eabi_attribute 26, 1
  10              		.eabi_attribute 30, 6
  11              		.eabi_attribute 34, 1
  12              		.eabi_attribute 18, 4
  13              		.thumb
  14              		.file	"USBFS.c"
  15              		.text
  16              	.Ltext0:
  17              		.cfi_sections	.debug_frame
  18              		.global	USBFS_initVar
  19              		.bss
  20              		.type	USBFS_initVar, %object
  21              		.size	USBFS_initVar, 1
  22              	USBFS_initVar:
  23 0000 00       		.space	1
  24              		.section	.text.USBFS_Start,"ax",%progbits
  25              		.align	2
  26              		.global	USBFS_Start
  27              		.thumb
  28              		.thumb_func
  29              		.type	USBFS_Start, %function
  30              	USBFS_Start:
  31              	.LFB0:
  32              		.file 1 ".\\Generated_Source\\PSoC5\\USBFS.c"
   1:.\Generated_Source\PSoC5/USBFS.c **** /*******************************************************************************
   2:.\Generated_Source\PSoC5/USBFS.c **** * File Name: USBFS.c
   3:.\Generated_Source\PSoC5/USBFS.c **** * Version 2.70
   4:.\Generated_Source\PSoC5/USBFS.c **** *
   5:.\Generated_Source\PSoC5/USBFS.c **** * Description:
   6:.\Generated_Source\PSoC5/USBFS.c **** *  API for USBFS Component.
   7:.\Generated_Source\PSoC5/USBFS.c **** *
   8:.\Generated_Source\PSoC5/USBFS.c **** * Note:
   9:.\Generated_Source\PSoC5/USBFS.c **** *  Many of the functions use endpoint number.  RAM arrays are sized with 9
  10:.\Generated_Source\PSoC5/USBFS.c **** *  elements so they are indexed directly by epNumber.  The SIE and ARB
  11:.\Generated_Source\PSoC5/USBFS.c **** *  registers are indexed by variations of epNumber - 1.
  12:.\Generated_Source\PSoC5/USBFS.c **** *
  13:.\Generated_Source\PSoC5/USBFS.c **** ********************************************************************************
  14:.\Generated_Source\PSoC5/USBFS.c **** * Copyright 2008-2013, Cypress Semiconductor Corporation.  All rights reserved.
  15:.\Generated_Source\PSoC5/USBFS.c **** * You may use this file only in accordance with the license, terms, conditions,
  16:.\Generated_Source\PSoC5/USBFS.c **** * disclaimers, and limitations in the end user license agreement accompanying
  17:.\Generated_Source\PSoC5/USBFS.c **** * the software package with which this file was provided.
  18:.\Generated_Source\PSoC5/USBFS.c **** *******************************************************************************/
  19:.\Generated_Source\PSoC5/USBFS.c **** 
  20:.\Generated_Source\PSoC5/USBFS.c **** #include <CyDmac.h>
  21:.\Generated_Source\PSoC5/USBFS.c **** #include "USBFS.h"
  22:.\Generated_Source\PSoC5/USBFS.c **** #include "USBFS_pvt.h"
  23:.\Generated_Source\PSoC5/USBFS.c **** #include "USBFS_hid.h"
  24:.\Generated_Source\PSoC5/USBFS.c **** #if(USBFS_DMA1_REMOVE == 0u)
  25:.\Generated_Source\PSoC5/USBFS.c ****     #include "USBFS_ep1_dma.h"
ARM GAS  C:\Users\VICTOR~1\AppData\Local\Temp\ccn4KLip.s 			page 2


  26:.\Generated_Source\PSoC5/USBFS.c **** #endif   /*  USBFS_DMA1_REMOVE */
  27:.\Generated_Source\PSoC5/USBFS.c **** #if(USBFS_DMA2_REMOVE == 0u)
  28:.\Generated_Source\PSoC5/USBFS.c ****     #include "USBFS_ep2_dma.h"
  29:.\Generated_Source\PSoC5/USBFS.c **** #endif   /*  USBFS_DMA2_REMOVE */
  30:.\Generated_Source\PSoC5/USBFS.c **** #if(USBFS_DMA3_REMOVE == 0u)
  31:.\Generated_Source\PSoC5/USBFS.c ****     #include "USBFS_ep3_dma.h"
  32:.\Generated_Source\PSoC5/USBFS.c **** #endif   /*  USBFS_DMA3_REMOVE */
  33:.\Generated_Source\PSoC5/USBFS.c **** #if(USBFS_DMA4_REMOVE == 0u)
  34:.\Generated_Source\PSoC5/USBFS.c ****     #include "USBFS_ep4_dma.h"
  35:.\Generated_Source\PSoC5/USBFS.c **** #endif   /*  USBFS_DMA4_REMOVE */
  36:.\Generated_Source\PSoC5/USBFS.c **** #if(USBFS_DMA5_REMOVE == 0u)
  37:.\Generated_Source\PSoC5/USBFS.c ****     #include "USBFS_ep5_dma.h"
  38:.\Generated_Source\PSoC5/USBFS.c **** #endif   /*  USBFS_DMA5_REMOVE */
  39:.\Generated_Source\PSoC5/USBFS.c **** #if(USBFS_DMA6_REMOVE == 0u)
  40:.\Generated_Source\PSoC5/USBFS.c ****     #include "USBFS_ep6_dma.h"
  41:.\Generated_Source\PSoC5/USBFS.c **** #endif   /*  USBFS_DMA6_REMOVE */
  42:.\Generated_Source\PSoC5/USBFS.c **** #if(USBFS_DMA7_REMOVE == 0u)
  43:.\Generated_Source\PSoC5/USBFS.c ****     #include "USBFS_ep7_dma.h"
  44:.\Generated_Source\PSoC5/USBFS.c **** #endif   /*  USBFS_DMA7_REMOVE */
  45:.\Generated_Source\PSoC5/USBFS.c **** #if(USBFS_DMA8_REMOVE == 0u)
  46:.\Generated_Source\PSoC5/USBFS.c ****     #include "USBFS_ep8_dma.h"
  47:.\Generated_Source\PSoC5/USBFS.c **** #endif   /*  USBFS_DMA8_REMOVE */
  48:.\Generated_Source\PSoC5/USBFS.c **** #if((USBFS_EP_MM == USBFS__EP_DMAAUTO) && (USBFS_EP_DMA_AUTO_OPT == 0u))
  49:.\Generated_Source\PSoC5/USBFS.c ****     #include "USBFS_EP_DMA_Done_isr.h"
  50:.\Generated_Source\PSoC5/USBFS.c ****     #include "USBFS_EP8_DMA_Done_SR.h"
  51:.\Generated_Source\PSoC5/USBFS.c ****     #include "USBFS_EP17_DMA_Done_SR.h"
  52:.\Generated_Source\PSoC5/USBFS.c **** #endif /* ((USBFS_EP_MM == USBFS__EP_DMAAUTO) && (USBFS_EP_DMA_AUTO_OPT == 0u)) */
  53:.\Generated_Source\PSoC5/USBFS.c **** 
  54:.\Generated_Source\PSoC5/USBFS.c **** 
  55:.\Generated_Source\PSoC5/USBFS.c **** /***************************************
  56:.\Generated_Source\PSoC5/USBFS.c **** * Global data allocation
  57:.\Generated_Source\PSoC5/USBFS.c **** ***************************************/
  58:.\Generated_Source\PSoC5/USBFS.c **** 
  59:.\Generated_Source\PSoC5/USBFS.c **** uint8 USBFS_initVar = 0u;
  60:.\Generated_Source\PSoC5/USBFS.c **** #if(USBFS_EP_MM != USBFS__EP_MANUAL)
  61:.\Generated_Source\PSoC5/USBFS.c ****     uint8 USBFS_DmaChan[USBFS_MAX_EP];
  62:.\Generated_Source\PSoC5/USBFS.c ****     uint8 USBFS_DmaTd[USBFS_MAX_EP];
  63:.\Generated_Source\PSoC5/USBFS.c **** #endif /*  USBFS_EP_MM */
  64:.\Generated_Source\PSoC5/USBFS.c **** #if((USBFS_EP_MM == USBFS__EP_DMAAUTO) && (USBFS_EP_DMA_AUTO_OPT == 0u))
  65:.\Generated_Source\PSoC5/USBFS.c ****     static uint8 clearInDataRdyStatus = USBFS_ARB_EPX_CFG_DEFAULT;
  66:.\Generated_Source\PSoC5/USBFS.c ****     uint8 USBFS_DmaNextTd[USBFS_MAX_EP];
  67:.\Generated_Source\PSoC5/USBFS.c ****     const uint8 USBFS_epX_TD_TERMOUT_EN[USBFS_MAX_EP] =
  68:.\Generated_Source\PSoC5/USBFS.c ****     {   0u,
  69:.\Generated_Source\PSoC5/USBFS.c ****         USBFS_ep1_TD_TERMOUT_EN,
  70:.\Generated_Source\PSoC5/USBFS.c ****         USBFS_ep2_TD_TERMOUT_EN,
  71:.\Generated_Source\PSoC5/USBFS.c ****         USBFS_ep3_TD_TERMOUT_EN,
  72:.\Generated_Source\PSoC5/USBFS.c ****         USBFS_ep4_TD_TERMOUT_EN,
  73:.\Generated_Source\PSoC5/USBFS.c ****         USBFS_ep5_TD_TERMOUT_EN,
  74:.\Generated_Source\PSoC5/USBFS.c ****         USBFS_ep6_TD_TERMOUT_EN,
  75:.\Generated_Source\PSoC5/USBFS.c ****         USBFS_ep7_TD_TERMOUT_EN,
  76:.\Generated_Source\PSoC5/USBFS.c ****         USBFS_ep8_TD_TERMOUT_EN
  77:.\Generated_Source\PSoC5/USBFS.c ****     };
  78:.\Generated_Source\PSoC5/USBFS.c ****     volatile uint16 USBFS_inLength[USBFS_MAX_EP];
  79:.\Generated_Source\PSoC5/USBFS.c ****     const uint8 *USBFS_inDataPointer[USBFS_MAX_EP];
  80:.\Generated_Source\PSoC5/USBFS.c ****     volatile uint8 USBFS_inBufFull[USBFS_MAX_EP];
  81:.\Generated_Source\PSoC5/USBFS.c **** #endif /* ((USBFS_EP_MM == USBFS__EP_DMAAUTO) && (USBFS_EP_DMA_AUTO_OPT == 0u)) */
  82:.\Generated_Source\PSoC5/USBFS.c **** 
ARM GAS  C:\Users\VICTOR~1\AppData\Local\Temp\ccn4KLip.s 			page 3


  83:.\Generated_Source\PSoC5/USBFS.c **** 
  84:.\Generated_Source\PSoC5/USBFS.c **** /*******************************************************************************
  85:.\Generated_Source\PSoC5/USBFS.c **** * Function Name: USBFS_Start
  86:.\Generated_Source\PSoC5/USBFS.c **** ********************************************************************************
  87:.\Generated_Source\PSoC5/USBFS.c **** *
  88:.\Generated_Source\PSoC5/USBFS.c **** * Summary:
  89:.\Generated_Source\PSoC5/USBFS.c **** *  This function initialize the USB SIE, arbiter and the
  90:.\Generated_Source\PSoC5/USBFS.c **** *  endpoint APIs, including setting the D+ Pullup
  91:.\Generated_Source\PSoC5/USBFS.c **** *
  92:.\Generated_Source\PSoC5/USBFS.c **** * Parameters:
  93:.\Generated_Source\PSoC5/USBFS.c **** *  device: Contains the device number of the desired device descriptor.
  94:.\Generated_Source\PSoC5/USBFS.c **** *          The device number can be found in the Device Descriptor Tab of
  95:.\Generated_Source\PSoC5/USBFS.c **** *          "Configure" dialog, under the settings of desired Device Descriptor,
  96:.\Generated_Source\PSoC5/USBFS.c **** *          in the "Device Number" field.
  97:.\Generated_Source\PSoC5/USBFS.c **** *  mode: The operating voltage. This determines whether the voltage regulator
  98:.\Generated_Source\PSoC5/USBFS.c **** *        is enabled for 5V operation or if pass through mode is used for 3.3V
  99:.\Generated_Source\PSoC5/USBFS.c **** *        operation. Symbolic names and their associated values are given in the
 100:.\Generated_Source\PSoC5/USBFS.c **** *        following table.
 101:.\Generated_Source\PSoC5/USBFS.c **** *       USBFS_3V_OPERATION - Disable voltage regulator and pass-thru
 102:.\Generated_Source\PSoC5/USBFS.c **** *                                       Vcc for pull-up
 103:.\Generated_Source\PSoC5/USBFS.c **** *       USBFS_5V_OPERATION - Enable voltage regulator and use
 104:.\Generated_Source\PSoC5/USBFS.c **** *                                       regulator for pull-up
 105:.\Generated_Source\PSoC5/USBFS.c **** *       USBFS_DWR_VDDD_OPERATION - Enable or Disable voltage
 106:.\Generated_Source\PSoC5/USBFS.c **** *                         regulator depend on Vddd Voltage configuration in DWR.
 107:.\Generated_Source\PSoC5/USBFS.c **** *
 108:.\Generated_Source\PSoC5/USBFS.c **** * Return:
 109:.\Generated_Source\PSoC5/USBFS.c **** *   None.
 110:.\Generated_Source\PSoC5/USBFS.c **** *
 111:.\Generated_Source\PSoC5/USBFS.c **** * Global variables:
 112:.\Generated_Source\PSoC5/USBFS.c **** *  The USBFS_intiVar variable is used to indicate initial
 113:.\Generated_Source\PSoC5/USBFS.c **** *  configuration of this component. The variable is initialized to zero (0u)
 114:.\Generated_Source\PSoC5/USBFS.c **** *  and set to one (1u) the first time USBFS_Start() is called.
 115:.\Generated_Source\PSoC5/USBFS.c **** *  This allows for component Re-Start without unnecessary re-initialization
 116:.\Generated_Source\PSoC5/USBFS.c **** *  in all subsequent calls to the USBFS_Start() routine.
 117:.\Generated_Source\PSoC5/USBFS.c **** *  If re-initialization of the component is required the variable should be set
 118:.\Generated_Source\PSoC5/USBFS.c **** *  to zero before call of UART_Start() routine, or the user may call
 119:.\Generated_Source\PSoC5/USBFS.c **** *  USBFS_Init() and USBFS_InitComponent() as done
 120:.\Generated_Source\PSoC5/USBFS.c **** *  in the USBFS_Start() routine.
 121:.\Generated_Source\PSoC5/USBFS.c **** *
 122:.\Generated_Source\PSoC5/USBFS.c **** * Side Effects:
 123:.\Generated_Source\PSoC5/USBFS.c **** *   This function will reset all communication states to default.
 124:.\Generated_Source\PSoC5/USBFS.c **** *
 125:.\Generated_Source\PSoC5/USBFS.c **** * Reentrant:
 126:.\Generated_Source\PSoC5/USBFS.c **** *  No.
 127:.\Generated_Source\PSoC5/USBFS.c **** *
 128:.\Generated_Source\PSoC5/USBFS.c **** *******************************************************************************/
 129:.\Generated_Source\PSoC5/USBFS.c **** void USBFS_Start(uint8 device, uint8 mode) 
 130:.\Generated_Source\PSoC5/USBFS.c **** {
  33              		.loc 1 130 0
  34              		.cfi_startproc
  35              		@ args = 0, pretend = 0, frame = 8
  36              		@ frame_needed = 1, uses_anonymous_args = 0
  37 0000 80B5     		push	{r7, lr}
  38              	.LCFI0:
  39              		.cfi_def_cfa_offset 8
  40              		.cfi_offset 7, -8
  41              		.cfi_offset 14, -4
ARM GAS  C:\Users\VICTOR~1\AppData\Local\Temp\ccn4KLip.s 			page 4


  42 0002 82B0     		sub	sp, sp, #8
  43              	.LCFI1:
  44              		.cfi_def_cfa_offset 16
  45 0004 00AF     		add	r7, sp, #0
  46              	.LCFI2:
  47              		.cfi_def_cfa_register 7
  48 0006 0246     		mov	r2, r0
  49 0008 0B46     		mov	r3, r1
  50 000a FA71     		strb	r2, [r7, #7]
  51 000c BB71     		strb	r3, [r7, #6]
 131:.\Generated_Source\PSoC5/USBFS.c ****     /* If not Initialized then initialize all required hardware and software */
 132:.\Generated_Source\PSoC5/USBFS.c ****     if(USBFS_initVar == 0u)
  52              		.loc 1 132 0
  53 000e 40F20003 		movw	r3, #:lower16:USBFS_initVar
  54 0012 C0F20003 		movt	r3, #:upper16:USBFS_initVar
  55 0016 1B78     		ldrb	r3, [r3, #0]	@ zero_extendqisi2
  56 0018 002B     		cmp	r3, #0
  57 001a 08D1     		bne	.L2
 133:.\Generated_Source\PSoC5/USBFS.c ****     {
 134:.\Generated_Source\PSoC5/USBFS.c ****         USBFS_Init();
  58              		.loc 1 134 0
  59 001c FFF7FEFF 		bl	USBFS_Init
 135:.\Generated_Source\PSoC5/USBFS.c ****         USBFS_initVar = 1u;
  60              		.loc 1 135 0
  61 0020 40F20003 		movw	r3, #:lower16:USBFS_initVar
  62 0024 C0F20003 		movt	r3, #:upper16:USBFS_initVar
  63 0028 4FF00102 		mov	r2, #1
  64 002c 1A70     		strb	r2, [r3, #0]
  65              	.L2:
 136:.\Generated_Source\PSoC5/USBFS.c ****     }
 137:.\Generated_Source\PSoC5/USBFS.c ****     USBFS_InitComponent(device, mode);
  66              		.loc 1 137 0
  67 002e FA79     		ldrb	r2, [r7, #7]	@ zero_extendqisi2
  68 0030 BB79     		ldrb	r3, [r7, #6]	@ zero_extendqisi2
  69 0032 1046     		mov	r0, r2
  70 0034 1946     		mov	r1, r3
  71 0036 FFF7FEFF 		bl	USBFS_InitComponent
 138:.\Generated_Source\PSoC5/USBFS.c **** }
  72              		.loc 1 138 0
  73 003a 07F10807 		add	r7, r7, #8
  74 003e BD46     		mov	sp, r7
  75 0040 80BD     		pop	{r7, pc}
  76              		.cfi_endproc
  77              	.LFE0:
  78              		.size	USBFS_Start, .-USBFS_Start
  79 0042 00BF     		.section	.text.USBFS_Init,"ax",%progbits
  80              		.align	2
  81              		.global	USBFS_Init
  82              		.thumb
  83              		.thumb_func
  84              		.type	USBFS_Init, %function
  85              	USBFS_Init:
  86              	.LFB1:
 139:.\Generated_Source\PSoC5/USBFS.c **** 
 140:.\Generated_Source\PSoC5/USBFS.c **** 
 141:.\Generated_Source\PSoC5/USBFS.c **** /*******************************************************************************
 142:.\Generated_Source\PSoC5/USBFS.c **** * Function Name: USBFS_Init
ARM GAS  C:\Users\VICTOR~1\AppData\Local\Temp\ccn4KLip.s 			page 5


 143:.\Generated_Source\PSoC5/USBFS.c **** ********************************************************************************
 144:.\Generated_Source\PSoC5/USBFS.c **** *
 145:.\Generated_Source\PSoC5/USBFS.c **** * Summary:
 146:.\Generated_Source\PSoC5/USBFS.c **** *  Initialize component's hardware. Usually called in USBFS_Start().
 147:.\Generated_Source\PSoC5/USBFS.c **** *
 148:.\Generated_Source\PSoC5/USBFS.c **** * Parameters:
 149:.\Generated_Source\PSoC5/USBFS.c **** *  None.
 150:.\Generated_Source\PSoC5/USBFS.c **** *
 151:.\Generated_Source\PSoC5/USBFS.c **** * Return:
 152:.\Generated_Source\PSoC5/USBFS.c **** *  None.
 153:.\Generated_Source\PSoC5/USBFS.c **** *
 154:.\Generated_Source\PSoC5/USBFS.c **** * Reentrant:
 155:.\Generated_Source\PSoC5/USBFS.c **** *  No.
 156:.\Generated_Source\PSoC5/USBFS.c **** *
 157:.\Generated_Source\PSoC5/USBFS.c **** *******************************************************************************/
 158:.\Generated_Source\PSoC5/USBFS.c **** void USBFS_Init(void) 
 159:.\Generated_Source\PSoC5/USBFS.c **** {
  87              		.loc 1 159 0
  88              		.cfi_startproc
  89              		@ args = 0, pretend = 0, frame = 8
  90              		@ frame_needed = 1, uses_anonymous_args = 0
  91 0000 80B5     		push	{r7, lr}
  92              	.LCFI3:
  93              		.cfi_def_cfa_offset 8
  94              		.cfi_offset 7, -8
  95              		.cfi_offset 14, -4
  96 0002 82B0     		sub	sp, sp, #8
  97              	.LCFI4:
  98              		.cfi_def_cfa_offset 16
  99 0004 00AF     		add	r7, sp, #0
 100              	.LCFI5:
 101              		.cfi_def_cfa_register 7
 160:.\Generated_Source\PSoC5/USBFS.c ****     uint8 enableInterrupts;
 161:.\Generated_Source\PSoC5/USBFS.c ****     #if(USBFS_EP_MM != USBFS__EP_MANUAL)
 162:.\Generated_Source\PSoC5/USBFS.c ****         uint16 i;
 163:.\Generated_Source\PSoC5/USBFS.c ****     #endif   /*  USBFS_EP_MM != USBFS__EP_MANUAL */
 164:.\Generated_Source\PSoC5/USBFS.c **** 
 165:.\Generated_Source\PSoC5/USBFS.c ****     enableInterrupts = CyEnterCriticalSection();
 102              		.loc 1 165 0
 103 0006 FFF7FEFF 		bl	CyEnterCriticalSection
 104 000a 0346     		mov	r3, r0
 105 000c FB71     		strb	r3, [r7, #7]
 166:.\Generated_Source\PSoC5/USBFS.c **** 
 167:.\Generated_Source\PSoC5/USBFS.c ****     /* Enable USB block  */
 168:.\Generated_Source\PSoC5/USBFS.c ****     USBFS_PM_ACT_CFG_REG |= USBFS_PM_ACT_EN_FSUSB;
 106              		.loc 1 168 0
 107 000e 44F2A533 		movw	r3, #17317
 108 0012 C4F20003 		movt	r3, 16384
 109 0016 44F2A532 		movw	r2, #17317
 110 001a C4F20002 		movt	r2, 16384
 111 001e 1278     		ldrb	r2, [r2, #0]
 112 0020 D2B2     		uxtb	r2, r2
 113 0022 42F00102 		orr	r2, r2, #1
 114 0026 D2B2     		uxtb	r2, r2
 115 0028 1A70     		strb	r2, [r3, #0]
 169:.\Generated_Source\PSoC5/USBFS.c ****     /* Enable USB block for Standby Power Mode */
 170:.\Generated_Source\PSoC5/USBFS.c ****     USBFS_PM_STBY_CFG_REG |= USBFS_PM_STBY_EN_FSUSB;
ARM GAS  C:\Users\VICTOR~1\AppData\Local\Temp\ccn4KLip.s 			page 6


 116              		.loc 1 170 0
 117 002a 44F2B533 		movw	r3, #17333
 118 002e C4F20003 		movt	r3, 16384
 119 0032 44F2B532 		movw	r2, #17333
 120 0036 C4F20002 		movt	r2, 16384
 121 003a 1278     		ldrb	r2, [r2, #0]
 122 003c D2B2     		uxtb	r2, r2
 123 003e 42F00102 		orr	r2, r2, #1
 124 0042 D2B2     		uxtb	r2, r2
 125 0044 1A70     		strb	r2, [r3, #0]
 171:.\Generated_Source\PSoC5/USBFS.c **** 
 172:.\Generated_Source\PSoC5/USBFS.c ****     /* Enable core clock */
 173:.\Generated_Source\PSoC5/USBFS.c ****     USBFS_USB_CLK_EN_REG = USBFS_USB_CLK_ENABLE;
 126              		.loc 1 173 0
 127 0046 46F29D03 		movw	r3, #24733
 128 004a C4F20003 		movt	r3, 16384
 129 004e 4FF00102 		mov	r2, #1
 130 0052 1A70     		strb	r2, [r3, #0]
 174:.\Generated_Source\PSoC5/USBFS.c **** 
 175:.\Generated_Source\PSoC5/USBFS.c ****     USBFS_CR1_REG = USBFS_CR1_ENABLE_LOCK;
 131              		.loc 1 175 0
 132 0054 46F20903 		movw	r3, #24585
 133 0058 C4F20003 		movt	r3, 16384
 134 005c 4FF00202 		mov	r2, #2
 135 0060 1A70     		strb	r2, [r3, #0]
 176:.\Generated_Source\PSoC5/USBFS.c **** 
 177:.\Generated_Source\PSoC5/USBFS.c ****     /* ENABLING USBIO PADS IN USB MODE FROM I/O MODE */
 178:.\Generated_Source\PSoC5/USBFS.c ****     /* Ensure USB transmit enable is low (USB_USBIO_CR0.ten). - Manual Transmission - Disabled */
 179:.\Generated_Source\PSoC5/USBFS.c ****     USBFS_USBIO_CR0_REG &= ((uint8)(~USBFS_USBIO_CR0_TEN));
 136              		.loc 1 179 0
 137 0062 46F21003 		movw	r3, #24592
 138 0066 C4F20003 		movt	r3, 16384
 139 006a 46F21002 		movw	r2, #24592
 140 006e C4F20002 		movt	r2, 16384
 141 0072 1278     		ldrb	r2, [r2, #0]
 142 0074 D2B2     		uxtb	r2, r2
 143 0076 02F07F02 		and	r2, r2, #127
 144 007a D2B2     		uxtb	r2, r2
 145 007c 1A70     		strb	r2, [r3, #0]
 180:.\Generated_Source\PSoC5/USBFS.c ****     CyDelayUs(0u);  /*~50ns delay */
 146              		.loc 1 180 0
 147 007e 4FF00000 		mov	r0, #0
 148 0082 FFF7FEFF 		bl	CyDelayUs
 181:.\Generated_Source\PSoC5/USBFS.c ****     /* Disable the USBIO by asserting PM.USB_CR0.fsusbio_pd_n(Inverted)
 182:.\Generated_Source\PSoC5/USBFS.c ****     *  high. This will have been set low by the power manger out of reset.
 183:.\Generated_Source\PSoC5/USBFS.c ****     *  Also confirm USBIO pull-up disabled
 184:.\Generated_Source\PSoC5/USBFS.c ****     */
 185:.\Generated_Source\PSoC5/USBFS.c ****     USBFS_PM_USB_CR0_REG &= ((uint8)(~(USBFS_PM_USB_CR0_PD_N |
 149              		.loc 1 185 0
 150 0086 44F29433 		movw	r3, #17300
 151 008a C4F20003 		movt	r3, 16384
 152 008e 44F29432 		movw	r2, #17300
 153 0092 C4F20002 		movt	r2, 16384
 154 0096 1278     		ldrb	r2, [r2, #0]
 155 0098 D2B2     		uxtb	r2, r2
 156 009a 22F00602 		bic	r2, r2, #6
 157 009e D2B2     		uxtb	r2, r2
ARM GAS  C:\Users\VICTOR~1\AppData\Local\Temp\ccn4KLip.s 			page 7


 158 00a0 1A70     		strb	r2, [r3, #0]
 186:.\Generated_Source\PSoC5/USBFS.c ****                                                   USBFS_PM_USB_CR0_PD_PULLUP_N)));
 187:.\Generated_Source\PSoC5/USBFS.c **** 
 188:.\Generated_Source\PSoC5/USBFS.c ****     /* Select iomode to USB mode*/
 189:.\Generated_Source\PSoC5/USBFS.c ****     USBFS_USBIO_CR1_REG &= ((uint8)(~USBFS_USBIO_CR1_IOMODE));
 159              		.loc 1 189 0
 160 00a2 46F21203 		movw	r3, #24594
 161 00a6 C4F20003 		movt	r3, 16384
 162 00aa 46F21202 		movw	r2, #24594
 163 00ae C4F20002 		movt	r2, 16384
 164 00b2 1278     		ldrb	r2, [r2, #0]
 165 00b4 D2B2     		uxtb	r2, r2
 166 00b6 22F02002 		bic	r2, r2, #32
 167 00ba D2B2     		uxtb	r2, r2
 168 00bc 1A70     		strb	r2, [r3, #0]
 190:.\Generated_Source\PSoC5/USBFS.c **** 
 191:.\Generated_Source\PSoC5/USBFS.c ****     /* Enable the USBIO reference by setting PM.USB_CR0.fsusbio_ref_en.*/
 192:.\Generated_Source\PSoC5/USBFS.c ****     USBFS_PM_USB_CR0_REG |= USBFS_PM_USB_CR0_REF_EN;
 169              		.loc 1 192 0
 170 00be 44F29433 		movw	r3, #17300
 171 00c2 C4F20003 		movt	r3, 16384
 172 00c6 44F29432 		movw	r2, #17300
 173 00ca C4F20002 		movt	r2, 16384
 174 00ce 1278     		ldrb	r2, [r2, #0]
 175 00d0 D2B2     		uxtb	r2, r2
 176 00d2 42F00102 		orr	r2, r2, #1
 177 00d6 D2B2     		uxtb	r2, r2
 178 00d8 1A70     		strb	r2, [r3, #0]
 193:.\Generated_Source\PSoC5/USBFS.c ****     /* The reference will be available 1 us after the regulator is enabled */
 194:.\Generated_Source\PSoC5/USBFS.c ****     CyDelayUs(1u);
 179              		.loc 1 194 0
 180 00da 4FF00100 		mov	r0, #1
 181 00de FFF7FEFF 		bl	CyDelayUs
 195:.\Generated_Source\PSoC5/USBFS.c ****     /* OR 40us after power restored */
 196:.\Generated_Source\PSoC5/USBFS.c ****     CyDelayUs(40u);
 182              		.loc 1 196 0
 183 00e2 4FF02800 		mov	r0, #40
 184 00e6 FFF7FEFF 		bl	CyDelayUs
 197:.\Generated_Source\PSoC5/USBFS.c ****     /* Ensure the single ended disable bits are low (PRT15.INP_DIS[7:6])(input receiver enabled). *
 198:.\Generated_Source\PSoC5/USBFS.c ****     USBFS_DM_INP_DIS_REG &= ((uint8)(~USBFS_DM_MASK));
 185              		.loc 1 198 0
 186 00ea 45F2F813 		movw	r3, #20984
 187 00ee C4F20003 		movt	r3, 16384
 188 00f2 45F2F812 		movw	r2, #20984
 189 00f6 C4F20002 		movt	r2, 16384
 190 00fa 1278     		ldrb	r2, [r2, #0]
 191 00fc D2B2     		uxtb	r2, r2
 192 00fe 02F07F02 		and	r2, r2, #127
 193 0102 D2B2     		uxtb	r2, r2
 194 0104 1A70     		strb	r2, [r3, #0]
 199:.\Generated_Source\PSoC5/USBFS.c ****     USBFS_DP_INP_DIS_REG &= ((uint8)(~USBFS_DP_MASK));
 195              		.loc 1 199 0
 196 0106 45F2F813 		movw	r3, #20984
 197 010a C4F20003 		movt	r3, 16384
 198 010e 45F2F812 		movw	r2, #20984
 199 0112 C4F20002 		movt	r2, 16384
 200 0116 1278     		ldrb	r2, [r2, #0]
ARM GAS  C:\Users\VICTOR~1\AppData\Local\Temp\ccn4KLip.s 			page 8


 201 0118 D2B2     		uxtb	r2, r2
 202 011a 22F04002 		bic	r2, r2, #64
 203 011e D2B2     		uxtb	r2, r2
 204 0120 1A70     		strb	r2, [r3, #0]
 200:.\Generated_Source\PSoC5/USBFS.c **** 
 201:.\Generated_Source\PSoC5/USBFS.c ****     /* Enable USBIO */
 202:.\Generated_Source\PSoC5/USBFS.c ****     USBFS_PM_USB_CR0_REG |= USBFS_PM_USB_CR0_PD_N;
 205              		.loc 1 202 0
 206 0122 44F29433 		movw	r3, #17300
 207 0126 C4F20003 		movt	r3, 16384
 208 012a 44F29432 		movw	r2, #17300
 209 012e C4F20002 		movt	r2, 16384
 210 0132 1278     		ldrb	r2, [r2, #0]
 211 0134 D2B2     		uxtb	r2, r2
 212 0136 42F00202 		orr	r2, r2, #2
 213 013a D2B2     		uxtb	r2, r2
 214 013c 1A70     		strb	r2, [r3, #0]
 203:.\Generated_Source\PSoC5/USBFS.c ****     CyDelayUs(2u);
 215              		.loc 1 203 0
 216 013e 4FF00200 		mov	r0, #2
 217 0142 FFF7FEFF 		bl	CyDelayUs
 204:.\Generated_Source\PSoC5/USBFS.c ****     /* Set the USBIO pull-up enable */
 205:.\Generated_Source\PSoC5/USBFS.c ****     USBFS_PM_USB_CR0_REG |= USBFS_PM_USB_CR0_PD_PULLUP_N;
 218              		.loc 1 205 0
 219 0146 44F29433 		movw	r3, #17300
 220 014a C4F20003 		movt	r3, 16384
 221 014e 44F29432 		movw	r2, #17300
 222 0152 C4F20002 		movt	r2, 16384
 223 0156 1278     		ldrb	r2, [r2, #0]
 224 0158 D2B2     		uxtb	r2, r2
 225 015a 42F00402 		orr	r2, r2, #4
 226 015e D2B2     		uxtb	r2, r2
 227 0160 1A70     		strb	r2, [r3, #0]
 206:.\Generated_Source\PSoC5/USBFS.c **** 
 207:.\Generated_Source\PSoC5/USBFS.c ****     /* Write WAx */
 208:.\Generated_Source\PSoC5/USBFS.c ****     CY_SET_REG8(USBFS_ARB_RW1_WA_PTR,     0u);
 228              		.loc 1 208 0
 229 0162 46F28403 		movw	r3, #24708
 230 0166 C4F20003 		movt	r3, 16384
 231 016a 4FF00002 		mov	r2, #0
 232 016e 1A70     		strb	r2, [r3, #0]
 209:.\Generated_Source\PSoC5/USBFS.c ****     CY_SET_REG8(USBFS_ARB_RW1_WA_MSB_PTR, 0u);
 233              		.loc 1 209 0
 234 0170 46F28503 		movw	r3, #24709
 235 0174 C4F20003 		movt	r3, 16384
 236 0178 4FF00002 		mov	r2, #0
 237 017c 1A70     		strb	r2, [r3, #0]
 210:.\Generated_Source\PSoC5/USBFS.c **** 
 211:.\Generated_Source\PSoC5/USBFS.c ****     #if(USBFS_EP_MM != USBFS__EP_MANUAL)
 212:.\Generated_Source\PSoC5/USBFS.c ****         /* Init transfer descriptor. This will be used to detect the DMA state - initialized or not
 213:.\Generated_Source\PSoC5/USBFS.c ****         for (i = 0u; i < USBFS_MAX_EP; i++)
 214:.\Generated_Source\PSoC5/USBFS.c ****         {
 215:.\Generated_Source\PSoC5/USBFS.c ****             USBFS_DmaTd[i] = DMA_INVALID_TD;
 216:.\Generated_Source\PSoC5/USBFS.c ****             #if ((USBFS_EP_MM == USBFS__EP_DMAAUTO) && (USBFS_EP_DMA_AUTO_OPT == 0u))
 217:.\Generated_Source\PSoC5/USBFS.c ****                 USBFS_DmaNextTd[i] = DMA_INVALID_TD;
 218:.\Generated_Source\PSoC5/USBFS.c ****             #endif /* ((USBFS_EP_MM == USBFS__EP_DMAAUTO) && (USBFS_EP_DMA_AUTO_OPT == 0u)) */
 219:.\Generated_Source\PSoC5/USBFS.c ****         }
ARM GAS  C:\Users\VICTOR~1\AppData\Local\Temp\ccn4KLip.s 			page 9


 220:.\Generated_Source\PSoC5/USBFS.c ****     #endif   /*  USBFS_EP_MM != USBFS__EP_MANUAL */
 221:.\Generated_Source\PSoC5/USBFS.c **** 
 222:.\Generated_Source\PSoC5/USBFS.c ****     CyExitCriticalSection(enableInterrupts);
 238              		.loc 1 222 0
 239 017e FB79     		ldrb	r3, [r7, #7]	@ zero_extendqisi2
 240 0180 1846     		mov	r0, r3
 241 0182 FFF7FEFF 		bl	CyExitCriticalSection
 223:.\Generated_Source\PSoC5/USBFS.c **** 
 224:.\Generated_Source\PSoC5/USBFS.c **** 
 225:.\Generated_Source\PSoC5/USBFS.c ****     /* Set the bus reset Interrupt. */
 226:.\Generated_Source\PSoC5/USBFS.c ****     (void) CyIntSetVector(USBFS_BUS_RESET_VECT_NUM,   &USBFS_BUS_RESET_ISR);
 242              		.loc 1 226 0
 243 0186 4FF01700 		mov	r0, #23
 244 018a 40F20001 		movw	r1, #:lower16:USBFS_BUS_RESET_ISR
 245 018e C0F20001 		movt	r1, #:upper16:USBFS_BUS_RESET_ISR
 246 0192 FFF7FEFF 		bl	CyIntSetVector
 227:.\Generated_Source\PSoC5/USBFS.c ****     CyIntSetPriority(USBFS_BUS_RESET_VECT_NUM, USBFS_BUS_RESET_PRIOR);
 247              		.loc 1 227 0
 248 0196 4FF01700 		mov	r0, #23
 249 019a 4FF00701 		mov	r1, #7
 250 019e FFF7FEFF 		bl	CyIntSetPriority
 228:.\Generated_Source\PSoC5/USBFS.c **** 
 229:.\Generated_Source\PSoC5/USBFS.c ****     /* Set the SOF Interrupt. */
 230:.\Generated_Source\PSoC5/USBFS.c ****     #if(USBFS_SOF_ISR_REMOVE == 0u)
 231:.\Generated_Source\PSoC5/USBFS.c ****         (void) CyIntSetVector(USBFS_SOF_VECT_NUM,   &USBFS_SOF_ISR);
 251              		.loc 1 231 0
 252 01a2 4FF01500 		mov	r0, #21
 253 01a6 40F20001 		movw	r1, #:lower16:USBFS_SOF_ISR
 254 01aa C0F20001 		movt	r1, #:upper16:USBFS_SOF_ISR
 255 01ae FFF7FEFF 		bl	CyIntSetVector
 232:.\Generated_Source\PSoC5/USBFS.c ****         CyIntSetPriority(USBFS_SOF_VECT_NUM, USBFS_SOF_PRIOR);
 256              		.loc 1 232 0
 257 01b2 4FF01500 		mov	r0, #21
 258 01b6 4FF00701 		mov	r1, #7
 259 01ba FFF7FEFF 		bl	CyIntSetPriority
 233:.\Generated_Source\PSoC5/USBFS.c ****     #endif   /*  USBFS_SOF_ISR_REMOVE */
 234:.\Generated_Source\PSoC5/USBFS.c **** 
 235:.\Generated_Source\PSoC5/USBFS.c ****     /* Set the Control Endpoint Interrupt. */
 236:.\Generated_Source\PSoC5/USBFS.c ****     (void) CyIntSetVector(USBFS_EP_0_VECT_NUM,   &USBFS_EP_0_ISR);
 260              		.loc 1 236 0
 261 01be 4FF01800 		mov	r0, #24
 262 01c2 40F20001 		movw	r1, #:lower16:USBFS_EP_0_ISR
 263 01c6 C0F20001 		movt	r1, #:upper16:USBFS_EP_0_ISR
 264 01ca FFF7FEFF 		bl	CyIntSetVector
 237:.\Generated_Source\PSoC5/USBFS.c ****     CyIntSetPriority(USBFS_EP_0_VECT_NUM, USBFS_EP_0_PRIOR);
 265              		.loc 1 237 0
 266 01ce 4FF01800 		mov	r0, #24
 267 01d2 4FF00701 		mov	r1, #7
 268 01d6 FFF7FEFF 		bl	CyIntSetPriority
 238:.\Generated_Source\PSoC5/USBFS.c **** 
 239:.\Generated_Source\PSoC5/USBFS.c ****     /* Set the Data Endpoint 1 Interrupt. */
 240:.\Generated_Source\PSoC5/USBFS.c ****     #if(USBFS_EP1_ISR_REMOVE == 0u)
 241:.\Generated_Source\PSoC5/USBFS.c ****         (void) CyIntSetVector(USBFS_EP_1_VECT_NUM,   &USBFS_EP_1_ISR);
 269              		.loc 1 241 0
 270 01da 4FF00000 		mov	r0, #0
 271 01de 40F20001 		movw	r1, #:lower16:USBFS_EP_1_ISR
 272 01e2 C0F20001 		movt	r1, #:upper16:USBFS_EP_1_ISR
ARM GAS  C:\Users\VICTOR~1\AppData\Local\Temp\ccn4KLip.s 			page 10


 273 01e6 FFF7FEFF 		bl	CyIntSetVector
 242:.\Generated_Source\PSoC5/USBFS.c ****         CyIntSetPriority(USBFS_EP_1_VECT_NUM, USBFS_EP_1_PRIOR);
 274              		.loc 1 242 0
 275 01ea 4FF00000 		mov	r0, #0
 276 01ee 4FF00701 		mov	r1, #7
 277 01f2 FFF7FEFF 		bl	CyIntSetPriority
 243:.\Generated_Source\PSoC5/USBFS.c ****     #endif   /*  USBFS_EP1_ISR_REMOVE */
 244:.\Generated_Source\PSoC5/USBFS.c **** 
 245:.\Generated_Source\PSoC5/USBFS.c ****     /* Set the Data Endpoint 2 Interrupt. */
 246:.\Generated_Source\PSoC5/USBFS.c ****     #if(USBFS_EP2_ISR_REMOVE == 0u)
 247:.\Generated_Source\PSoC5/USBFS.c ****         (void) CyIntSetVector(USBFS_EP_2_VECT_NUM,   &USBFS_EP_2_ISR);
 278              		.loc 1 247 0
 279 01f6 4FF00100 		mov	r0, #1
 280 01fa 40F20001 		movw	r1, #:lower16:USBFS_EP_2_ISR
 281 01fe C0F20001 		movt	r1, #:upper16:USBFS_EP_2_ISR
 282 0202 FFF7FEFF 		bl	CyIntSetVector
 248:.\Generated_Source\PSoC5/USBFS.c ****         CyIntSetPriority(USBFS_EP_2_VECT_NUM, USBFS_EP_2_PRIOR);
 283              		.loc 1 248 0
 284 0206 4FF00100 		mov	r0, #1
 285 020a 4FF00701 		mov	r1, #7
 286 020e FFF7FEFF 		bl	CyIntSetPriority
 249:.\Generated_Source\PSoC5/USBFS.c ****     #endif   /*  USBFS_EP2_ISR_REMOVE */
 250:.\Generated_Source\PSoC5/USBFS.c **** 
 251:.\Generated_Source\PSoC5/USBFS.c ****     /* Set the Data Endpoint 3 Interrupt. */
 252:.\Generated_Source\PSoC5/USBFS.c ****     #if(USBFS_EP3_ISR_REMOVE == 0u)
 253:.\Generated_Source\PSoC5/USBFS.c ****         (void) CyIntSetVector(USBFS_EP_3_VECT_NUM,   &USBFS_EP_3_ISR);
 287              		.loc 1 253 0
 288 0212 4FF00200 		mov	r0, #2
 289 0216 40F20001 		movw	r1, #:lower16:USBFS_EP_3_ISR
 290 021a C0F20001 		movt	r1, #:upper16:USBFS_EP_3_ISR
 291 021e FFF7FEFF 		bl	CyIntSetVector
 254:.\Generated_Source\PSoC5/USBFS.c ****         CyIntSetPriority(USBFS_EP_3_VECT_NUM, USBFS_EP_3_PRIOR);
 292              		.loc 1 254 0
 293 0222 4FF00200 		mov	r0, #2
 294 0226 4FF00701 		mov	r1, #7
 295 022a FFF7FEFF 		bl	CyIntSetPriority
 255:.\Generated_Source\PSoC5/USBFS.c ****     #endif   /*  USBFS_EP3_ISR_REMOVE */
 256:.\Generated_Source\PSoC5/USBFS.c **** 
 257:.\Generated_Source\PSoC5/USBFS.c ****     /* Set the Data Endpoint 4 Interrupt. */
 258:.\Generated_Source\PSoC5/USBFS.c ****     #if(USBFS_EP4_ISR_REMOVE == 0u)
 259:.\Generated_Source\PSoC5/USBFS.c ****         (void) CyIntSetVector(USBFS_EP_4_VECT_NUM,   &USBFS_EP_4_ISR);
 296              		.loc 1 259 0
 297 022e 4FF00300 		mov	r0, #3
 298 0232 40F20001 		movw	r1, #:lower16:USBFS_EP_4_ISR
 299 0236 C0F20001 		movt	r1, #:upper16:USBFS_EP_4_ISR
 300 023a FFF7FEFF 		bl	CyIntSetVector
 260:.\Generated_Source\PSoC5/USBFS.c ****         CyIntSetPriority(USBFS_EP_4_VECT_NUM, USBFS_EP_4_PRIOR);
 301              		.loc 1 260 0
 302 023e 4FF00300 		mov	r0, #3
 303 0242 4FF00701 		mov	r1, #7
 304 0246 FFF7FEFF 		bl	CyIntSetPriority
 261:.\Generated_Source\PSoC5/USBFS.c ****     #endif   /*  USBFS_EP4_ISR_REMOVE */
 262:.\Generated_Source\PSoC5/USBFS.c **** 
 263:.\Generated_Source\PSoC5/USBFS.c ****     /* Set the Data Endpoint 5 Interrupt. */
 264:.\Generated_Source\PSoC5/USBFS.c ****     #if(USBFS_EP5_ISR_REMOVE == 0u)
 265:.\Generated_Source\PSoC5/USBFS.c ****         (void) CyIntSetVector(USBFS_EP_5_VECT_NUM,   &USBFS_EP_5_ISR);
 305              		.loc 1 265 0
ARM GAS  C:\Users\VICTOR~1\AppData\Local\Temp\ccn4KLip.s 			page 11


 306 024a 4FF00400 		mov	r0, #4
 307 024e 40F20001 		movw	r1, #:lower16:USBFS_EP_5_ISR
 308 0252 C0F20001 		movt	r1, #:upper16:USBFS_EP_5_ISR
 309 0256 FFF7FEFF 		bl	CyIntSetVector
 266:.\Generated_Source\PSoC5/USBFS.c ****         CyIntSetPriority(USBFS_EP_5_VECT_NUM, USBFS_EP_5_PRIOR);
 310              		.loc 1 266 0
 311 025a 4FF00400 		mov	r0, #4
 312 025e 4FF00701 		mov	r1, #7
 313 0262 FFF7FEFF 		bl	CyIntSetPriority
 267:.\Generated_Source\PSoC5/USBFS.c ****     #endif   /*  USBFS_EP5_ISR_REMOVE */
 268:.\Generated_Source\PSoC5/USBFS.c **** 
 269:.\Generated_Source\PSoC5/USBFS.c ****     /* Set the Data Endpoint 6 Interrupt. */
 270:.\Generated_Source\PSoC5/USBFS.c ****     #if(USBFS_EP6_ISR_REMOVE == 0u)
 271:.\Generated_Source\PSoC5/USBFS.c ****         (void) CyIntSetVector(USBFS_EP_6_VECT_NUM,   &USBFS_EP_6_ISR);
 314              		.loc 1 271 0
 315 0266 4FF00500 		mov	r0, #5
 316 026a 40F20001 		movw	r1, #:lower16:USBFS_EP_6_ISR
 317 026e C0F20001 		movt	r1, #:upper16:USBFS_EP_6_ISR
 318 0272 FFF7FEFF 		bl	CyIntSetVector
 272:.\Generated_Source\PSoC5/USBFS.c ****         CyIntSetPriority(USBFS_EP_6_VECT_NUM, USBFS_EP_6_PRIOR);
 319              		.loc 1 272 0
 320 0276 4FF00500 		mov	r0, #5
 321 027a 4FF00701 		mov	r1, #7
 322 027e FFF7FEFF 		bl	CyIntSetPriority
 273:.\Generated_Source\PSoC5/USBFS.c ****     #endif   /*  USBFS_EP6_ISR_REMOVE */
 274:.\Generated_Source\PSoC5/USBFS.c **** 
 275:.\Generated_Source\PSoC5/USBFS.c ****      /* Set the Data Endpoint 7 Interrupt. */
 276:.\Generated_Source\PSoC5/USBFS.c ****     #if(USBFS_EP7_ISR_REMOVE == 0u)
 277:.\Generated_Source\PSoC5/USBFS.c ****         (void) CyIntSetVector(USBFS_EP_7_VECT_NUM,   &USBFS_EP_7_ISR);
 278:.\Generated_Source\PSoC5/USBFS.c ****         CyIntSetPriority(USBFS_EP_7_VECT_NUM, USBFS_EP_7_PRIOR);
 279:.\Generated_Source\PSoC5/USBFS.c ****     #endif   /*  USBFS_EP7_ISR_REMOVE */
 280:.\Generated_Source\PSoC5/USBFS.c **** 
 281:.\Generated_Source\PSoC5/USBFS.c ****     /* Set the Data Endpoint 8 Interrupt. */
 282:.\Generated_Source\PSoC5/USBFS.c ****     #if(USBFS_EP8_ISR_REMOVE == 0u)
 283:.\Generated_Source\PSoC5/USBFS.c ****         (void) CyIntSetVector(USBFS_EP_8_VECT_NUM,   &USBFS_EP_8_ISR);
 284:.\Generated_Source\PSoC5/USBFS.c ****         CyIntSetPriority(USBFS_EP_8_VECT_NUM, USBFS_EP_8_PRIOR);
 285:.\Generated_Source\PSoC5/USBFS.c ****     #endif   /*  USBFS_EP8_ISR_REMOVE */
 286:.\Generated_Source\PSoC5/USBFS.c **** 
 287:.\Generated_Source\PSoC5/USBFS.c ****     #if((USBFS_EP_MM != USBFS__EP_MANUAL) && (USBFS_ARB_ISR_REMOVE == 0u))
 288:.\Generated_Source\PSoC5/USBFS.c ****         /* Set the ARB Interrupt. */
 289:.\Generated_Source\PSoC5/USBFS.c ****         (void) CyIntSetVector(USBFS_ARB_VECT_NUM,   &USBFS_ARB_ISR);
 290:.\Generated_Source\PSoC5/USBFS.c ****         CyIntSetPriority(USBFS_ARB_VECT_NUM, USBFS_ARB_PRIOR);
 291:.\Generated_Source\PSoC5/USBFS.c ****     #endif   /*  USBFS_EP_MM != USBFS__EP_MANUAL */
 292:.\Generated_Source\PSoC5/USBFS.c **** 
 293:.\Generated_Source\PSoC5/USBFS.c **** }
 323              		.loc 1 293 0
 324 0282 07F10807 		add	r7, r7, #8
 325 0286 BD46     		mov	sp, r7
 326 0288 80BD     		pop	{r7, pc}
 327              		.cfi_endproc
 328              	.LFE1:
 329              		.size	USBFS_Init, .-USBFS_Init
 330 028a 00BF     		.section	.text.USBFS_InitComponent,"ax",%progbits
 331              		.align	2
 332              		.global	USBFS_InitComponent
 333              		.thumb
 334              		.thumb_func
ARM GAS  C:\Users\VICTOR~1\AppData\Local\Temp\ccn4KLip.s 			page 12


 335              		.type	USBFS_InitComponent, %function
 336              	USBFS_InitComponent:
 337              	.LFB2:
 294:.\Generated_Source\PSoC5/USBFS.c **** 
 295:.\Generated_Source\PSoC5/USBFS.c **** 
 296:.\Generated_Source\PSoC5/USBFS.c **** /*******************************************************************************
 297:.\Generated_Source\PSoC5/USBFS.c **** * Function Name: USBFS_InitComponent
 298:.\Generated_Source\PSoC5/USBFS.c **** ********************************************************************************
 299:.\Generated_Source\PSoC5/USBFS.c **** *
 300:.\Generated_Source\PSoC5/USBFS.c **** * Summary:
 301:.\Generated_Source\PSoC5/USBFS.c **** *  Initialize the component, except for the HW which is done one time in
 302:.\Generated_Source\PSoC5/USBFS.c **** *  the Start function.  This function pulls up D+.
 303:.\Generated_Source\PSoC5/USBFS.c **** *
 304:.\Generated_Source\PSoC5/USBFS.c **** * Parameters:
 305:.\Generated_Source\PSoC5/USBFS.c **** *  device: Contains the device number of the desired device descriptor.
 306:.\Generated_Source\PSoC5/USBFS.c **** *          The device number can be found in the Device Descriptor Tab of
 307:.\Generated_Source\PSoC5/USBFS.c **** *          "Configure" dialog, under the settings of desired Device Descriptor,
 308:.\Generated_Source\PSoC5/USBFS.c **** *          in the "Device Number" field.
 309:.\Generated_Source\PSoC5/USBFS.c **** *  mode: The operating voltage. This determines whether the voltage regulator
 310:.\Generated_Source\PSoC5/USBFS.c **** *        is enabled for 5V operation or if pass through mode is used for 3.3V
 311:.\Generated_Source\PSoC5/USBFS.c **** *        operation. Symbolic names and their associated values are given in the
 312:.\Generated_Source\PSoC5/USBFS.c **** *        following table.
 313:.\Generated_Source\PSoC5/USBFS.c **** *       USBFS_3V_OPERATION - Disable voltage regulator and pass-thru
 314:.\Generated_Source\PSoC5/USBFS.c **** *                                       Vcc for pull-up
 315:.\Generated_Source\PSoC5/USBFS.c **** *       USBFS_5V_OPERATION - Enable voltage regulator and use
 316:.\Generated_Source\PSoC5/USBFS.c **** *                                       regulator for pull-up
 317:.\Generated_Source\PSoC5/USBFS.c **** *       USBFS_DWR_VDDD_OPERATION - Enable or Disable voltage
 318:.\Generated_Source\PSoC5/USBFS.c **** *                         regulator depend on Vddd Voltage configuration in DWR.
 319:.\Generated_Source\PSoC5/USBFS.c **** *
 320:.\Generated_Source\PSoC5/USBFS.c **** * Return:
 321:.\Generated_Source\PSoC5/USBFS.c **** *   None.
 322:.\Generated_Source\PSoC5/USBFS.c **** *
 323:.\Generated_Source\PSoC5/USBFS.c **** * Global variables:
 324:.\Generated_Source\PSoC5/USBFS.c **** *   USBFS_device: Contains the device number of the desired device
 325:.\Generated_Source\PSoC5/USBFS.c **** *       descriptor. The device number can be found in the Device Descriptor Tab
 326:.\Generated_Source\PSoC5/USBFS.c **** *       of "Configure" dialog, under the settings of desired Device Descriptor,
 327:.\Generated_Source\PSoC5/USBFS.c **** *       in the "Device Number" field.
 328:.\Generated_Source\PSoC5/USBFS.c **** *   USBFS_transferState: This variable used by the communication
 329:.\Generated_Source\PSoC5/USBFS.c **** *       functions to handle current transfer state. Initialized to
 330:.\Generated_Source\PSoC5/USBFS.c **** *       TRANS_STATE_IDLE in this API.
 331:.\Generated_Source\PSoC5/USBFS.c **** *   USBFS_configuration: Contains current configuration number
 332:.\Generated_Source\PSoC5/USBFS.c **** *       which is set by the Host using SET_CONFIGURATION request.
 333:.\Generated_Source\PSoC5/USBFS.c **** *       Initialized to zero in this API.
 334:.\Generated_Source\PSoC5/USBFS.c **** *   USBFS_deviceAddress: Contains current device address. This
 335:.\Generated_Source\PSoC5/USBFS.c **** *       variable is initialized to zero in this API. Host starts to communicate
 336:.\Generated_Source\PSoC5/USBFS.c **** *      to device with address 0 and then set it to whatever value using
 337:.\Generated_Source\PSoC5/USBFS.c **** *      SET_ADDRESS request.
 338:.\Generated_Source\PSoC5/USBFS.c **** *   USBFS_deviceStatus: initialized to 0.
 339:.\Generated_Source\PSoC5/USBFS.c **** *       This is two bit variable which contain power status in first bit
 340:.\Generated_Source\PSoC5/USBFS.c **** *       (DEVICE_STATUS_BUS_POWERED or DEVICE_STATUS_SELF_POWERED) and remote
 341:.\Generated_Source\PSoC5/USBFS.c **** *       wakeup status (DEVICE_STATUS_REMOTE_WAKEUP) in second bit.
 342:.\Generated_Source\PSoC5/USBFS.c **** *   USBFS_lastPacketSize initialized to 0;
 343:.\Generated_Source\PSoC5/USBFS.c **** *
 344:.\Generated_Source\PSoC5/USBFS.c **** * Reentrant:
 345:.\Generated_Source\PSoC5/USBFS.c **** *  No.
 346:.\Generated_Source\PSoC5/USBFS.c **** *
 347:.\Generated_Source\PSoC5/USBFS.c **** *******************************************************************************/
ARM GAS  C:\Users\VICTOR~1\AppData\Local\Temp\ccn4KLip.s 			page 13


 348:.\Generated_Source\PSoC5/USBFS.c **** void USBFS_InitComponent(uint8 device, uint8 mode) 
 349:.\Generated_Source\PSoC5/USBFS.c **** {
 338              		.loc 1 349 0
 339              		.cfi_startproc
 340              		@ args = 0, pretend = 0, frame = 8
 341              		@ frame_needed = 1, uses_anonymous_args = 0
 342 0000 80B5     		push	{r7, lr}
 343              	.LCFI6:
 344              		.cfi_def_cfa_offset 8
 345              		.cfi_offset 7, -8
 346              		.cfi_offset 14, -4
 347 0002 82B0     		sub	sp, sp, #8
 348              	.LCFI7:
 349              		.cfi_def_cfa_offset 16
 350 0004 00AF     		add	r7, sp, #0
 351              	.LCFI8:
 352              		.cfi_def_cfa_register 7
 353 0006 0246     		mov	r2, r0
 354 0008 0B46     		mov	r3, r1
 355 000a FA71     		strb	r2, [r7, #7]
 356 000c BB71     		strb	r3, [r7, #6]
 350:.\Generated_Source\PSoC5/USBFS.c ****     /* Initialize _hidProtocol variable to comply with
 351:.\Generated_Source\PSoC5/USBFS.c ****     *  HID 7.2.6 Set_Protocol Request:
 352:.\Generated_Source\PSoC5/USBFS.c ****     *  "When initialized, all devices default to report protocol."
 353:.\Generated_Source\PSoC5/USBFS.c ****     */
 354:.\Generated_Source\PSoC5/USBFS.c ****     #if defined(USBFS_ENABLE_HID_CLASS)
 355:.\Generated_Source\PSoC5/USBFS.c ****         uint8 i;
 356:.\Generated_Source\PSoC5/USBFS.c **** 
 357:.\Generated_Source\PSoC5/USBFS.c ****         for (i = 0u; i < USBFS_MAX_INTERFACES_NUMBER; i++)
 358:.\Generated_Source\PSoC5/USBFS.c ****         {
 359:.\Generated_Source\PSoC5/USBFS.c ****             USBFS_hidProtocol[i] = USBFS_PROTOCOL_REPORT;
 360:.\Generated_Source\PSoC5/USBFS.c ****         }
 361:.\Generated_Source\PSoC5/USBFS.c ****     #endif /* USBFS_ENABLE_HID_CLASS */
 362:.\Generated_Source\PSoC5/USBFS.c **** 
 363:.\Generated_Source\PSoC5/USBFS.c ****     /* Enable Interrupts. */
 364:.\Generated_Source\PSoC5/USBFS.c ****     CyIntEnable(USBFS_BUS_RESET_VECT_NUM);
 357              		.loc 1 364 0
 358 000e 4FF46143 		mov	r3, #57600
 359 0012 CEF20003 		movt	r3, 57344
 360 0016 4FF40002 		mov	r2, #8388608
 361 001a 1A60     		str	r2, [r3, #0]
 365:.\Generated_Source\PSoC5/USBFS.c ****     CyIntEnable(USBFS_EP_0_VECT_NUM);
 362              		.loc 1 365 0
 363 001c 4FF46143 		mov	r3, #57600
 364 0020 CEF20003 		movt	r3, 57344
 365 0024 4FF08072 		mov	r2, #16777216
 366 0028 1A60     		str	r2, [r3, #0]
 366:.\Generated_Source\PSoC5/USBFS.c ****     #if(USBFS_EP1_ISR_REMOVE == 0u)
 367:.\Generated_Source\PSoC5/USBFS.c ****         CyIntEnable(USBFS_EP_1_VECT_NUM);
 367              		.loc 1 367 0
 368 002a 4FF46143 		mov	r3, #57600
 369 002e CEF20003 		movt	r3, 57344
 370 0032 4FF00102 		mov	r2, #1
 371 0036 1A60     		str	r2, [r3, #0]
 368:.\Generated_Source\PSoC5/USBFS.c ****     #endif   /*  USBFS_EP1_ISR_REMOVE */
 369:.\Generated_Source\PSoC5/USBFS.c ****     #if(USBFS_EP2_ISR_REMOVE == 0u)
 370:.\Generated_Source\PSoC5/USBFS.c ****         CyIntEnable(USBFS_EP_2_VECT_NUM);
ARM GAS  C:\Users\VICTOR~1\AppData\Local\Temp\ccn4KLip.s 			page 14


 372              		.loc 1 370 0
 373 0038 4FF46143 		mov	r3, #57600
 374 003c CEF20003 		movt	r3, 57344
 375 0040 4FF00202 		mov	r2, #2
 376 0044 1A60     		str	r2, [r3, #0]
 371:.\Generated_Source\PSoC5/USBFS.c ****     #endif   /*  USBFS_EP2_ISR_REMOVE */
 372:.\Generated_Source\PSoC5/USBFS.c ****     #if(USBFS_EP3_ISR_REMOVE == 0u)
 373:.\Generated_Source\PSoC5/USBFS.c ****         CyIntEnable(USBFS_EP_3_VECT_NUM);
 377              		.loc 1 373 0
 378 0046 4FF46143 		mov	r3, #57600
 379 004a CEF20003 		movt	r3, 57344
 380 004e 4FF00402 		mov	r2, #4
 381 0052 1A60     		str	r2, [r3, #0]
 374:.\Generated_Source\PSoC5/USBFS.c ****     #endif   /*  USBFS_EP3_ISR_REMOVE */
 375:.\Generated_Source\PSoC5/USBFS.c ****     #if(USBFS_EP4_ISR_REMOVE == 0u)
 376:.\Generated_Source\PSoC5/USBFS.c ****         CyIntEnable(USBFS_EP_4_VECT_NUM);
 382              		.loc 1 376 0
 383 0054 4FF46143 		mov	r3, #57600
 384 0058 CEF20003 		movt	r3, 57344
 385 005c 4FF00802 		mov	r2, #8
 386 0060 1A60     		str	r2, [r3, #0]
 377:.\Generated_Source\PSoC5/USBFS.c ****     #endif   /*  USBFS_EP4_ISR_REMOVE */
 378:.\Generated_Source\PSoC5/USBFS.c ****     #if(USBFS_EP5_ISR_REMOVE == 0u)
 379:.\Generated_Source\PSoC5/USBFS.c ****         CyIntEnable(USBFS_EP_5_VECT_NUM);
 387              		.loc 1 379 0
 388 0062 4FF46143 		mov	r3, #57600
 389 0066 CEF20003 		movt	r3, 57344
 390 006a 4FF01002 		mov	r2, #16
 391 006e 1A60     		str	r2, [r3, #0]
 380:.\Generated_Source\PSoC5/USBFS.c ****     #endif   /*  USBFS_EP5_ISR_REMOVE */
 381:.\Generated_Source\PSoC5/USBFS.c ****     #if(USBFS_EP6_ISR_REMOVE == 0u)
 382:.\Generated_Source\PSoC5/USBFS.c ****         CyIntEnable(USBFS_EP_6_VECT_NUM);
 392              		.loc 1 382 0
 393 0070 4FF46143 		mov	r3, #57600
 394 0074 CEF20003 		movt	r3, 57344
 395 0078 4FF02002 		mov	r2, #32
 396 007c 1A60     		str	r2, [r3, #0]
 383:.\Generated_Source\PSoC5/USBFS.c ****     #endif   /*  USBFS_EP6_ISR_REMOVE */
 384:.\Generated_Source\PSoC5/USBFS.c ****     #if(USBFS_EP7_ISR_REMOVE == 0u)
 385:.\Generated_Source\PSoC5/USBFS.c ****         CyIntEnable(USBFS_EP_7_VECT_NUM);
 386:.\Generated_Source\PSoC5/USBFS.c ****     #endif   /*  USBFS_EP7_ISR_REMOVE */
 387:.\Generated_Source\PSoC5/USBFS.c ****     #if(USBFS_EP8_ISR_REMOVE == 0u)
 388:.\Generated_Source\PSoC5/USBFS.c ****         CyIntEnable(USBFS_EP_8_VECT_NUM);
 389:.\Generated_Source\PSoC5/USBFS.c ****     #endif   /*  USBFS_EP8_ISR_REMOVE */
 390:.\Generated_Source\PSoC5/USBFS.c ****     #if((USBFS_EP_MM != USBFS__EP_MANUAL) && (USBFS_ARB_ISR_REMOVE == 0u))
 391:.\Generated_Source\PSoC5/USBFS.c ****         /* usb arb interrupt enable */
 392:.\Generated_Source\PSoC5/USBFS.c ****         USBFS_ARB_INT_EN_REG = USBFS_ARB_INT_MASK;
 393:.\Generated_Source\PSoC5/USBFS.c ****         CyIntEnable(USBFS_ARB_VECT_NUM);
 394:.\Generated_Source\PSoC5/USBFS.c ****     #endif   /*  USBFS_EP_MM != USBFS__EP_MANUAL */
 395:.\Generated_Source\PSoC5/USBFS.c **** 
 396:.\Generated_Source\PSoC5/USBFS.c ****     /* Arbiter configuration for DMA transfers */
 397:.\Generated_Source\PSoC5/USBFS.c ****     #if(USBFS_EP_MM != USBFS__EP_MANUAL)
 398:.\Generated_Source\PSoC5/USBFS.c ****         #if(USBFS_EP_MM == USBFS__EP_DMAMANUAL)
 399:.\Generated_Source\PSoC5/USBFS.c ****             USBFS_ARB_CFG_REG = USBFS_ARB_CFG_MANUAL_DMA;
 400:.\Generated_Source\PSoC5/USBFS.c ****         #endif   /*  USBFS_EP_MM == USBFS__EP_DMAMANUAL */
 401:.\Generated_Source\PSoC5/USBFS.c ****         #if(USBFS_EP_MM == USBFS__EP_DMAAUTO)
 402:.\Generated_Source\PSoC5/USBFS.c ****             /*Set cfg cmplt this rises DMA request when the full configuration is done */
ARM GAS  C:\Users\VICTOR~1\AppData\Local\Temp\ccn4KLip.s 			page 15


 403:.\Generated_Source\PSoC5/USBFS.c ****             USBFS_ARB_CFG_REG = USBFS_ARB_CFG_AUTO_DMA | USBFS_ARB_CFG_AUTO_MEM;
 404:.\Generated_Source\PSoC5/USBFS.c ****             #if(USBFS_EP_DMA_AUTO_OPT == 0u)
 405:.\Generated_Source\PSoC5/USBFS.c ****                 /* Init interrupt which handles verification of the successful DMA transaction */
 406:.\Generated_Source\PSoC5/USBFS.c ****                 USBFS_EP_DMA_Done_isr_StartEx(USBFS_EP_DMA_DONE_ISR);
 407:.\Generated_Source\PSoC5/USBFS.c ****                 USBFS_EP17_DMA_Done_SR_InterruptEnable();
 408:.\Generated_Source\PSoC5/USBFS.c ****                 USBFS_EP8_DMA_Done_SR_InterruptEnable();
 409:.\Generated_Source\PSoC5/USBFS.c ****             #endif /* USBFS_EP_DMA_AUTO_OPT == 0u */
 410:.\Generated_Source\PSoC5/USBFS.c ****         #endif   /*  USBFS_EP_MM == USBFS__EP_DMAAUTO */
 411:.\Generated_Source\PSoC5/USBFS.c ****     #endif   /*  USBFS_EP_MM != USBFS__EP_MANUAL */
 412:.\Generated_Source\PSoC5/USBFS.c **** 
 413:.\Generated_Source\PSoC5/USBFS.c ****     USBFS_transferState = USBFS_TRANS_STATE_IDLE;
 397              		.loc 1 413 0
 398 007e 40F20003 		movw	r3, #:lower16:USBFS_transferState
 399 0082 C0F20003 		movt	r3, #:upper16:USBFS_transferState
 400 0086 4FF00002 		mov	r2, #0
 401 008a 1A70     		strb	r2, [r3, #0]
 414:.\Generated_Source\PSoC5/USBFS.c **** 
 415:.\Generated_Source\PSoC5/USBFS.c ****     /* USB Locking: Enabled, VRegulator: depend on mode or DWR Voltage configuration*/
 416:.\Generated_Source\PSoC5/USBFS.c ****     switch(mode)
 402              		.loc 1 416 0
 403 008c BB79     		ldrb	r3, [r7, #6]	@ zero_extendqisi2
 404 008e 002B     		cmp	r3, #0
 405 0090 02D0     		beq	.L6
 406 0092 012B     		cmp	r3, #1
 407 0094 08D0     		beq	.L7
 408 0096 0FE0     		b	.L9
 409              	.L6:
 417:.\Generated_Source\PSoC5/USBFS.c ****     {
 418:.\Generated_Source\PSoC5/USBFS.c ****         case USBFS_3V_OPERATION:
 419:.\Generated_Source\PSoC5/USBFS.c ****             USBFS_CR1_REG = USBFS_CR1_ENABLE_LOCK;
 410              		.loc 1 419 0
 411 0098 46F20903 		movw	r3, #24585
 412 009c C4F20003 		movt	r3, 16384
 413 00a0 4FF00202 		mov	r2, #2
 414 00a4 1A70     		strb	r2, [r3, #0]
 420:.\Generated_Source\PSoC5/USBFS.c ****             break;
 415              		.loc 1 420 0
 416 00a6 0FE0     		b	.L8
 417              	.L7:
 421:.\Generated_Source\PSoC5/USBFS.c ****         case USBFS_5V_OPERATION:
 422:.\Generated_Source\PSoC5/USBFS.c ****             USBFS_CR1_REG = USBFS_CR1_ENABLE_LOCK | USBFS_CR1_REG_ENABLE;
 418              		.loc 1 422 0
 419 00a8 46F20903 		movw	r3, #24585
 420 00ac C4F20003 		movt	r3, 16384
 421 00b0 4FF00302 		mov	r2, #3
 422 00b4 1A70     		strb	r2, [r3, #0]
 423:.\Generated_Source\PSoC5/USBFS.c ****             break;
 423              		.loc 1 423 0
 424 00b6 07E0     		b	.L8
 425              	.L9:
 424:.\Generated_Source\PSoC5/USBFS.c ****         default:   /*USBFS_DWR_VDDD_OPERATION */
 425:.\Generated_Source\PSoC5/USBFS.c ****             #if(USBFS_VDDD_MV < USBFS_3500MV)
 426:.\Generated_Source\PSoC5/USBFS.c ****                 USBFS_CR1_REG = USBFS_CR1_ENABLE_LOCK;
 427:.\Generated_Source\PSoC5/USBFS.c ****             #else
 428:.\Generated_Source\PSoC5/USBFS.c ****                 USBFS_CR1_REG = USBFS_CR1_ENABLE_LOCK | USBFS_CR1_REG_ENABLE;
 426              		.loc 1 428 0
 427 00b8 46F20903 		movw	r3, #24585
ARM GAS  C:\Users\VICTOR~1\AppData\Local\Temp\ccn4KLip.s 			page 16


 428 00bc C4F20003 		movt	r3, 16384
 429 00c0 4FF00302 		mov	r2, #3
 430 00c4 1A70     		strb	r2, [r3, #0]
 429:.\Generated_Source\PSoC5/USBFS.c ****             #endif /*  USBFS_VDDD_MV < USBFS_3500MV */
 430:.\Generated_Source\PSoC5/USBFS.c ****             break;
 431              		.loc 1 430 0
 432 00c6 00BF     		nop
 433              	.L8:
 431:.\Generated_Source\PSoC5/USBFS.c ****     }
 432:.\Generated_Source\PSoC5/USBFS.c **** 
 433:.\Generated_Source\PSoC5/USBFS.c ****     /* Record the descriptor selection */
 434:.\Generated_Source\PSoC5/USBFS.c ****     USBFS_device = device;
 434              		.loc 1 434 0
 435 00c8 40F20003 		movw	r3, #:lower16:USBFS_device
 436 00cc C0F20003 		movt	r3, #:upper16:USBFS_device
 437 00d0 FA79     		ldrb	r2, [r7, #7]
 438 00d2 1A70     		strb	r2, [r3, #0]
 435:.\Generated_Source\PSoC5/USBFS.c **** 
 436:.\Generated_Source\PSoC5/USBFS.c ****     /* Clear all of the component data */
 437:.\Generated_Source\PSoC5/USBFS.c ****     USBFS_configuration = 0u;
 439              		.loc 1 437 0
 440 00d4 40F20003 		movw	r3, #:lower16:USBFS_configuration
 441 00d8 C0F20003 		movt	r3, #:upper16:USBFS_configuration
 442 00dc 4FF00002 		mov	r2, #0
 443 00e0 1A70     		strb	r2, [r3, #0]
 438:.\Generated_Source\PSoC5/USBFS.c ****     USBFS_interfaceNumber = 0u;
 444              		.loc 1 438 0
 445 00e2 40F20003 		movw	r3, #:lower16:USBFS_interfaceNumber
 446 00e6 C0F20003 		movt	r3, #:upper16:USBFS_interfaceNumber
 447 00ea 4FF00002 		mov	r2, #0
 448 00ee 1A70     		strb	r2, [r3, #0]
 439:.\Generated_Source\PSoC5/USBFS.c ****     USBFS_configurationChanged = 0u;
 449              		.loc 1 439 0
 450 00f0 40F20003 		movw	r3, #:lower16:USBFS_configurationChanged
 451 00f4 C0F20003 		movt	r3, #:upper16:USBFS_configurationChanged
 452 00f8 4FF00002 		mov	r2, #0
 453 00fc 1A70     		strb	r2, [r3, #0]
 440:.\Generated_Source\PSoC5/USBFS.c ****     USBFS_deviceAddress  = 0u;
 454              		.loc 1 440 0
 455 00fe 40F20003 		movw	r3, #:lower16:USBFS_deviceAddress
 456 0102 C0F20003 		movt	r3, #:upper16:USBFS_deviceAddress
 457 0106 4FF00002 		mov	r2, #0
 458 010a 1A70     		strb	r2, [r3, #0]
 441:.\Generated_Source\PSoC5/USBFS.c ****     USBFS_deviceStatus = 0u;
 459              		.loc 1 441 0
 460 010c 40F20003 		movw	r3, #:lower16:USBFS_deviceStatus
 461 0110 C0F20003 		movt	r3, #:upper16:USBFS_deviceStatus
 462 0114 4FF00002 		mov	r2, #0
 463 0118 1A70     		strb	r2, [r3, #0]
 442:.\Generated_Source\PSoC5/USBFS.c **** 
 443:.\Generated_Source\PSoC5/USBFS.c ****     USBFS_lastPacketSize = 0u;
 464              		.loc 1 443 0
 465 011a 40F20003 		movw	r3, #:lower16:USBFS_lastPacketSize
 466 011e C0F20003 		movt	r3, #:upper16:USBFS_lastPacketSize
 467 0122 4FF00002 		mov	r2, #0
 468 0126 1A70     		strb	r2, [r3, #0]
 444:.\Generated_Source\PSoC5/USBFS.c **** 
ARM GAS  C:\Users\VICTOR~1\AppData\Local\Temp\ccn4KLip.s 			page 17


 445:.\Generated_Source\PSoC5/USBFS.c ****     /*  ACK Setup, Stall IN/OUT */
 446:.\Generated_Source\PSoC5/USBFS.c ****     CY_SET_REG8(USBFS_EP0_CR_PTR, USBFS_MODE_STALL_IN_OUT);
 469              		.loc 1 446 0
 470 0128 46F22803 		movw	r3, #24616
 471 012c C4F20003 		movt	r3, 16384
 472 0130 4FF00302 		mov	r2, #3
 473 0134 1A70     		strb	r2, [r3, #0]
 447:.\Generated_Source\PSoC5/USBFS.c **** 
 448:.\Generated_Source\PSoC5/USBFS.c ****     /* Enable the SIE with an address 0 */
 449:.\Generated_Source\PSoC5/USBFS.c ****     CY_SET_REG8(USBFS_CR0_PTR, USBFS_CR0_ENABLE);
 474              		.loc 1 449 0
 475 0136 46F20803 		movw	r3, #24584
 476 013a C4F20003 		movt	r3, 16384
 477 013e 4FF08002 		mov	r2, #128
 478 0142 1A70     		strb	r2, [r3, #0]
 450:.\Generated_Source\PSoC5/USBFS.c **** 
 451:.\Generated_Source\PSoC5/USBFS.c ****     /* Workaround for PSOC5LP */
 452:.\Generated_Source\PSoC5/USBFS.c ****     CyDelayCycles(1u);
 479              		.loc 1 452 0
 480 0144 4FF00100 		mov	r0, #1
 481 0148 FFF7FEFF 		bl	CyDelayCycles
 453:.\Generated_Source\PSoC5/USBFS.c **** 
 454:.\Generated_Source\PSoC5/USBFS.c ****     /* Finally, Enable d+ pullup and select iomode to USB mode*/
 455:.\Generated_Source\PSoC5/USBFS.c ****     CY_SET_REG8(USBFS_USBIO_CR1_PTR, USBFS_USBIO_CR1_USBPUEN);
 482              		.loc 1 455 0
 483 014c 46F21203 		movw	r3, #24594
 484 0150 C4F20003 		movt	r3, 16384
 485 0154 4FF00402 		mov	r2, #4
 486 0158 1A70     		strb	r2, [r3, #0]
 456:.\Generated_Source\PSoC5/USBFS.c **** }
 487              		.loc 1 456 0
 488 015a 07F10807 		add	r7, r7, #8
 489 015e BD46     		mov	sp, r7
 490 0160 80BD     		pop	{r7, pc}
 491              		.cfi_endproc
 492              	.LFE2:
 493              		.size	USBFS_InitComponent, .-USBFS_InitComponent
 494 0162 00BF     		.section	.text.USBFS_ReInitComponent,"ax",%progbits
 495              		.align	2
 496              		.global	USBFS_ReInitComponent
 497              		.thumb
 498              		.thumb_func
 499              		.type	USBFS_ReInitComponent, %function
 500              	USBFS_ReInitComponent:
 501              	.LFB3:
 457:.\Generated_Source\PSoC5/USBFS.c **** 
 458:.\Generated_Source\PSoC5/USBFS.c **** 
 459:.\Generated_Source\PSoC5/USBFS.c **** /*******************************************************************************
 460:.\Generated_Source\PSoC5/USBFS.c **** * Function Name: USBFS_ReInitComponent
 461:.\Generated_Source\PSoC5/USBFS.c **** ********************************************************************************
 462:.\Generated_Source\PSoC5/USBFS.c **** *
 463:.\Generated_Source\PSoC5/USBFS.c **** * Summary:
 464:.\Generated_Source\PSoC5/USBFS.c **** *  This function reinitialize the component configuration and is
 465:.\Generated_Source\PSoC5/USBFS.c **** *  intend to be called from the Reset interrupt.
 466:.\Generated_Source\PSoC5/USBFS.c **** *
 467:.\Generated_Source\PSoC5/USBFS.c **** * Parameters:
 468:.\Generated_Source\PSoC5/USBFS.c **** *  None.
ARM GAS  C:\Users\VICTOR~1\AppData\Local\Temp\ccn4KLip.s 			page 18


 469:.\Generated_Source\PSoC5/USBFS.c **** *
 470:.\Generated_Source\PSoC5/USBFS.c **** * Return:
 471:.\Generated_Source\PSoC5/USBFS.c **** *   None.
 472:.\Generated_Source\PSoC5/USBFS.c **** *
 473:.\Generated_Source\PSoC5/USBFS.c **** * Global variables:
 474:.\Generated_Source\PSoC5/USBFS.c **** *   USBFS_device: Contains the device number of the desired device
 475:.\Generated_Source\PSoC5/USBFS.c **** *        descriptor. The device number can be found in the Device Descriptor Tab
 476:.\Generated_Source\PSoC5/USBFS.c **** *       of "Configure" dialog, under the settings of desired Device Descriptor,
 477:.\Generated_Source\PSoC5/USBFS.c **** *       in the "Device Number" field.
 478:.\Generated_Source\PSoC5/USBFS.c **** *   USBFS_transferState: This variable used by the communication
 479:.\Generated_Source\PSoC5/USBFS.c **** *       functions to handle current transfer state. Initialized to
 480:.\Generated_Source\PSoC5/USBFS.c **** *       TRANS_STATE_IDLE in this API.
 481:.\Generated_Source\PSoC5/USBFS.c **** *   USBFS_configuration: Contains current configuration number
 482:.\Generated_Source\PSoC5/USBFS.c **** *       which is set by the Host using SET_CONFIGURATION request.
 483:.\Generated_Source\PSoC5/USBFS.c **** *       Initialized to zero in this API.
 484:.\Generated_Source\PSoC5/USBFS.c **** *   USBFS_deviceAddress: Contains current device address. This
 485:.\Generated_Source\PSoC5/USBFS.c **** *       variable is initialized to zero in this API. Host starts to communicate
 486:.\Generated_Source\PSoC5/USBFS.c **** *      to device with address 0 and then set it to whatever value using
 487:.\Generated_Source\PSoC5/USBFS.c **** *      SET_ADDRESS request.
 488:.\Generated_Source\PSoC5/USBFS.c **** *   USBFS_deviceStatus: initialized to 0.
 489:.\Generated_Source\PSoC5/USBFS.c **** *       This is two bit variable which contain power status in first bit
 490:.\Generated_Source\PSoC5/USBFS.c **** *       (DEVICE_STATUS_BUS_POWERED or DEVICE_STATUS_SELF_POWERED) and remote
 491:.\Generated_Source\PSoC5/USBFS.c **** *       wakeup status (DEVICE_STATUS_REMOTE_WAKEUP) in second bit.
 492:.\Generated_Source\PSoC5/USBFS.c **** *   USBFS_lastPacketSize initialized to 0;
 493:.\Generated_Source\PSoC5/USBFS.c **** *
 494:.\Generated_Source\PSoC5/USBFS.c **** * Reentrant:
 495:.\Generated_Source\PSoC5/USBFS.c **** *  No.
 496:.\Generated_Source\PSoC5/USBFS.c **** *
 497:.\Generated_Source\PSoC5/USBFS.c **** *******************************************************************************/
 498:.\Generated_Source\PSoC5/USBFS.c **** void USBFS_ReInitComponent(void) 
 499:.\Generated_Source\PSoC5/USBFS.c **** {
 502              		.loc 1 499 0
 503              		.cfi_startproc
 504              		@ args = 0, pretend = 0, frame = 0
 505              		@ frame_needed = 1, uses_anonymous_args = 0
 506              		@ link register save eliminated.
 507 0000 80B4     		push	{r7}
 508              	.LCFI9:
 509              		.cfi_def_cfa_offset 4
 510              		.cfi_offset 7, -4
 511 0002 00AF     		add	r7, sp, #0
 512              	.LCFI10:
 513              		.cfi_def_cfa_register 7
 500:.\Generated_Source\PSoC5/USBFS.c ****     /* Initialize _hidProtocol variable to comply with HID 7.2.6 Set_Protocol
 501:.\Generated_Source\PSoC5/USBFS.c ****     *  Request: "When initialized, all devices default to report protocol."
 502:.\Generated_Source\PSoC5/USBFS.c ****     */
 503:.\Generated_Source\PSoC5/USBFS.c ****     #if defined(USBFS_ENABLE_HID_CLASS)
 504:.\Generated_Source\PSoC5/USBFS.c ****         uint8 i;
 505:.\Generated_Source\PSoC5/USBFS.c **** 
 506:.\Generated_Source\PSoC5/USBFS.c ****         for (i = 0u; i < USBFS_MAX_INTERFACES_NUMBER; i++)
 507:.\Generated_Source\PSoC5/USBFS.c ****         {
 508:.\Generated_Source\PSoC5/USBFS.c ****             USBFS_hidProtocol[i] = USBFS_PROTOCOL_REPORT;
 509:.\Generated_Source\PSoC5/USBFS.c ****         }
 510:.\Generated_Source\PSoC5/USBFS.c ****     #endif /* USBFS_ENABLE_HID_CLASS */
 511:.\Generated_Source\PSoC5/USBFS.c **** 
 512:.\Generated_Source\PSoC5/USBFS.c ****     USBFS_transferState = USBFS_TRANS_STATE_IDLE;
 514              		.loc 1 512 0
ARM GAS  C:\Users\VICTOR~1\AppData\Local\Temp\ccn4KLip.s 			page 19


 515 0004 40F20003 		movw	r3, #:lower16:USBFS_transferState
 516 0008 C0F20003 		movt	r3, #:upper16:USBFS_transferState
 517 000c 4FF00002 		mov	r2, #0
 518 0010 1A70     		strb	r2, [r3, #0]
 513:.\Generated_Source\PSoC5/USBFS.c **** 
 514:.\Generated_Source\PSoC5/USBFS.c ****     /* Clear all of the component data */
 515:.\Generated_Source\PSoC5/USBFS.c ****     USBFS_configuration = 0u;
 519              		.loc 1 515 0
 520 0012 40F20003 		movw	r3, #:lower16:USBFS_configuration
 521 0016 C0F20003 		movt	r3, #:upper16:USBFS_configuration
 522 001a 4FF00002 		mov	r2, #0
 523 001e 1A70     		strb	r2, [r3, #0]
 516:.\Generated_Source\PSoC5/USBFS.c ****     USBFS_interfaceNumber = 0u;
 524              		.loc 1 516 0
 525 0020 40F20003 		movw	r3, #:lower16:USBFS_interfaceNumber
 526 0024 C0F20003 		movt	r3, #:upper16:USBFS_interfaceNumber
 527 0028 4FF00002 		mov	r2, #0
 528 002c 1A70     		strb	r2, [r3, #0]
 517:.\Generated_Source\PSoC5/USBFS.c ****     USBFS_configurationChanged = 0u;
 529              		.loc 1 517 0
 530 002e 40F20003 		movw	r3, #:lower16:USBFS_configurationChanged
 531 0032 C0F20003 		movt	r3, #:upper16:USBFS_configurationChanged
 532 0036 4FF00002 		mov	r2, #0
 533 003a 1A70     		strb	r2, [r3, #0]
 518:.\Generated_Source\PSoC5/USBFS.c ****     USBFS_deviceAddress  = 0u;
 534              		.loc 1 518 0
 535 003c 40F20003 		movw	r3, #:lower16:USBFS_deviceAddress
 536 0040 C0F20003 		movt	r3, #:upper16:USBFS_deviceAddress
 537 0044 4FF00002 		mov	r2, #0
 538 0048 1A70     		strb	r2, [r3, #0]
 519:.\Generated_Source\PSoC5/USBFS.c ****     USBFS_deviceStatus = 0u;
 539              		.loc 1 519 0
 540 004a 40F20003 		movw	r3, #:lower16:USBFS_deviceStatus
 541 004e C0F20003 		movt	r3, #:upper16:USBFS_deviceStatus
 542 0052 4FF00002 		mov	r2, #0
 543 0056 1A70     		strb	r2, [r3, #0]
 520:.\Generated_Source\PSoC5/USBFS.c **** 
 521:.\Generated_Source\PSoC5/USBFS.c ****     USBFS_lastPacketSize = 0u;
 544              		.loc 1 521 0
 545 0058 40F20003 		movw	r3, #:lower16:USBFS_lastPacketSize
 546 005c C0F20003 		movt	r3, #:upper16:USBFS_lastPacketSize
 547 0060 4FF00002 		mov	r2, #0
 548 0064 1A70     		strb	r2, [r3, #0]
 522:.\Generated_Source\PSoC5/USBFS.c **** 
 523:.\Generated_Source\PSoC5/USBFS.c **** 
 524:.\Generated_Source\PSoC5/USBFS.c ****     /*  ACK Setup, Stall IN/OUT */
 525:.\Generated_Source\PSoC5/USBFS.c ****     CY_SET_REG8(USBFS_EP0_CR_PTR, USBFS_MODE_STALL_IN_OUT);
 549              		.loc 1 525 0
 550 0066 46F22803 		movw	r3, #24616
 551 006a C4F20003 		movt	r3, 16384
 552 006e 4FF00302 		mov	r2, #3
 553 0072 1A70     		strb	r2, [r3, #0]
 526:.\Generated_Source\PSoC5/USBFS.c **** 
 527:.\Generated_Source\PSoC5/USBFS.c ****     /* Enable the SIE with an address 0 */
 528:.\Generated_Source\PSoC5/USBFS.c ****     CY_SET_REG8(USBFS_CR0_PTR, USBFS_CR0_ENABLE);
 554              		.loc 1 528 0
 555 0074 46F20803 		movw	r3, #24584
ARM GAS  C:\Users\VICTOR~1\AppData\Local\Temp\ccn4KLip.s 			page 20


 556 0078 C4F20003 		movt	r3, 16384
 557 007c 4FF08002 		mov	r2, #128
 558 0080 1A70     		strb	r2, [r3, #0]
 529:.\Generated_Source\PSoC5/USBFS.c **** 
 530:.\Generated_Source\PSoC5/USBFS.c **** }
 559              		.loc 1 530 0
 560 0082 BD46     		mov	sp, r7
 561 0084 80BC     		pop	{r7}
 562 0086 7047     		bx	lr
 563              		.cfi_endproc
 564              	.LFE3:
 565              		.size	USBFS_ReInitComponent, .-USBFS_ReInitComponent
 566              		.section	.text.USBFS_Stop,"ax",%progbits
 567              		.align	2
 568              		.global	USBFS_Stop
 569              		.thumb
 570              		.thumb_func
 571              		.type	USBFS_Stop, %function
 572              	USBFS_Stop:
 573              	.LFB4:
 531:.\Generated_Source\PSoC5/USBFS.c **** 
 532:.\Generated_Source\PSoC5/USBFS.c **** 
 533:.\Generated_Source\PSoC5/USBFS.c **** /*******************************************************************************
 534:.\Generated_Source\PSoC5/USBFS.c **** * Function Name: USBFS_Stop
 535:.\Generated_Source\PSoC5/USBFS.c **** ********************************************************************************
 536:.\Generated_Source\PSoC5/USBFS.c **** *
 537:.\Generated_Source\PSoC5/USBFS.c **** * Summary:
 538:.\Generated_Source\PSoC5/USBFS.c **** *  This function shuts down the USB function including to release
 539:.\Generated_Source\PSoC5/USBFS.c **** *  the D+ Pullup and disabling the SIE.
 540:.\Generated_Source\PSoC5/USBFS.c **** *
 541:.\Generated_Source\PSoC5/USBFS.c **** * Parameters:
 542:.\Generated_Source\PSoC5/USBFS.c **** *  None.
 543:.\Generated_Source\PSoC5/USBFS.c **** *
 544:.\Generated_Source\PSoC5/USBFS.c **** * Return:
 545:.\Generated_Source\PSoC5/USBFS.c **** *  None.
 546:.\Generated_Source\PSoC5/USBFS.c **** *
 547:.\Generated_Source\PSoC5/USBFS.c **** * Global variables:
 548:.\Generated_Source\PSoC5/USBFS.c **** *   USBFS_configuration: Contains current configuration number
 549:.\Generated_Source\PSoC5/USBFS.c **** *       which is set by the Host using SET_CONFIGURATION request.
 550:.\Generated_Source\PSoC5/USBFS.c **** *       Initialized to zero in this API.
 551:.\Generated_Source\PSoC5/USBFS.c **** *   USBFS_deviceAddress: Contains current device address. This
 552:.\Generated_Source\PSoC5/USBFS.c **** *       variable is initialized to zero in this API. Host starts to communicate
 553:.\Generated_Source\PSoC5/USBFS.c **** *      to device with address 0 and then set it to whatever value using
 554:.\Generated_Source\PSoC5/USBFS.c **** *      SET_ADDRESS request.
 555:.\Generated_Source\PSoC5/USBFS.c **** *   USBFS_deviceStatus: initialized to 0.
 556:.\Generated_Source\PSoC5/USBFS.c **** *       This is two bit variable which contain power status in first bit
 557:.\Generated_Source\PSoC5/USBFS.c **** *       (DEVICE_STATUS_BUS_POWERED or DEVICE_STATUS_SELF_POWERED) and remote
 558:.\Generated_Source\PSoC5/USBFS.c **** *       wakeup status (DEVICE_STATUS_REMOTE_WAKEUP) in second bit.
 559:.\Generated_Source\PSoC5/USBFS.c **** *   USBFS_configurationChanged: This variable is set to one after
 560:.\Generated_Source\PSoC5/USBFS.c **** *       SET_CONFIGURATION request and cleared in this function.
 561:.\Generated_Source\PSoC5/USBFS.c **** *   USBFS_intiVar variable is set to zero
 562:.\Generated_Source\PSoC5/USBFS.c **** *
 563:.\Generated_Source\PSoC5/USBFS.c **** *******************************************************************************/
 564:.\Generated_Source\PSoC5/USBFS.c **** void USBFS_Stop(void) 
 565:.\Generated_Source\PSoC5/USBFS.c **** {
 574              		.loc 1 565 0
 575              		.cfi_startproc
ARM GAS  C:\Users\VICTOR~1\AppData\Local\Temp\ccn4KLip.s 			page 21


 576              		@ args = 0, pretend = 0, frame = 0
 577              		@ frame_needed = 1, uses_anonymous_args = 0
 578              		@ link register save eliminated.
 579 0000 80B4     		push	{r7}
 580              	.LCFI11:
 581              		.cfi_def_cfa_offset 4
 582              		.cfi_offset 7, -4
 583 0002 00AF     		add	r7, sp, #0
 584              	.LCFI12:
 585              		.cfi_def_cfa_register 7
 566:.\Generated_Source\PSoC5/USBFS.c **** 
 567:.\Generated_Source\PSoC5/USBFS.c ****     #if(USBFS_EP_MM != USBFS__EP_MANUAL)
 568:.\Generated_Source\PSoC5/USBFS.c ****         USBFS_Stop_DMA(USBFS_MAX_EP);     /* Stop all DMAs */
 569:.\Generated_Source\PSoC5/USBFS.c ****     #endif   /*  USBFS_EP_MM != USBFS__EP_MANUAL */
 570:.\Generated_Source\PSoC5/USBFS.c **** 
 571:.\Generated_Source\PSoC5/USBFS.c ****     /* Disable the SIE */
 572:.\Generated_Source\PSoC5/USBFS.c ****     USBFS_CR0_REG &= (uint8)(~USBFS_CR0_ENABLE);
 586              		.loc 1 572 0
 587 0004 46F20803 		movw	r3, #24584
 588 0008 C4F20003 		movt	r3, 16384
 589 000c 46F20802 		movw	r2, #24584
 590 0010 C4F20002 		movt	r2, 16384
 591 0014 1278     		ldrb	r2, [r2, #0]
 592 0016 D2B2     		uxtb	r2, r2
 593 0018 02F07F02 		and	r2, r2, #127
 594 001c D2B2     		uxtb	r2, r2
 595 001e 1A70     		strb	r2, [r3, #0]
 573:.\Generated_Source\PSoC5/USBFS.c ****     /* Disable the d+ pullup */
 574:.\Generated_Source\PSoC5/USBFS.c ****     USBFS_USBIO_CR1_REG &= (uint8)(~USBFS_USBIO_CR1_USBPUEN);
 596              		.loc 1 574 0
 597 0020 46F21203 		movw	r3, #24594
 598 0024 C4F20003 		movt	r3, 16384
 599 0028 46F21202 		movw	r2, #24594
 600 002c C4F20002 		movt	r2, 16384
 601 0030 1278     		ldrb	r2, [r2, #0]
 602 0032 D2B2     		uxtb	r2, r2
 603 0034 22F00402 		bic	r2, r2, #4
 604 0038 D2B2     		uxtb	r2, r2
 605 003a 1A70     		strb	r2, [r3, #0]
 575:.\Generated_Source\PSoC5/USBFS.c ****     /* Disable USB in ACT PM */
 576:.\Generated_Source\PSoC5/USBFS.c ****     USBFS_PM_ACT_CFG_REG &= (uint8)(~USBFS_PM_ACT_EN_FSUSB);
 606              		.loc 1 576 0
 607 003c 44F2A533 		movw	r3, #17317
 608 0040 C4F20003 		movt	r3, 16384
 609 0044 44F2A532 		movw	r2, #17317
 610 0048 C4F20002 		movt	r2, 16384
 611 004c 1278     		ldrb	r2, [r2, #0]
 612 004e D2B2     		uxtb	r2, r2
 613 0050 22F00102 		bic	r2, r2, #1
 614 0054 D2B2     		uxtb	r2, r2
 615 0056 1A70     		strb	r2, [r3, #0]
 577:.\Generated_Source\PSoC5/USBFS.c ****     /* Disable USB block for Standby Power Mode */
 578:.\Generated_Source\PSoC5/USBFS.c ****     USBFS_PM_STBY_CFG_REG &= (uint8)(~USBFS_PM_STBY_EN_FSUSB);
 616              		.loc 1 578 0
 617 0058 44F2B533 		movw	r3, #17333
 618 005c C4F20003 		movt	r3, 16384
 619 0060 44F2B532 		movw	r2, #17333
ARM GAS  C:\Users\VICTOR~1\AppData\Local\Temp\ccn4KLip.s 			page 22


 620 0064 C4F20002 		movt	r2, 16384
 621 0068 1278     		ldrb	r2, [r2, #0]
 622 006a D2B2     		uxtb	r2, r2
 623 006c 22F00102 		bic	r2, r2, #1
 624 0070 D2B2     		uxtb	r2, r2
 625 0072 1A70     		strb	r2, [r3, #0]
 579:.\Generated_Source\PSoC5/USBFS.c **** 
 580:.\Generated_Source\PSoC5/USBFS.c ****     /* Disable the reset and EP interrupts */
 581:.\Generated_Source\PSoC5/USBFS.c ****     CyIntDisable(USBFS_BUS_RESET_VECT_NUM);
 626              		.loc 1 581 0
 627 0074 4EF28013 		movw	r3, #57728
 628 0078 CEF20003 		movt	r3, 57344
 629 007c 4FF40002 		mov	r2, #8388608
 630 0080 1A60     		str	r2, [r3, #0]
 582:.\Generated_Source\PSoC5/USBFS.c ****     CyIntDisable(USBFS_EP_0_VECT_NUM);
 631              		.loc 1 582 0
 632 0082 4EF28013 		movw	r3, #57728
 633 0086 CEF20003 		movt	r3, 57344
 634 008a 4FF08072 		mov	r2, #16777216
 635 008e 1A60     		str	r2, [r3, #0]
 583:.\Generated_Source\PSoC5/USBFS.c ****     #if(USBFS_EP1_ISR_REMOVE == 0u)
 584:.\Generated_Source\PSoC5/USBFS.c ****         CyIntDisable(USBFS_EP_1_VECT_NUM);
 636              		.loc 1 584 0
 637 0090 4EF28013 		movw	r3, #57728
 638 0094 CEF20003 		movt	r3, 57344
 639 0098 4FF00102 		mov	r2, #1
 640 009c 1A60     		str	r2, [r3, #0]
 585:.\Generated_Source\PSoC5/USBFS.c ****     #endif   /*  USBFS_EP1_ISR_REMOVE */
 586:.\Generated_Source\PSoC5/USBFS.c ****     #if(USBFS_EP2_ISR_REMOVE == 0u)
 587:.\Generated_Source\PSoC5/USBFS.c ****         CyIntDisable(USBFS_EP_2_VECT_NUM);
 641              		.loc 1 587 0
 642 009e 4EF28013 		movw	r3, #57728
 643 00a2 CEF20003 		movt	r3, 57344
 644 00a6 4FF00202 		mov	r2, #2
 645 00aa 1A60     		str	r2, [r3, #0]
 588:.\Generated_Source\PSoC5/USBFS.c ****     #endif   /*  USBFS_EP2_ISR_REMOVE */
 589:.\Generated_Source\PSoC5/USBFS.c ****     #if(USBFS_EP3_ISR_REMOVE == 0u)
 590:.\Generated_Source\PSoC5/USBFS.c ****         CyIntDisable(USBFS_EP_3_VECT_NUM);
 646              		.loc 1 590 0
 647 00ac 4EF28013 		movw	r3, #57728
 648 00b0 CEF20003 		movt	r3, 57344
 649 00b4 4FF00402 		mov	r2, #4
 650 00b8 1A60     		str	r2, [r3, #0]
 591:.\Generated_Source\PSoC5/USBFS.c ****     #endif   /*  USBFS_EP3_ISR_REMOVE */
 592:.\Generated_Source\PSoC5/USBFS.c ****     #if(USBFS_EP4_ISR_REMOVE == 0u)
 593:.\Generated_Source\PSoC5/USBFS.c ****         CyIntDisable(USBFS_EP_4_VECT_NUM);
 651              		.loc 1 593 0
 652 00ba 4EF28013 		movw	r3, #57728
 653 00be CEF20003 		movt	r3, 57344
 654 00c2 4FF00802 		mov	r2, #8
 655 00c6 1A60     		str	r2, [r3, #0]
 594:.\Generated_Source\PSoC5/USBFS.c ****     #endif   /*  USBFS_EP4_ISR_REMOVE */
 595:.\Generated_Source\PSoC5/USBFS.c ****     #if(USBFS_EP5_ISR_REMOVE == 0u)
 596:.\Generated_Source\PSoC5/USBFS.c ****         CyIntDisable(USBFS_EP_5_VECT_NUM);
 656              		.loc 1 596 0
 657 00c8 4EF28013 		movw	r3, #57728
 658 00cc CEF20003 		movt	r3, 57344
ARM GAS  C:\Users\VICTOR~1\AppData\Local\Temp\ccn4KLip.s 			page 23


 659 00d0 4FF01002 		mov	r2, #16
 660 00d4 1A60     		str	r2, [r3, #0]
 597:.\Generated_Source\PSoC5/USBFS.c ****     #endif   /*  USBFS_EP5_ISR_REMOVE */
 598:.\Generated_Source\PSoC5/USBFS.c ****     #if(USBFS_EP6_ISR_REMOVE == 0u)
 599:.\Generated_Source\PSoC5/USBFS.c ****         CyIntDisable(USBFS_EP_6_VECT_NUM);
 661              		.loc 1 599 0
 662 00d6 4EF28013 		movw	r3, #57728
 663 00da CEF20003 		movt	r3, 57344
 664 00de 4FF02002 		mov	r2, #32
 665 00e2 1A60     		str	r2, [r3, #0]
 600:.\Generated_Source\PSoC5/USBFS.c ****     #endif   /*  USBFS_EP6_ISR_REMOVE */
 601:.\Generated_Source\PSoC5/USBFS.c ****     #if(USBFS_EP7_ISR_REMOVE == 0u)
 602:.\Generated_Source\PSoC5/USBFS.c ****         CyIntDisable(USBFS_EP_7_VECT_NUM);
 603:.\Generated_Source\PSoC5/USBFS.c ****     #endif   /*  USBFS_EP7_ISR_REMOVE */
 604:.\Generated_Source\PSoC5/USBFS.c ****     #if(USBFS_EP8_ISR_REMOVE == 0u)
 605:.\Generated_Source\PSoC5/USBFS.c ****         CyIntDisable(USBFS_EP_8_VECT_NUM);
 606:.\Generated_Source\PSoC5/USBFS.c ****     #endif   /*  USBFS_EP8_ISR_REMOVE */
 607:.\Generated_Source\PSoC5/USBFS.c **** 
 608:.\Generated_Source\PSoC5/USBFS.c ****     /* Clear all of the component data */
 609:.\Generated_Source\PSoC5/USBFS.c ****     USBFS_configuration = 0u;
 666              		.loc 1 609 0
 667 00e4 40F20003 		movw	r3, #:lower16:USBFS_configuration
 668 00e8 C0F20003 		movt	r3, #:upper16:USBFS_configuration
 669 00ec 4FF00002 		mov	r2, #0
 670 00f0 1A70     		strb	r2, [r3, #0]
 610:.\Generated_Source\PSoC5/USBFS.c ****     USBFS_interfaceNumber = 0u;
 671              		.loc 1 610 0
 672 00f2 40F20003 		movw	r3, #:lower16:USBFS_interfaceNumber
 673 00f6 C0F20003 		movt	r3, #:upper16:USBFS_interfaceNumber
 674 00fa 4FF00002 		mov	r2, #0
 675 00fe 1A70     		strb	r2, [r3, #0]
 611:.\Generated_Source\PSoC5/USBFS.c ****     USBFS_configurationChanged = 0u;
 676              		.loc 1 611 0
 677 0100 40F20003 		movw	r3, #:lower16:USBFS_configurationChanged
 678 0104 C0F20003 		movt	r3, #:upper16:USBFS_configurationChanged
 679 0108 4FF00002 		mov	r2, #0
 680 010c 1A70     		strb	r2, [r3, #0]
 612:.\Generated_Source\PSoC5/USBFS.c ****     USBFS_deviceAddress  = 0u;
 681              		.loc 1 612 0
 682 010e 40F20003 		movw	r3, #:lower16:USBFS_deviceAddress
 683 0112 C0F20003 		movt	r3, #:upper16:USBFS_deviceAddress
 684 0116 4FF00002 		mov	r2, #0
 685 011a 1A70     		strb	r2, [r3, #0]
 613:.\Generated_Source\PSoC5/USBFS.c ****     USBFS_deviceStatus = 0u;
 686              		.loc 1 613 0
 687 011c 40F20003 		movw	r3, #:lower16:USBFS_deviceStatus
 688 0120 C0F20003 		movt	r3, #:upper16:USBFS_deviceStatus
 689 0124 4FF00002 		mov	r2, #0
 690 0128 1A70     		strb	r2, [r3, #0]
 614:.\Generated_Source\PSoC5/USBFS.c ****     USBFS_initVar = 0u;
 691              		.loc 1 614 0
 692 012a 40F20003 		movw	r3, #:lower16:USBFS_initVar
 693 012e C0F20003 		movt	r3, #:upper16:USBFS_initVar
 694 0132 4FF00002 		mov	r2, #0
 695 0136 1A70     		strb	r2, [r3, #0]
 615:.\Generated_Source\PSoC5/USBFS.c **** 
 616:.\Generated_Source\PSoC5/USBFS.c **** }
ARM GAS  C:\Users\VICTOR~1\AppData\Local\Temp\ccn4KLip.s 			page 24


 696              		.loc 1 616 0
 697 0138 BD46     		mov	sp, r7
 698 013a 80BC     		pop	{r7}
 699 013c 7047     		bx	lr
 700              		.cfi_endproc
 701              	.LFE4:
 702              		.size	USBFS_Stop, .-USBFS_Stop
 703 013e 00BF     		.section	.text.USBFS_CheckActivity,"ax",%progbits
 704              		.align	2
 705              		.global	USBFS_CheckActivity
 706              		.thumb
 707              		.thumb_func
 708              		.type	USBFS_CheckActivity, %function
 709              	USBFS_CheckActivity:
 710              	.LFB5:
 617:.\Generated_Source\PSoC5/USBFS.c **** 
 618:.\Generated_Source\PSoC5/USBFS.c **** 
 619:.\Generated_Source\PSoC5/USBFS.c **** /*******************************************************************************
 620:.\Generated_Source\PSoC5/USBFS.c **** * Function Name: USBFS_CheckActivity
 621:.\Generated_Source\PSoC5/USBFS.c **** ********************************************************************************
 622:.\Generated_Source\PSoC5/USBFS.c **** *
 623:.\Generated_Source\PSoC5/USBFS.c **** * Summary:
 624:.\Generated_Source\PSoC5/USBFS.c **** *  Returns the activity status of the bus.  Clears the status hardware to
 625:.\Generated_Source\PSoC5/USBFS.c **** *  provide fresh activity status on the next call of this routine.
 626:.\Generated_Source\PSoC5/USBFS.c **** *
 627:.\Generated_Source\PSoC5/USBFS.c **** * Parameters:
 628:.\Generated_Source\PSoC5/USBFS.c **** *  None.
 629:.\Generated_Source\PSoC5/USBFS.c **** *
 630:.\Generated_Source\PSoC5/USBFS.c **** * Return:
 631:.\Generated_Source\PSoC5/USBFS.c **** *  1 - If bus activity was detected since the last call to this function
 632:.\Generated_Source\PSoC5/USBFS.c **** *  0 - If bus activity not was detected since the last call to this function
 633:.\Generated_Source\PSoC5/USBFS.c **** *
 634:.\Generated_Source\PSoC5/USBFS.c **** *******************************************************************************/
 635:.\Generated_Source\PSoC5/USBFS.c **** uint8 USBFS_CheckActivity(void) 
 636:.\Generated_Source\PSoC5/USBFS.c **** {
 711              		.loc 1 636 0
 712              		.cfi_startproc
 713              		@ args = 0, pretend = 0, frame = 8
 714              		@ frame_needed = 1, uses_anonymous_args = 0
 715              		@ link register save eliminated.
 716 0000 80B4     		push	{r7}
 717              	.LCFI13:
 718              		.cfi_def_cfa_offset 4
 719              		.cfi_offset 7, -4
 720 0002 83B0     		sub	sp, sp, #12
 721              	.LCFI14:
 722              		.cfi_def_cfa_offset 16
 723 0004 00AF     		add	r7, sp, #0
 724              	.LCFI15:
 725              		.cfi_def_cfa_register 7
 637:.\Generated_Source\PSoC5/USBFS.c ****     uint8 r;
 638:.\Generated_Source\PSoC5/USBFS.c **** 
 639:.\Generated_Source\PSoC5/USBFS.c ****     r = CY_GET_REG8(USBFS_CR1_PTR);
 726              		.loc 1 639 0
 727 0006 46F20903 		movw	r3, #24585
 728 000a C4F20003 		movt	r3, 16384
 729 000e 1B78     		ldrb	r3, [r3, #0]
ARM GAS  C:\Users\VICTOR~1\AppData\Local\Temp\ccn4KLip.s 			page 25


 730 0010 FB71     		strb	r3, [r7, #7]
 640:.\Generated_Source\PSoC5/USBFS.c ****     CY_SET_REG8(USBFS_CR1_PTR, (r & ((uint8)(~USBFS_CR1_BUS_ACTIVITY))));
 731              		.loc 1 640 0
 732 0012 46F20903 		movw	r3, #24585
 733 0016 C4F20003 		movt	r3, 16384
 734 001a FA79     		ldrb	r2, [r7, #7]
 735 001c 22F00402 		bic	r2, r2, #4
 736 0020 D2B2     		uxtb	r2, r2
 737 0022 1A70     		strb	r2, [r3, #0]
 641:.\Generated_Source\PSoC5/USBFS.c **** 
 642:.\Generated_Source\PSoC5/USBFS.c ****     return((r & USBFS_CR1_BUS_ACTIVITY) >> USBFS_CR1_BUS_ACTIVITY_SHIFT);
 738              		.loc 1 642 0
 739 0024 FB79     		ldrb	r3, [r7, #7]	@ zero_extendqisi2
 740 0026 03F00403 		and	r3, r3, #4
 741 002a 4FEAA303 		asr	r3, r3, #2
 742 002e DBB2     		uxtb	r3, r3
 643:.\Generated_Source\PSoC5/USBFS.c **** }
 743              		.loc 1 643 0
 744 0030 1846     		mov	r0, r3
 745 0032 07F10C07 		add	r7, r7, #12
 746 0036 BD46     		mov	sp, r7
 747 0038 80BC     		pop	{r7}
 748 003a 7047     		bx	lr
 749              		.cfi_endproc
 750              	.LFE5:
 751              		.size	USBFS_CheckActivity, .-USBFS_CheckActivity
 752              		.section	.text.USBFS_GetConfiguration,"ax",%progbits
 753              		.align	2
 754              		.global	USBFS_GetConfiguration
 755              		.thumb
 756              		.thumb_func
 757              		.type	USBFS_GetConfiguration, %function
 758              	USBFS_GetConfiguration:
 759              	.LFB6:
 644:.\Generated_Source\PSoC5/USBFS.c **** 
 645:.\Generated_Source\PSoC5/USBFS.c **** 
 646:.\Generated_Source\PSoC5/USBFS.c **** /*******************************************************************************
 647:.\Generated_Source\PSoC5/USBFS.c **** * Function Name: USBFS_GetConfiguration
 648:.\Generated_Source\PSoC5/USBFS.c **** ********************************************************************************
 649:.\Generated_Source\PSoC5/USBFS.c **** *
 650:.\Generated_Source\PSoC5/USBFS.c **** * Summary:
 651:.\Generated_Source\PSoC5/USBFS.c **** *  Returns the current configuration setting
 652:.\Generated_Source\PSoC5/USBFS.c **** *
 653:.\Generated_Source\PSoC5/USBFS.c **** * Parameters:
 654:.\Generated_Source\PSoC5/USBFS.c **** *  None.
 655:.\Generated_Source\PSoC5/USBFS.c **** *
 656:.\Generated_Source\PSoC5/USBFS.c **** * Return:
 657:.\Generated_Source\PSoC5/USBFS.c **** *  configuration.
 658:.\Generated_Source\PSoC5/USBFS.c **** *
 659:.\Generated_Source\PSoC5/USBFS.c **** *******************************************************************************/
 660:.\Generated_Source\PSoC5/USBFS.c **** uint8 USBFS_GetConfiguration(void) 
 661:.\Generated_Source\PSoC5/USBFS.c **** {
 760              		.loc 1 661 0
 761              		.cfi_startproc
 762              		@ args = 0, pretend = 0, frame = 0
 763              		@ frame_needed = 1, uses_anonymous_args = 0
 764              		@ link register save eliminated.
ARM GAS  C:\Users\VICTOR~1\AppData\Local\Temp\ccn4KLip.s 			page 26


 765 0000 80B4     		push	{r7}
 766              	.LCFI16:
 767              		.cfi_def_cfa_offset 4
 768              		.cfi_offset 7, -4
 769 0002 00AF     		add	r7, sp, #0
 770              	.LCFI17:
 771              		.cfi_def_cfa_register 7
 662:.\Generated_Source\PSoC5/USBFS.c ****     return(USBFS_configuration);
 772              		.loc 1 662 0
 773 0004 40F20003 		movw	r3, #:lower16:USBFS_configuration
 774 0008 C0F20003 		movt	r3, #:upper16:USBFS_configuration
 775 000c 1B78     		ldrb	r3, [r3, #0]
 776 000e DBB2     		uxtb	r3, r3
 663:.\Generated_Source\PSoC5/USBFS.c **** }
 777              		.loc 1 663 0
 778 0010 1846     		mov	r0, r3
 779 0012 BD46     		mov	sp, r7
 780 0014 80BC     		pop	{r7}
 781 0016 7047     		bx	lr
 782              		.cfi_endproc
 783              	.LFE6:
 784              		.size	USBFS_GetConfiguration, .-USBFS_GetConfiguration
 785              		.section	.text.USBFS_IsConfigurationChanged,"ax",%progbits
 786              		.align	2
 787              		.global	USBFS_IsConfigurationChanged
 788              		.thumb
 789              		.thumb_func
 790              		.type	USBFS_IsConfigurationChanged, %function
 791              	USBFS_IsConfigurationChanged:
 792              	.LFB7:
 664:.\Generated_Source\PSoC5/USBFS.c **** 
 665:.\Generated_Source\PSoC5/USBFS.c **** 
 666:.\Generated_Source\PSoC5/USBFS.c **** /*******************************************************************************
 667:.\Generated_Source\PSoC5/USBFS.c **** * Function Name: USBFS_IsConfigurationChanged
 668:.\Generated_Source\PSoC5/USBFS.c **** ********************************************************************************
 669:.\Generated_Source\PSoC5/USBFS.c **** *
 670:.\Generated_Source\PSoC5/USBFS.c **** * Summary:
 671:.\Generated_Source\PSoC5/USBFS.c **** *  Returns the clear on read configuration state. It is usefull when PC send
 672:.\Generated_Source\PSoC5/USBFS.c **** *  double SET_CONFIGURATION request with same configuration number.
 673:.\Generated_Source\PSoC5/USBFS.c **** *
 674:.\Generated_Source\PSoC5/USBFS.c **** * Parameters:
 675:.\Generated_Source\PSoC5/USBFS.c **** *  None.
 676:.\Generated_Source\PSoC5/USBFS.c **** *
 677:.\Generated_Source\PSoC5/USBFS.c **** * Return:
 678:.\Generated_Source\PSoC5/USBFS.c **** *  Not zero value when new configuration has been changed, otherwise zero is
 679:.\Generated_Source\PSoC5/USBFS.c **** *  returned.
 680:.\Generated_Source\PSoC5/USBFS.c **** *
 681:.\Generated_Source\PSoC5/USBFS.c **** * Global variables:
 682:.\Generated_Source\PSoC5/USBFS.c **** *   USBFS_configurationChanged: This variable is set to one after
 683:.\Generated_Source\PSoC5/USBFS.c **** *       SET_CONFIGURATION request and cleared in this function.
 684:.\Generated_Source\PSoC5/USBFS.c **** *
 685:.\Generated_Source\PSoC5/USBFS.c **** *******************************************************************************/
 686:.\Generated_Source\PSoC5/USBFS.c **** uint8 USBFS_IsConfigurationChanged(void) 
 687:.\Generated_Source\PSoC5/USBFS.c **** {
 793              		.loc 1 687 0
 794              		.cfi_startproc
 795              		@ args = 0, pretend = 0, frame = 8
ARM GAS  C:\Users\VICTOR~1\AppData\Local\Temp\ccn4KLip.s 			page 27


 796              		@ frame_needed = 1, uses_anonymous_args = 0
 797              		@ link register save eliminated.
 798 0000 80B4     		push	{r7}
 799              	.LCFI18:
 800              		.cfi_def_cfa_offset 4
 801              		.cfi_offset 7, -4
 802 0002 83B0     		sub	sp, sp, #12
 803              	.LCFI19:
 804              		.cfi_def_cfa_offset 16
 805 0004 00AF     		add	r7, sp, #0
 806              	.LCFI20:
 807              		.cfi_def_cfa_register 7
 688:.\Generated_Source\PSoC5/USBFS.c ****     uint8 res = 0u;
 808              		.loc 1 688 0
 809 0006 4FF00003 		mov	r3, #0
 810 000a FB71     		strb	r3, [r7, #7]
 689:.\Generated_Source\PSoC5/USBFS.c **** 
 690:.\Generated_Source\PSoC5/USBFS.c ****     if(USBFS_configurationChanged != 0u)
 811              		.loc 1 690 0
 812 000c 40F20003 		movw	r3, #:lower16:USBFS_configurationChanged
 813 0010 C0F20003 		movt	r3, #:upper16:USBFS_configurationChanged
 814 0014 1B78     		ldrb	r3, [r3, #0]
 815 0016 DBB2     		uxtb	r3, r3
 816 0018 002B     		cmp	r3, #0
 817 001a 0CD0     		beq	.L17
 691:.\Generated_Source\PSoC5/USBFS.c ****     {
 692:.\Generated_Source\PSoC5/USBFS.c ****         res = USBFS_configurationChanged;
 818              		.loc 1 692 0
 819 001c 40F20003 		movw	r3, #:lower16:USBFS_configurationChanged
 820 0020 C0F20003 		movt	r3, #:upper16:USBFS_configurationChanged
 821 0024 1B78     		ldrb	r3, [r3, #0]
 822 0026 FB71     		strb	r3, [r7, #7]
 693:.\Generated_Source\PSoC5/USBFS.c ****         USBFS_configurationChanged = 0u;
 823              		.loc 1 693 0
 824 0028 40F20003 		movw	r3, #:lower16:USBFS_configurationChanged
 825 002c C0F20003 		movt	r3, #:upper16:USBFS_configurationChanged
 826 0030 4FF00002 		mov	r2, #0
 827 0034 1A70     		strb	r2, [r3, #0]
 828              	.L17:
 694:.\Generated_Source\PSoC5/USBFS.c ****     }
 695:.\Generated_Source\PSoC5/USBFS.c **** 
 696:.\Generated_Source\PSoC5/USBFS.c ****     return(res);
 829              		.loc 1 696 0
 830 0036 FB79     		ldrb	r3, [r7, #7]	@ zero_extendqisi2
 697:.\Generated_Source\PSoC5/USBFS.c **** }
 831              		.loc 1 697 0
 832 0038 1846     		mov	r0, r3
 833 003a 07F10C07 		add	r7, r7, #12
 834 003e BD46     		mov	sp, r7
 835 0040 80BC     		pop	{r7}
 836 0042 7047     		bx	lr
 837              		.cfi_endproc
 838              	.LFE7:
 839              		.size	USBFS_IsConfigurationChanged, .-USBFS_IsConfigurationChanged
 840              		.section	.text.USBFS_GetInterfaceSetting,"ax",%progbits
 841              		.align	2
 842              		.global	USBFS_GetInterfaceSetting
ARM GAS  C:\Users\VICTOR~1\AppData\Local\Temp\ccn4KLip.s 			page 28


 843              		.thumb
 844              		.thumb_func
 845              		.type	USBFS_GetInterfaceSetting, %function
 846              	USBFS_GetInterfaceSetting:
 847              	.LFB8:
 698:.\Generated_Source\PSoC5/USBFS.c **** 
 699:.\Generated_Source\PSoC5/USBFS.c **** 
 700:.\Generated_Source\PSoC5/USBFS.c **** /*******************************************************************************
 701:.\Generated_Source\PSoC5/USBFS.c **** * Function Name: USBFS_GetInterfaceSetting
 702:.\Generated_Source\PSoC5/USBFS.c **** ********************************************************************************
 703:.\Generated_Source\PSoC5/USBFS.c **** *
 704:.\Generated_Source\PSoC5/USBFS.c **** * Summary:
 705:.\Generated_Source\PSoC5/USBFS.c **** *  Returns the alternate setting from current interface
 706:.\Generated_Source\PSoC5/USBFS.c **** *
 707:.\Generated_Source\PSoC5/USBFS.c **** * Parameters:
 708:.\Generated_Source\PSoC5/USBFS.c **** *  uint8 interfaceNumber, interface number
 709:.\Generated_Source\PSoC5/USBFS.c **** *
 710:.\Generated_Source\PSoC5/USBFS.c **** * Return:
 711:.\Generated_Source\PSoC5/USBFS.c **** *  Alternate setting.
 712:.\Generated_Source\PSoC5/USBFS.c **** *
 713:.\Generated_Source\PSoC5/USBFS.c **** *******************************************************************************/
 714:.\Generated_Source\PSoC5/USBFS.c **** uint8  USBFS_GetInterfaceSetting(uint8 interfaceNumber)
 715:.\Generated_Source\PSoC5/USBFS.c ****                                                     
 716:.\Generated_Source\PSoC5/USBFS.c **** {
 848              		.loc 1 716 0
 849              		.cfi_startproc
 850              		@ args = 0, pretend = 0, frame = 8
 851              		@ frame_needed = 1, uses_anonymous_args = 0
 852              		@ link register save eliminated.
 853 0000 80B4     		push	{r7}
 854              	.LCFI21:
 855              		.cfi_def_cfa_offset 4
 856              		.cfi_offset 7, -4
 857 0002 83B0     		sub	sp, sp, #12
 858              	.LCFI22:
 859              		.cfi_def_cfa_offset 16
 860 0004 00AF     		add	r7, sp, #0
 861              	.LCFI23:
 862              		.cfi_def_cfa_register 7
 863 0006 0346     		mov	r3, r0
 864 0008 FB71     		strb	r3, [r7, #7]
 717:.\Generated_Source\PSoC5/USBFS.c ****     return(USBFS_interfaceSetting[interfaceNumber]);
 865              		.loc 1 717 0
 866 000a FA79     		ldrb	r2, [r7, #7]	@ zero_extendqisi2
 867 000c 40F20003 		movw	r3, #:lower16:USBFS_interfaceSetting
 868 0010 C0F20003 		movt	r3, #:upper16:USBFS_interfaceSetting
 869 0014 9B5C     		ldrb	r3, [r3, r2]
 870 0016 DBB2     		uxtb	r3, r3
 718:.\Generated_Source\PSoC5/USBFS.c **** }
 871              		.loc 1 718 0
 872 0018 1846     		mov	r0, r3
 873 001a 07F10C07 		add	r7, r7, #12
 874 001e BD46     		mov	sp, r7
 875 0020 80BC     		pop	{r7}
 876 0022 7047     		bx	lr
 877              		.cfi_endproc
 878              	.LFE8:
ARM GAS  C:\Users\VICTOR~1\AppData\Local\Temp\ccn4KLip.s 			page 29


 879              		.size	USBFS_GetInterfaceSetting, .-USBFS_GetInterfaceSetting
 880              		.section	.text.USBFS_GetEPState,"ax",%progbits
 881              		.align	2
 882              		.global	USBFS_GetEPState
 883              		.thumb
 884              		.thumb_func
 885              		.type	USBFS_GetEPState, %function
 886              	USBFS_GetEPState:
 887              	.LFB9:
 719:.\Generated_Source\PSoC5/USBFS.c **** 
 720:.\Generated_Source\PSoC5/USBFS.c **** 
 721:.\Generated_Source\PSoC5/USBFS.c **** /*******************************************************************************
 722:.\Generated_Source\PSoC5/USBFS.c **** * Function Name: USBFS_GetEPState
 723:.\Generated_Source\PSoC5/USBFS.c **** ********************************************************************************
 724:.\Generated_Source\PSoC5/USBFS.c **** *
 725:.\Generated_Source\PSoC5/USBFS.c **** * Summary:
 726:.\Generated_Source\PSoC5/USBFS.c **** *  Returned the state of the requested endpoint.
 727:.\Generated_Source\PSoC5/USBFS.c **** *
 728:.\Generated_Source\PSoC5/USBFS.c **** * Parameters:
 729:.\Generated_Source\PSoC5/USBFS.c **** *  epNumber: Endpoint Number
 730:.\Generated_Source\PSoC5/USBFS.c **** *
 731:.\Generated_Source\PSoC5/USBFS.c **** * Return:
 732:.\Generated_Source\PSoC5/USBFS.c **** *  State of the requested endpoint.
 733:.\Generated_Source\PSoC5/USBFS.c **** *
 734:.\Generated_Source\PSoC5/USBFS.c **** *******************************************************************************/
 735:.\Generated_Source\PSoC5/USBFS.c **** uint8 USBFS_GetEPState(uint8 epNumber) 
 736:.\Generated_Source\PSoC5/USBFS.c **** {
 888              		.loc 1 736 0
 889              		.cfi_startproc
 890              		@ args = 0, pretend = 0, frame = 8
 891              		@ frame_needed = 1, uses_anonymous_args = 0
 892              		@ link register save eliminated.
 893 0000 80B4     		push	{r7}
 894              	.LCFI24:
 895              		.cfi_def_cfa_offset 4
 896              		.cfi_offset 7, -4
 897 0002 83B0     		sub	sp, sp, #12
 898              	.LCFI25:
 899              		.cfi_def_cfa_offset 16
 900 0004 00AF     		add	r7, sp, #0
 901              	.LCFI26:
 902              		.cfi_def_cfa_register 7
 903 0006 0346     		mov	r3, r0
 904 0008 FB71     		strb	r3, [r7, #7]
 737:.\Generated_Source\PSoC5/USBFS.c ****     return(USBFS_EP[epNumber].apiEpState);
 905              		.loc 1 737 0
 906 000a F979     		ldrb	r1, [r7, #7]	@ zero_extendqisi2
 907 000c 40F20002 		movw	r2, #:lower16:USBFS_EP
 908 0010 C0F20002 		movt	r2, #:upper16:USBFS_EP
 909 0014 0B46     		mov	r3, r1
 910 0016 4FEA4303 		lsl	r3, r3, #1
 911 001a 5B18     		adds	r3, r3, r1
 912 001c 4FEA8303 		lsl	r3, r3, #2
 913 0020 D318     		adds	r3, r2, r3
 914 0022 5B78     		ldrb	r3, [r3, #1]
 915 0024 DBB2     		uxtb	r3, r3
 738:.\Generated_Source\PSoC5/USBFS.c **** }
ARM GAS  C:\Users\VICTOR~1\AppData\Local\Temp\ccn4KLip.s 			page 30


 916              		.loc 1 738 0
 917 0026 1846     		mov	r0, r3
 918 0028 07F10C07 		add	r7, r7, #12
 919 002c BD46     		mov	sp, r7
 920 002e 80BC     		pop	{r7}
 921 0030 7047     		bx	lr
 922              		.cfi_endproc
 923              	.LFE9:
 924              		.size	USBFS_GetEPState, .-USBFS_GetEPState
 925 0032 00BF     		.section	.text.USBFS_GetEPCount,"ax",%progbits
 926              		.align	2
 927              		.global	USBFS_GetEPCount
 928              		.thumb
 929              		.thumb_func
 930              		.type	USBFS_GetEPCount, %function
 931              	USBFS_GetEPCount:
 932              	.LFB10:
 739:.\Generated_Source\PSoC5/USBFS.c **** 
 740:.\Generated_Source\PSoC5/USBFS.c **** 
 741:.\Generated_Source\PSoC5/USBFS.c **** /*******************************************************************************
 742:.\Generated_Source\PSoC5/USBFS.c **** * Function Name: USBFS_GetEPCount
 743:.\Generated_Source\PSoC5/USBFS.c **** ********************************************************************************
 744:.\Generated_Source\PSoC5/USBFS.c **** *
 745:.\Generated_Source\PSoC5/USBFS.c **** * Summary:
 746:.\Generated_Source\PSoC5/USBFS.c **** *  This function supports Data Endpoints only(EP1-EP8).
 747:.\Generated_Source\PSoC5/USBFS.c **** *  Returns the transfer count for the requested endpoint.  The value from
 748:.\Generated_Source\PSoC5/USBFS.c **** *  the count registers includes 2 counts for the two byte checksum of the
 749:.\Generated_Source\PSoC5/USBFS.c **** *  packet.  This function subtracts the two counts.
 750:.\Generated_Source\PSoC5/USBFS.c **** *
 751:.\Generated_Source\PSoC5/USBFS.c **** * Parameters:
 752:.\Generated_Source\PSoC5/USBFS.c **** *  epNumber: Data Endpoint Number.
 753:.\Generated_Source\PSoC5/USBFS.c **** *            Valid values are between 1 and 8.
 754:.\Generated_Source\PSoC5/USBFS.c **** *
 755:.\Generated_Source\PSoC5/USBFS.c **** * Return:
 756:.\Generated_Source\PSoC5/USBFS.c **** *  Returns the current byte count from the specified endpoint or 0 for an
 757:.\Generated_Source\PSoC5/USBFS.c **** *  invalid endpoint.
 758:.\Generated_Source\PSoC5/USBFS.c **** *
 759:.\Generated_Source\PSoC5/USBFS.c **** *******************************************************************************/
 760:.\Generated_Source\PSoC5/USBFS.c **** uint16 USBFS_GetEPCount(uint8 epNumber) 
 761:.\Generated_Source\PSoC5/USBFS.c **** {
 933              		.loc 1 761 0
 934              		.cfi_startproc
 935              		@ args = 0, pretend = 0, frame = 16
 936              		@ frame_needed = 1, uses_anonymous_args = 0
 937              		@ link register save eliminated.
 938 0000 80B4     		push	{r7}
 939              	.LCFI27:
 940              		.cfi_def_cfa_offset 4
 941              		.cfi_offset 7, -4
 942 0002 85B0     		sub	sp, sp, #20
 943              	.LCFI28:
 944              		.cfi_def_cfa_offset 24
 945 0004 00AF     		add	r7, sp, #0
 946              	.LCFI29:
 947              		.cfi_def_cfa_register 7
 948 0006 0346     		mov	r3, r0
 949 0008 FB71     		strb	r3, [r7, #7]
ARM GAS  C:\Users\VICTOR~1\AppData\Local\Temp\ccn4KLip.s 			page 31


 762:.\Generated_Source\PSoC5/USBFS.c ****     uint8 ri;
 763:.\Generated_Source\PSoC5/USBFS.c ****     uint16 result = 0u;
 950              		.loc 1 763 0
 951 000a 4FF00003 		mov	r3, #0
 952 000e FB81     		strh	r3, [r7, #14]	@ movhi
 764:.\Generated_Source\PSoC5/USBFS.c **** 
 765:.\Generated_Source\PSoC5/USBFS.c ****     if((epNumber > USBFS_EP0) && (epNumber < USBFS_MAX_EP))
 953              		.loc 1 765 0
 954 0010 FB79     		ldrb	r3, [r7, #7]	@ zero_extendqisi2
 955 0012 002B     		cmp	r3, #0
 956 0014 27D0     		beq	.L24
 957              		.loc 1 765 0 is_stmt 0 discriminator 1
 958 0016 FB79     		ldrb	r3, [r7, #7]	@ zero_extendqisi2
 959 0018 082B     		cmp	r3, #8
 960 001a 24D8     		bhi	.L24
 766:.\Generated_Source\PSoC5/USBFS.c ****     {
 767:.\Generated_Source\PSoC5/USBFS.c ****         ri = ((epNumber - USBFS_EP1) << USBFS_EPX_CNTX_ADDR_SHIFT);
 961              		.loc 1 767 0 is_stmt 1
 962 001c FB79     		ldrb	r3, [r7, #7]
 963 001e 03F1FF33 		add	r3, r3, #-1
 964 0022 DBB2     		uxtb	r3, r3
 965 0024 4FEA0313 		lsl	r3, r3, #4
 966 0028 7B73     		strb	r3, [r7, #13]
 768:.\Generated_Source\PSoC5/USBFS.c **** 
 769:.\Generated_Source\PSoC5/USBFS.c ****         result = (uint8)(CY_GET_REG8((reg8 *)(USBFS_SIE_EP1_CNT0_IND + ri)) &
 967              		.loc 1 769 0
 968 002a 7A7B     		ldrb	r2, [r7, #13]	@ zero_extendqisi2
 969 002c 46F20C03 		movw	r3, #24588
 970 0030 C4F20003 		movt	r3, 16384
 971 0034 D318     		adds	r3, r2, r3
 972 0036 1B78     		ldrb	r3, [r3, #0]
 973 0038 DBB2     		uxtb	r3, r3
 974 003a 03F00F03 		and	r3, r3, #15
 975 003e FB81     		strh	r3, [r7, #14]	@ movhi
 770:.\Generated_Source\PSoC5/USBFS.c ****                           USBFS_EPX_CNT0_MASK);
 771:.\Generated_Source\PSoC5/USBFS.c ****         result = (result << 8u) | CY_GET_REG8((reg8 *)(USBFS_SIE_EP1_CNT1_IND + ri));
 976              		.loc 1 771 0
 977 0040 FB89     		ldrh	r3, [r7, #14]
 978 0042 4FEA0323 		lsl	r3, r3, #8
 979 0046 9AB2     		uxth	r2, r3
 980 0048 797B     		ldrb	r1, [r7, #13]	@ zero_extendqisi2
 981 004a 46F20D03 		movw	r3, #24589
 982 004e C4F20003 		movt	r3, 16384
 983 0052 CB18     		adds	r3, r1, r3
 984 0054 1B78     		ldrb	r3, [r3, #0]
 985 0056 DBB2     		uxtb	r3, r3
 986 0058 1343     		orrs	r3, r3, r2
 987 005a 9BB2     		uxth	r3, r3
 988 005c FB81     		strh	r3, [r7, #14]	@ movhi
 772:.\Generated_Source\PSoC5/USBFS.c ****         result -= USBFS_EPX_CNTX_CRC_COUNT;
 989              		.loc 1 772 0
 990 005e FB89     		ldrh	r3, [r7, #14]	@ movhi
 991 0060 A3F10203 		sub	r3, r3, #2
 992 0064 FB81     		strh	r3, [r7, #14]	@ movhi
 993              	.L24:
 773:.\Generated_Source\PSoC5/USBFS.c ****     }
 774:.\Generated_Source\PSoC5/USBFS.c ****     return(result);
ARM GAS  C:\Users\VICTOR~1\AppData\Local\Temp\ccn4KLip.s 			page 32


 994              		.loc 1 774 0
 995 0066 FB89     		ldrh	r3, [r7, #14]
 775:.\Generated_Source\PSoC5/USBFS.c **** }
 996              		.loc 1 775 0
 997 0068 1846     		mov	r0, r3
 998 006a 07F11407 		add	r7, r7, #20
 999 006e BD46     		mov	sp, r7
 1000 0070 80BC     		pop	{r7}
 1001 0072 7047     		bx	lr
 1002              		.cfi_endproc
 1003              	.LFE10:
 1004              		.size	USBFS_GetEPCount, .-USBFS_GetEPCount
 1005              		.section	.text.USBFS_LoadInEP,"ax",%progbits
 1006              		.align	2
 1007              		.global	USBFS_LoadInEP
 1008              		.thumb
 1009              		.thumb_func
 1010              		.type	USBFS_LoadInEP, %function
 1011              	USBFS_LoadInEP:
 1012              	.LFB11:
 776:.\Generated_Source\PSoC5/USBFS.c **** 
 777:.\Generated_Source\PSoC5/USBFS.c **** 
 778:.\Generated_Source\PSoC5/USBFS.c **** #if(USBFS_EP_MM != USBFS__EP_MANUAL)
 779:.\Generated_Source\PSoC5/USBFS.c **** 
 780:.\Generated_Source\PSoC5/USBFS.c **** 
 781:.\Generated_Source\PSoC5/USBFS.c ****     /*******************************************************************************
 782:.\Generated_Source\PSoC5/USBFS.c ****     * Function Name: USBFS_InitEP_DMA
 783:.\Generated_Source\PSoC5/USBFS.c ****     ********************************************************************************
 784:.\Generated_Source\PSoC5/USBFS.c ****     *
 785:.\Generated_Source\PSoC5/USBFS.c ****     * Summary:
 786:.\Generated_Source\PSoC5/USBFS.c ****     *  This function allocates and initializes a DMA channel to be used by the
 787:.\Generated_Source\PSoC5/USBFS.c ****     *  USBFS_LoadInEP() or USBFS_ReadOutEP() APIs for data
 788:.\Generated_Source\PSoC5/USBFS.c ****     *  transfer.
 789:.\Generated_Source\PSoC5/USBFS.c ****     *
 790:.\Generated_Source\PSoC5/USBFS.c ****     * Parameters:
 791:.\Generated_Source\PSoC5/USBFS.c ****     *  epNumber: Contains the data endpoint number.
 792:.\Generated_Source\PSoC5/USBFS.c ****     *            Valid values are between 1 and 8.
 793:.\Generated_Source\PSoC5/USBFS.c ****     *  *pData: Pointer to a data array that is related to the EP transfers.
 794:.\Generated_Source\PSoC5/USBFS.c ****     *
 795:.\Generated_Source\PSoC5/USBFS.c ****     * Return:
 796:.\Generated_Source\PSoC5/USBFS.c ****     *  None.
 797:.\Generated_Source\PSoC5/USBFS.c ****     *
 798:.\Generated_Source\PSoC5/USBFS.c ****     * Reentrant:
 799:.\Generated_Source\PSoC5/USBFS.c ****     *  No.
 800:.\Generated_Source\PSoC5/USBFS.c ****     *
 801:.\Generated_Source\PSoC5/USBFS.c ****     *******************************************************************************/
 802:.\Generated_Source\PSoC5/USBFS.c ****     void USBFS_InitEP_DMA(uint8 epNumber, const uint8* pData)
 803:.\Generated_Source\PSoC5/USBFS.c ****                                                                     
 804:.\Generated_Source\PSoC5/USBFS.c ****     {
 805:.\Generated_Source\PSoC5/USBFS.c ****         uint16 src;
 806:.\Generated_Source\PSoC5/USBFS.c ****         uint16 dst;
 807:.\Generated_Source\PSoC5/USBFS.c ****         #if (CY_PSOC3)                  /* PSoC 3 */
 808:.\Generated_Source\PSoC5/USBFS.c ****             src = HI16(CYDEV_SRAM_BASE);
 809:.\Generated_Source\PSoC5/USBFS.c ****             dst = HI16(CYDEV_PERIPH_BASE);
 810:.\Generated_Source\PSoC5/USBFS.c ****             pData = pData;
 811:.\Generated_Source\PSoC5/USBFS.c ****         #else                           /* PSoC 5 */
 812:.\Generated_Source\PSoC5/USBFS.c ****             if((USBFS_EP[epNumber].addr & USBFS_DIR_IN) != 0u )
ARM GAS  C:\Users\VICTOR~1\AppData\Local\Temp\ccn4KLip.s 			page 33


 813:.\Generated_Source\PSoC5/USBFS.c ****             {   /* for the IN EP source is the SRAM memory buffer */
 814:.\Generated_Source\PSoC5/USBFS.c ****                 src = HI16(pData);
 815:.\Generated_Source\PSoC5/USBFS.c ****                 dst = HI16(CYDEV_PERIPH_BASE);
 816:.\Generated_Source\PSoC5/USBFS.c ****             }
 817:.\Generated_Source\PSoC5/USBFS.c ****             else
 818:.\Generated_Source\PSoC5/USBFS.c ****             {   /* for the OUT EP source is the SIE register */
 819:.\Generated_Source\PSoC5/USBFS.c ****                 src = HI16(CYDEV_PERIPH_BASE);
 820:.\Generated_Source\PSoC5/USBFS.c ****                 dst = HI16(pData);
 821:.\Generated_Source\PSoC5/USBFS.c ****             }
 822:.\Generated_Source\PSoC5/USBFS.c ****         #endif  /*  C51 */
 823:.\Generated_Source\PSoC5/USBFS.c ****         switch(epNumber)
 824:.\Generated_Source\PSoC5/USBFS.c ****         {
 825:.\Generated_Source\PSoC5/USBFS.c ****             case USBFS_EP1:
 826:.\Generated_Source\PSoC5/USBFS.c ****                 #if(USBFS_DMA1_REMOVE == 0u)
 827:.\Generated_Source\PSoC5/USBFS.c ****                     USBFS_DmaChan[epNumber] = USBFS_ep1_DmaInitialize(
 828:.\Generated_Source\PSoC5/USBFS.c ****                         USBFS_DMA_BYTES_PER_BURST, USBFS_DMA_REQUEST_PER_BURST, src, dst);
 829:.\Generated_Source\PSoC5/USBFS.c ****                 #endif   /*  USBFS_DMA1_REMOVE */
 830:.\Generated_Source\PSoC5/USBFS.c ****                 break;
 831:.\Generated_Source\PSoC5/USBFS.c ****             case USBFS_EP2:
 832:.\Generated_Source\PSoC5/USBFS.c ****                 #if(USBFS_DMA2_REMOVE == 0u)
 833:.\Generated_Source\PSoC5/USBFS.c ****                     USBFS_DmaChan[epNumber] = USBFS_ep2_DmaInitialize(
 834:.\Generated_Source\PSoC5/USBFS.c ****                         USBFS_DMA_BYTES_PER_BURST, USBFS_DMA_REQUEST_PER_BURST, src, dst);
 835:.\Generated_Source\PSoC5/USBFS.c ****                 #endif   /*  USBFS_DMA2_REMOVE */
 836:.\Generated_Source\PSoC5/USBFS.c ****                 break;
 837:.\Generated_Source\PSoC5/USBFS.c ****             case USBFS_EP3:
 838:.\Generated_Source\PSoC5/USBFS.c ****                 #if(USBFS_DMA3_REMOVE == 0u)
 839:.\Generated_Source\PSoC5/USBFS.c ****                     USBFS_DmaChan[epNumber] = USBFS_ep3_DmaInitialize(
 840:.\Generated_Source\PSoC5/USBFS.c ****                         USBFS_DMA_BYTES_PER_BURST, USBFS_DMA_REQUEST_PER_BURST, src, dst);
 841:.\Generated_Source\PSoC5/USBFS.c ****                 #endif   /*  USBFS_DMA3_REMOVE */
 842:.\Generated_Source\PSoC5/USBFS.c ****                 break;
 843:.\Generated_Source\PSoC5/USBFS.c ****             case USBFS_EP4:
 844:.\Generated_Source\PSoC5/USBFS.c ****                 #if(USBFS_DMA4_REMOVE == 0u)
 845:.\Generated_Source\PSoC5/USBFS.c ****                     USBFS_DmaChan[epNumber] = USBFS_ep4_DmaInitialize(
 846:.\Generated_Source\PSoC5/USBFS.c ****                         USBFS_DMA_BYTES_PER_BURST, USBFS_DMA_REQUEST_PER_BURST, src, dst);
 847:.\Generated_Source\PSoC5/USBFS.c ****                 #endif   /*  USBFS_DMA4_REMOVE */
 848:.\Generated_Source\PSoC5/USBFS.c ****                 break;
 849:.\Generated_Source\PSoC5/USBFS.c ****             case USBFS_EP5:
 850:.\Generated_Source\PSoC5/USBFS.c ****                 #if(USBFS_DMA5_REMOVE == 0u)
 851:.\Generated_Source\PSoC5/USBFS.c ****                     USBFS_DmaChan[epNumber] = USBFS_ep5_DmaInitialize(
 852:.\Generated_Source\PSoC5/USBFS.c ****                         USBFS_DMA_BYTES_PER_BURST, USBFS_DMA_REQUEST_PER_BURST, src, dst);
 853:.\Generated_Source\PSoC5/USBFS.c ****                 #endif   /*  USBFS_DMA5_REMOVE */
 854:.\Generated_Source\PSoC5/USBFS.c ****                 break;
 855:.\Generated_Source\PSoC5/USBFS.c ****             case USBFS_EP6:
 856:.\Generated_Source\PSoC5/USBFS.c ****                 #if(USBFS_DMA6_REMOVE == 0u)
 857:.\Generated_Source\PSoC5/USBFS.c ****                     USBFS_DmaChan[epNumber] = USBFS_ep6_DmaInitialize(
 858:.\Generated_Source\PSoC5/USBFS.c ****                         USBFS_DMA_BYTES_PER_BURST, USBFS_DMA_REQUEST_PER_BURST, src, dst);
 859:.\Generated_Source\PSoC5/USBFS.c ****                 #endif   /*  USBFS_DMA6_REMOVE */
 860:.\Generated_Source\PSoC5/USBFS.c ****                 break;
 861:.\Generated_Source\PSoC5/USBFS.c ****             case USBFS_EP7:
 862:.\Generated_Source\PSoC5/USBFS.c ****                 #if(USBFS_DMA7_REMOVE == 0u)
 863:.\Generated_Source\PSoC5/USBFS.c ****                     USBFS_DmaChan[epNumber] = USBFS_ep7_DmaInitialize(
 864:.\Generated_Source\PSoC5/USBFS.c ****                         USBFS_DMA_BYTES_PER_BURST, USBFS_DMA_REQUEST_PER_BURST, src, dst);
 865:.\Generated_Source\PSoC5/USBFS.c ****                 #endif   /*  USBFS_DMA7_REMOVE */
 866:.\Generated_Source\PSoC5/USBFS.c ****                 break;
 867:.\Generated_Source\PSoC5/USBFS.c ****             case USBFS_EP8:
 868:.\Generated_Source\PSoC5/USBFS.c ****                 #if(USBFS_DMA8_REMOVE == 0u)
 869:.\Generated_Source\PSoC5/USBFS.c ****                     USBFS_DmaChan[epNumber] = USBFS_ep8_DmaInitialize(
ARM GAS  C:\Users\VICTOR~1\AppData\Local\Temp\ccn4KLip.s 			page 34


 870:.\Generated_Source\PSoC5/USBFS.c ****                         USBFS_DMA_BYTES_PER_BURST, USBFS_DMA_REQUEST_PER_BURST, src, dst);
 871:.\Generated_Source\PSoC5/USBFS.c ****                 #endif   /*  USBFS_DMA8_REMOVE */
 872:.\Generated_Source\PSoC5/USBFS.c ****                 break;
 873:.\Generated_Source\PSoC5/USBFS.c ****             default:
 874:.\Generated_Source\PSoC5/USBFS.c ****                 /* Do not support EP0 DMA transfers */
 875:.\Generated_Source\PSoC5/USBFS.c ****                 break;
 876:.\Generated_Source\PSoC5/USBFS.c ****         }
 877:.\Generated_Source\PSoC5/USBFS.c ****         if((epNumber > USBFS_EP0) && (epNumber < USBFS_MAX_EP))
 878:.\Generated_Source\PSoC5/USBFS.c ****         {
 879:.\Generated_Source\PSoC5/USBFS.c ****             USBFS_DmaTd[epNumber] = CyDmaTdAllocate();
 880:.\Generated_Source\PSoC5/USBFS.c ****             #if ((USBFS_EP_MM == USBFS__EP_DMAAUTO) && (USBFS_EP_DMA_AUTO_OPT == 0u))
 881:.\Generated_Source\PSoC5/USBFS.c ****                 USBFS_DmaNextTd[epNumber] = CyDmaTdAllocate();
 882:.\Generated_Source\PSoC5/USBFS.c ****             #endif /*  ((USBFS_EP_MM == USBFS__EP_DMAAUTO) && (USBFS_EP_DMA_AUTO_OPT == 0u)) */
 883:.\Generated_Source\PSoC5/USBFS.c **** 
 884:.\Generated_Source\PSoC5/USBFS.c ****         }
 885:.\Generated_Source\PSoC5/USBFS.c ****     }
 886:.\Generated_Source\PSoC5/USBFS.c **** 
 887:.\Generated_Source\PSoC5/USBFS.c **** 
 888:.\Generated_Source\PSoC5/USBFS.c ****     /*******************************************************************************
 889:.\Generated_Source\PSoC5/USBFS.c ****     * Function Name: USBFS_Stop_DMA
 890:.\Generated_Source\PSoC5/USBFS.c ****     ********************************************************************************
 891:.\Generated_Source\PSoC5/USBFS.c ****     *
 892:.\Generated_Source\PSoC5/USBFS.c ****     * Summary: Stops and free DMA
 893:.\Generated_Source\PSoC5/USBFS.c ****     *
 894:.\Generated_Source\PSoC5/USBFS.c ****     * Parameters:
 895:.\Generated_Source\PSoC5/USBFS.c ****     *  epNumber: Contains the data endpoint number or
 896:.\Generated_Source\PSoC5/USBFS.c ****     *           USBFS_MAX_EP to stop all DMAs
 897:.\Generated_Source\PSoC5/USBFS.c ****     *
 898:.\Generated_Source\PSoC5/USBFS.c ****     * Return:
 899:.\Generated_Source\PSoC5/USBFS.c ****     *  None.
 900:.\Generated_Source\PSoC5/USBFS.c ****     *
 901:.\Generated_Source\PSoC5/USBFS.c ****     * Reentrant:
 902:.\Generated_Source\PSoC5/USBFS.c ****     *  No.
 903:.\Generated_Source\PSoC5/USBFS.c ****     *
 904:.\Generated_Source\PSoC5/USBFS.c ****     *******************************************************************************/
 905:.\Generated_Source\PSoC5/USBFS.c ****     void USBFS_Stop_DMA(uint8 epNumber) 
 906:.\Generated_Source\PSoC5/USBFS.c ****     {
 907:.\Generated_Source\PSoC5/USBFS.c ****         uint8 i;
 908:.\Generated_Source\PSoC5/USBFS.c ****         i = (epNumber < USBFS_MAX_EP) ? epNumber : USBFS_EP1;
 909:.\Generated_Source\PSoC5/USBFS.c ****         do
 910:.\Generated_Source\PSoC5/USBFS.c ****         {
 911:.\Generated_Source\PSoC5/USBFS.c ****             if(USBFS_DmaTd[i] != DMA_INVALID_TD)
 912:.\Generated_Source\PSoC5/USBFS.c ****             {
 913:.\Generated_Source\PSoC5/USBFS.c ****                 (void) CyDmaChDisable(USBFS_DmaChan[i]);
 914:.\Generated_Source\PSoC5/USBFS.c ****                 CyDmaTdFree(USBFS_DmaTd[i]);
 915:.\Generated_Source\PSoC5/USBFS.c ****                 USBFS_DmaTd[i] = DMA_INVALID_TD;
 916:.\Generated_Source\PSoC5/USBFS.c ****             }
 917:.\Generated_Source\PSoC5/USBFS.c ****             #if ((USBFS_EP_MM == USBFS__EP_DMAAUTO) && (USBFS_EP_DMA_AUTO_OPT == 0u))
 918:.\Generated_Source\PSoC5/USBFS.c ****                 if(USBFS_DmaNextTd[i] != DMA_INVALID_TD)
 919:.\Generated_Source\PSoC5/USBFS.c ****                 {
 920:.\Generated_Source\PSoC5/USBFS.c ****                     CyDmaTdFree(USBFS_DmaNextTd[i]);
 921:.\Generated_Source\PSoC5/USBFS.c ****                     USBFS_DmaNextTd[i] = DMA_INVALID_TD;
 922:.\Generated_Source\PSoC5/USBFS.c ****                 }
 923:.\Generated_Source\PSoC5/USBFS.c ****             #endif /* ((USBFS_EP_MM == USBFS__EP_DMAAUTO) && (USBFS_EP_DMA_AUTO_OPT == 0u)) */
 924:.\Generated_Source\PSoC5/USBFS.c ****             i++;
 925:.\Generated_Source\PSoC5/USBFS.c ****         }while((i < USBFS_MAX_EP) && (epNumber == USBFS_MAX_EP));
 926:.\Generated_Source\PSoC5/USBFS.c ****     }
ARM GAS  C:\Users\VICTOR~1\AppData\Local\Temp\ccn4KLip.s 			page 35


 927:.\Generated_Source\PSoC5/USBFS.c **** 
 928:.\Generated_Source\PSoC5/USBFS.c **** #endif /*  USBFS_EP_MM != USBFS__EP_MANUAL */
 929:.\Generated_Source\PSoC5/USBFS.c **** 
 930:.\Generated_Source\PSoC5/USBFS.c **** 
 931:.\Generated_Source\PSoC5/USBFS.c **** #if ((USBFS_EP_MM == USBFS__EP_DMAAUTO) && (USBFS_EP_DMA_AUTO_OPT == 0u))
 932:.\Generated_Source\PSoC5/USBFS.c **** 
 933:.\Generated_Source\PSoC5/USBFS.c **** 
 934:.\Generated_Source\PSoC5/USBFS.c ****     /*******************************************************************************
 935:.\Generated_Source\PSoC5/USBFS.c ****     * Function Name: USBFS_LoadNextInEP
 936:.\Generated_Source\PSoC5/USBFS.c ****     ********************************************************************************
 937:.\Generated_Source\PSoC5/USBFS.c ****     *
 938:.\Generated_Source\PSoC5/USBFS.c ****     * Summary:
 939:.\Generated_Source\PSoC5/USBFS.c ****     *  This internal function is used for IN endpoint DMA reconfiguration in
 940:.\Generated_Source\PSoC5/USBFS.c ****     *  Auto DMA mode.
 941:.\Generated_Source\PSoC5/USBFS.c ****     *
 942:.\Generated_Source\PSoC5/USBFS.c ****     * Parameters:
 943:.\Generated_Source\PSoC5/USBFS.c ****     *  epNumber: Contains the data endpoint number.
 944:.\Generated_Source\PSoC5/USBFS.c ****     *  mode:   0 - Configure DMA to send the the rest of data.
 945:.\Generated_Source\PSoC5/USBFS.c ****     *          1 - Configure DMA to repeat 2 last bytes of the first burst.
 946:.\Generated_Source\PSoC5/USBFS.c ****     *
 947:.\Generated_Source\PSoC5/USBFS.c ****     * Return:
 948:.\Generated_Source\PSoC5/USBFS.c ****     *  None.
 949:.\Generated_Source\PSoC5/USBFS.c ****     *
 950:.\Generated_Source\PSoC5/USBFS.c ****     *******************************************************************************/
 951:.\Generated_Source\PSoC5/USBFS.c ****     void USBFS_LoadNextInEP(uint8 epNumber, uint8 mode) 
 952:.\Generated_Source\PSoC5/USBFS.c ****     {
 953:.\Generated_Source\PSoC5/USBFS.c ****         reg16 *convert;
 954:.\Generated_Source\PSoC5/USBFS.c **** 
 955:.\Generated_Source\PSoC5/USBFS.c ****         if(mode == 0u)
 956:.\Generated_Source\PSoC5/USBFS.c ****         {
 957:.\Generated_Source\PSoC5/USBFS.c ****             /* Configure DMA to send the the rest of data */
 958:.\Generated_Source\PSoC5/USBFS.c ****             /* CyDmaTdSetConfiguration API is optimised to change only transfer length and configur
 959:.\Generated_Source\PSoC5/USBFS.c ****             convert = (reg16 *) &CY_DMA_TDMEM_STRUCT_PTR[USBFS_DmaTd[epNumber]].TD0[0u];
 960:.\Generated_Source\PSoC5/USBFS.c ****             /* Set transfer length */
 961:.\Generated_Source\PSoC5/USBFS.c ****             CY_SET_REG16(convert, USBFS_inLength[epNumber] - USBFS_DMA_BYTES_PER_BURST);
 962:.\Generated_Source\PSoC5/USBFS.c ****             /* CyDmaTdSetAddress API is optimized to change only source address */
 963:.\Generated_Source\PSoC5/USBFS.c ****             convert = (reg16 *) &CY_DMA_TDMEM_STRUCT_PTR[USBFS_DmaTd[epNumber]].TD1[0u];
 964:.\Generated_Source\PSoC5/USBFS.c ****             CY_SET_REG16(convert, LO16((uint32)USBFS_inDataPointer[epNumber] +
 965:.\Generated_Source\PSoC5/USBFS.c ****                                             USBFS_DMA_BYTES_PER_BURST));
 966:.\Generated_Source\PSoC5/USBFS.c ****             USBFS_inBufFull[epNumber] = 1u;
 967:.\Generated_Source\PSoC5/USBFS.c ****         }
 968:.\Generated_Source\PSoC5/USBFS.c ****         else
 969:.\Generated_Source\PSoC5/USBFS.c ****         {
 970:.\Generated_Source\PSoC5/USBFS.c ****             /* Configure DMA to repeat 2 last bytes of the first burst. */
 971:.\Generated_Source\PSoC5/USBFS.c ****             /* CyDmaTdSetConfiguration API is optimised to change only transfer length and configur
 972:.\Generated_Source\PSoC5/USBFS.c ****             convert = (reg16 *) &CY_DMA_TDMEM_STRUCT_PTR[USBFS_DmaTd[epNumber]].TD0[0u];
 973:.\Generated_Source\PSoC5/USBFS.c ****             /* Set transfer length */
 974:.\Generated_Source\PSoC5/USBFS.c ****             CY_SET_REG16(convert, USBFS_DMA_BYTES_REPEAT);
 975:.\Generated_Source\PSoC5/USBFS.c ****             /* CyDmaTdSetAddress API is optimized to change only source address */
 976:.\Generated_Source\PSoC5/USBFS.c ****             convert = (reg16 *) &CY_DMA_TDMEM_STRUCT_PTR[USBFS_DmaTd[epNumber]].TD1[0u];
 977:.\Generated_Source\PSoC5/USBFS.c ****             CY_SET_REG16(convert,  LO16((uint32)USBFS_inDataPointer[epNumber] +
 978:.\Generated_Source\PSoC5/USBFS.c ****                                    USBFS_DMA_BYTES_PER_BURST - USBFS_DMA_BYTES_REPEAT));
 979:.\Generated_Source\PSoC5/USBFS.c ****         }
 980:.\Generated_Source\PSoC5/USBFS.c **** 
 981:.\Generated_Source\PSoC5/USBFS.c ****         /* CyDmaChSetInitialTd API is optimised to init TD */
 982:.\Generated_Source\PSoC5/USBFS.c ****         CY_DMA_CH_STRUCT_PTR[USBFS_DmaChan[epNumber]].basic_status[1u] = USBFS_DmaTd[epNumber];
 983:.\Generated_Source\PSoC5/USBFS.c ****     }
ARM GAS  C:\Users\VICTOR~1\AppData\Local\Temp\ccn4KLip.s 			page 36


 984:.\Generated_Source\PSoC5/USBFS.c **** #endif /* ((USBFS_EP_MM == USBFS__EP_DMAAUTO) && (USBFS_EP_DMA_AUTO_OPT == 0u)) */
 985:.\Generated_Source\PSoC5/USBFS.c **** 
 986:.\Generated_Source\PSoC5/USBFS.c **** 
 987:.\Generated_Source\PSoC5/USBFS.c **** /*******************************************************************************
 988:.\Generated_Source\PSoC5/USBFS.c **** * Function Name: USBFS_LoadInEP
 989:.\Generated_Source\PSoC5/USBFS.c **** ********************************************************************************
 990:.\Generated_Source\PSoC5/USBFS.c **** *
 991:.\Generated_Source\PSoC5/USBFS.c **** * Summary:
 992:.\Generated_Source\PSoC5/USBFS.c **** *  Loads and enables the specified USB data endpoint for an IN transfer.
 993:.\Generated_Source\PSoC5/USBFS.c **** *
 994:.\Generated_Source\PSoC5/USBFS.c **** * Parameters:
 995:.\Generated_Source\PSoC5/USBFS.c **** *  epNumber: Contains the data endpoint number.
 996:.\Generated_Source\PSoC5/USBFS.c **** *            Valid values are between 1 and 8.
 997:.\Generated_Source\PSoC5/USBFS.c **** *  *pData: A pointer to a data array from which the data for the endpoint space
 998:.\Generated_Source\PSoC5/USBFS.c **** *          is loaded.
 999:.\Generated_Source\PSoC5/USBFS.c **** *  length: The number of bytes to transfer from the array and then send as a
1000:.\Generated_Source\PSoC5/USBFS.c **** *          result of an IN request. Valid values are between 0 and 512.
1001:.\Generated_Source\PSoC5/USBFS.c **** *
1002:.\Generated_Source\PSoC5/USBFS.c **** * Return:
1003:.\Generated_Source\PSoC5/USBFS.c **** *  None.
1004:.\Generated_Source\PSoC5/USBFS.c **** *
1005:.\Generated_Source\PSoC5/USBFS.c **** * Reentrant:
1006:.\Generated_Source\PSoC5/USBFS.c **** *  No.
1007:.\Generated_Source\PSoC5/USBFS.c **** *
1008:.\Generated_Source\PSoC5/USBFS.c **** *******************************************************************************/
1009:.\Generated_Source\PSoC5/USBFS.c **** void USBFS_LoadInEP(uint8 epNumber, const uint8 pData[], uint16 length)
1010:.\Generated_Source\PSoC5/USBFS.c ****                                                                         
1011:.\Generated_Source\PSoC5/USBFS.c **** {
 1013              		.loc 1 1011 0
 1014              		.cfi_startproc
 1015              		@ args = 0, pretend = 0, frame = 16
 1016              		@ frame_needed = 1, uses_anonymous_args = 0
 1017              		@ link register save eliminated.
 1018 0000 90B4     		push	{r4, r7}
 1019              	.LCFI30:
 1020              		.cfi_def_cfa_offset 8
 1021              		.cfi_offset 4, -8
 1022              		.cfi_offset 7, -4
 1023 0002 84B0     		sub	sp, sp, #16
 1024              	.LCFI31:
 1025              		.cfi_def_cfa_offset 24
 1026 0004 00AF     		add	r7, sp, #0
 1027              	.LCFI32:
 1028              		.cfi_def_cfa_register 7
 1029 0006 3960     		str	r1, [r7, #0]
 1030 0008 1346     		mov	r3, r2
 1031 000a 0246     		mov	r2, r0
 1032 000c FA71     		strb	r2, [r7, #7]
 1033 000e BB80     		strh	r3, [r7, #4]	@ movhi
1012:.\Generated_Source\PSoC5/USBFS.c ****     uint8 ri;
1013:.\Generated_Source\PSoC5/USBFS.c ****     reg8 *p;
1014:.\Generated_Source\PSoC5/USBFS.c ****     #if(USBFS_EP_MM == USBFS__EP_MANUAL)
1015:.\Generated_Source\PSoC5/USBFS.c ****         uint16 i;
1016:.\Generated_Source\PSoC5/USBFS.c ****     #endif /*  USBFS_EP_MM == USBFS__EP_MANUAL */
1017:.\Generated_Source\PSoC5/USBFS.c **** 
1018:.\Generated_Source\PSoC5/USBFS.c ****     if((epNumber > USBFS_EP0) && (epNumber < USBFS_MAX_EP))
 1034              		.loc 1 1018 0
ARM GAS  C:\Users\VICTOR~1\AppData\Local\Temp\ccn4KLip.s 			page 37


 1035 0010 FB79     		ldrb	r3, [r7, #7]	@ zero_extendqisi2
 1036 0012 002B     		cmp	r3, #0
 1037 0014 00F09680 		beq	.L26
 1038              		.loc 1 1018 0 is_stmt 0 discriminator 1
 1039 0018 FB79     		ldrb	r3, [r7, #7]	@ zero_extendqisi2
 1040 001a 082B     		cmp	r3, #8
 1041 001c 00F29280 		bhi	.L26
1019:.\Generated_Source\PSoC5/USBFS.c ****     {
1020:.\Generated_Source\PSoC5/USBFS.c ****         ri = ((epNumber - USBFS_EP1) << USBFS_EPX_CNTX_ADDR_SHIFT);
 1042              		.loc 1 1020 0 is_stmt 1
 1043 0020 FB79     		ldrb	r3, [r7, #7]
 1044 0022 03F1FF33 		add	r3, r3, #-1
 1045 0026 DBB2     		uxtb	r3, r3
 1046 0028 4FEA0313 		lsl	r3, r3, #4
 1047 002c 7B73     		strb	r3, [r7, #13]
1021:.\Generated_Source\PSoC5/USBFS.c ****         p = (reg8 *)(USBFS_ARB_RW1_DR_IND + ri);
 1048              		.loc 1 1021 0
 1049 002e 7A7B     		ldrb	r2, [r7, #13]	@ zero_extendqisi2
 1050 0030 46F28803 		movw	r3, #24712
 1051 0034 C4F20003 		movt	r3, 16384
 1052 0038 D318     		adds	r3, r2, r3
 1053 003a BB60     		str	r3, [r7, #8]
1022:.\Generated_Source\PSoC5/USBFS.c **** 
1023:.\Generated_Source\PSoC5/USBFS.c ****         #if(USBFS_EP_MM != USBFS__EP_DMAAUTO)
1024:.\Generated_Source\PSoC5/USBFS.c ****             /* Limits length to available buffer space, auto MM could send packets up to 1024 bytes
1025:.\Generated_Source\PSoC5/USBFS.c ****             if(length > (USBFS_EPX_DATA_BUF_MAX - USBFS_EP[epNumber].buffOffset))
 1054              		.loc 1 1025 0
 1055 003c B888     		ldrh	r0, [r7, #4]
 1056 003e F979     		ldrb	r1, [r7, #7]	@ zero_extendqisi2
 1057 0040 40F20002 		movw	r2, #:lower16:USBFS_EP
 1058 0044 C0F20002 		movt	r2, #:upper16:USBFS_EP
 1059 0048 0B46     		mov	r3, r1
 1060 004a 4FEA4303 		lsl	r3, r3, #1
 1061 004e 5B18     		adds	r3, r3, r1
 1062 0050 4FEA8303 		lsl	r3, r3, #2
 1063 0054 D318     		adds	r3, r2, r3
 1064 0056 DB88     		ldrh	r3, [r3, #6]	@ movhi
 1065 0058 9BB2     		uxth	r3, r3
 1066 005a C3F50073 		rsb	r3, r3, #512
 1067 005e 9842     		cmp	r0, r3
 1068 0060 10D9     		bls	.L28
1026:.\Generated_Source\PSoC5/USBFS.c ****             {
1027:.\Generated_Source\PSoC5/USBFS.c ****                 length = USBFS_EPX_DATA_BUF_MAX - USBFS_EP[epNumber].buffOffset;
 1069              		.loc 1 1027 0
 1070 0062 F979     		ldrb	r1, [r7, #7]	@ zero_extendqisi2
 1071 0064 40F20002 		movw	r2, #:lower16:USBFS_EP
 1072 0068 C0F20002 		movt	r2, #:upper16:USBFS_EP
 1073 006c 0B46     		mov	r3, r1
 1074 006e 4FEA4303 		lsl	r3, r3, #1
 1075 0072 5B18     		adds	r3, r3, r1
 1076 0074 4FEA8303 		lsl	r3, r3, #2
 1077 0078 D318     		adds	r3, r2, r3
 1078 007a DB88     		ldrh	r3, [r3, #6]	@ movhi
 1079 007c 9BB2     		uxth	r3, r3
 1080 007e C3F50073 		rsb	r3, r3, #512
 1081 0082 BB80     		strh	r3, [r7, #4]	@ movhi
 1082              	.L28:
ARM GAS  C:\Users\VICTOR~1\AppData\Local\Temp\ccn4KLip.s 			page 38


1028:.\Generated_Source\PSoC5/USBFS.c ****             }
1029:.\Generated_Source\PSoC5/USBFS.c ****         #endif /*  USBFS_EP_MM != USBFS__EP_DMAAUTO */
1030:.\Generated_Source\PSoC5/USBFS.c **** 
1031:.\Generated_Source\PSoC5/USBFS.c ****         /* Set the count and data toggle */
1032:.\Generated_Source\PSoC5/USBFS.c ****         CY_SET_REG8((reg8 *)(USBFS_SIE_EP1_CNT0_IND + ri),
 1083              		.loc 1 1032 0
 1084 0084 7A7B     		ldrb	r2, [r7, #13]	@ zero_extendqisi2
 1085 0086 46F20C03 		movw	r3, #24588
 1086 008a C4F20003 		movt	r3, 16384
 1087 008e D318     		adds	r3, r2, r3
 1088 0090 1846     		mov	r0, r3
 1089 0092 BB88     		ldrh	r3, [r7, #4]
 1090 0094 4FEA1323 		lsr	r3, r3, #8
 1091 0098 9BB2     		uxth	r3, r3
 1092 009a DCB2     		uxtb	r4, r3
 1093 009c F979     		ldrb	r1, [r7, #7]	@ zero_extendqisi2
 1094 009e 40F20002 		movw	r2, #:lower16:USBFS_EP
 1095 00a2 C0F20002 		movt	r2, #:upper16:USBFS_EP
 1096 00a6 0B46     		mov	r3, r1
 1097 00a8 4FEA4303 		lsl	r3, r3, #1
 1098 00ac 5B18     		adds	r3, r3, r1
 1099 00ae 4FEA8303 		lsl	r3, r3, #2
 1100 00b2 D318     		adds	r3, r2, r3
 1101 00b4 DB78     		ldrb	r3, [r3, #3]
 1102 00b6 DBB2     		uxtb	r3, r3
 1103 00b8 2343     		orrs	r3, r3, r4
 1104 00ba DBB2     		uxtb	r3, r3
 1105 00bc 0370     		strb	r3, [r0, #0]
1033:.\Generated_Source\PSoC5/USBFS.c ****                             (length >> 8u) | (USBFS_EP[epNumber].epToggle));
1034:.\Generated_Source\PSoC5/USBFS.c ****         CY_SET_REG8((reg8 *)(USBFS_SIE_EP1_CNT1_IND + ri),  length & 0xFFu);
 1106              		.loc 1 1034 0
 1107 00be 7A7B     		ldrb	r2, [r7, #13]	@ zero_extendqisi2
 1108 00c0 46F20D03 		movw	r3, #24589
 1109 00c4 C4F20003 		movt	r3, 16384
 1110 00c8 D318     		adds	r3, r2, r3
 1111 00ca BA88     		ldrh	r2, [r7, #4]	@ movhi
 1112 00cc D2B2     		uxtb	r2, r2
 1113 00ce 1A70     		strb	r2, [r3, #0]
1035:.\Generated_Source\PSoC5/USBFS.c **** 
1036:.\Generated_Source\PSoC5/USBFS.c ****         #if(USBFS_EP_MM == USBFS__EP_MANUAL)
1037:.\Generated_Source\PSoC5/USBFS.c ****             if(pData != NULL)
 1114              		.loc 1 1037 0
 1115 00d0 3B68     		ldr	r3, [r7, #0]
 1116 00d2 002B     		cmp	r3, #0
 1117 00d4 11D0     		beq	.L29
1038:.\Generated_Source\PSoC5/USBFS.c ****             {
1039:.\Generated_Source\PSoC5/USBFS.c ****                 /* Copy the data using the arbiter data register */
1040:.\Generated_Source\PSoC5/USBFS.c ****                 for (i = 0u; i < length; i++)
 1118              		.loc 1 1040 0
 1119 00d6 4FF00003 		mov	r3, #0
 1120 00da FB81     		strh	r3, [r7, #14]	@ movhi
 1121 00dc 09E0     		b	.L30
 1122              	.L31:
1041:.\Generated_Source\PSoC5/USBFS.c ****                 {
1042:.\Generated_Source\PSoC5/USBFS.c ****                     CY_SET_REG8(p, pData[i]);
 1123              		.loc 1 1042 0 discriminator 2
 1124 00de FB89     		ldrh	r3, [r7, #14]
ARM GAS  C:\Users\VICTOR~1\AppData\Local\Temp\ccn4KLip.s 			page 39


 1125 00e0 3A68     		ldr	r2, [r7, #0]
 1126 00e2 D318     		adds	r3, r2, r3
 1127 00e4 1A78     		ldrb	r2, [r3, #0]	@ zero_extendqisi2
 1128 00e6 BB68     		ldr	r3, [r7, #8]
 1129 00e8 1A70     		strb	r2, [r3, #0]
1040:.\Generated_Source\PSoC5/USBFS.c ****                 for (i = 0u; i < length; i++)
 1130              		.loc 1 1040 0 discriminator 2
 1131 00ea FB89     		ldrh	r3, [r7, #14]	@ movhi
 1132 00ec 03F10103 		add	r3, r3, #1
 1133 00f0 FB81     		strh	r3, [r7, #14]	@ movhi
 1134              	.L30:
1040:.\Generated_Source\PSoC5/USBFS.c ****                 for (i = 0u; i < length; i++)
 1135              		.loc 1 1040 0 is_stmt 0 discriminator 1
 1136 00f2 FA89     		ldrh	r2, [r7, #14]
 1137 00f4 BB88     		ldrh	r3, [r7, #4]
 1138 00f6 9A42     		cmp	r2, r3
 1139 00f8 F1D3     		bcc	.L31
 1140              	.L29:
1043:.\Generated_Source\PSoC5/USBFS.c ****                 }
1044:.\Generated_Source\PSoC5/USBFS.c ****             }
1045:.\Generated_Source\PSoC5/USBFS.c ****             USBFS_EP[epNumber].apiEpState = USBFS_NO_EVENT_PENDING;
 1141              		.loc 1 1045 0 is_stmt 1
 1142 00fa F979     		ldrb	r1, [r7, #7]	@ zero_extendqisi2
 1143 00fc 40F20002 		movw	r2, #:lower16:USBFS_EP
 1144 0100 C0F20002 		movt	r2, #:upper16:USBFS_EP
 1145 0104 0B46     		mov	r3, r1
 1146 0106 4FEA4303 		lsl	r3, r3, #1
 1147 010a 5B18     		adds	r3, r3, r1
 1148 010c 4FEA8303 		lsl	r3, r3, #2
 1149 0110 D318     		adds	r3, r2, r3
 1150 0112 4FF00002 		mov	r2, #0
 1151 0116 5A70     		strb	r2, [r3, #1]
1046:.\Generated_Source\PSoC5/USBFS.c ****             /* Write the Mode register */
1047:.\Generated_Source\PSoC5/USBFS.c ****             CY_SET_REG8((reg8 *)(USBFS_SIE_EP1_CR0_IND + ri), USBFS_EP[epNumber].epMode);
 1152              		.loc 1 1047 0
 1153 0118 7A7B     		ldrb	r2, [r7, #13]	@ zero_extendqisi2
 1154 011a 46F20E03 		movw	r3, #24590
 1155 011e C4F20003 		movt	r3, 16384
 1156 0122 D318     		adds	r3, r2, r3
 1157 0124 1846     		mov	r0, r3
 1158 0126 F979     		ldrb	r1, [r7, #7]	@ zero_extendqisi2
 1159 0128 40F20002 		movw	r2, #:lower16:USBFS_EP
 1160 012c C0F20002 		movt	r2, #:upper16:USBFS_EP
 1161 0130 0B46     		mov	r3, r1
 1162 0132 4FEA4303 		lsl	r3, r3, #1
 1163 0136 5B18     		adds	r3, r3, r1
 1164 0138 4FEA8303 		lsl	r3, r3, #2
 1165 013c D318     		adds	r3, r2, r3
 1166 013e 5B79     		ldrb	r3, [r3, #5]
 1167 0140 DBB2     		uxtb	r3, r3
 1168 0142 0370     		strb	r3, [r0, #0]
 1169              	.L26:
1048:.\Generated_Source\PSoC5/USBFS.c ****         #else
1049:.\Generated_Source\PSoC5/USBFS.c ****             /* Init DMA if it was not initialized */
1050:.\Generated_Source\PSoC5/USBFS.c ****             if (USBFS_DmaTd[epNumber] == DMA_INVALID_TD)
1051:.\Generated_Source\PSoC5/USBFS.c ****             {
1052:.\Generated_Source\PSoC5/USBFS.c ****                 USBFS_InitEP_DMA(epNumber, pData);
ARM GAS  C:\Users\VICTOR~1\AppData\Local\Temp\ccn4KLip.s 			page 40


1053:.\Generated_Source\PSoC5/USBFS.c ****             }
1054:.\Generated_Source\PSoC5/USBFS.c ****         #endif /*  USBFS_EP_MM == USBFS__EP_MANUAL */
1055:.\Generated_Source\PSoC5/USBFS.c **** 
1056:.\Generated_Source\PSoC5/USBFS.c ****         #if(USBFS_EP_MM == USBFS__EP_DMAMANUAL)
1057:.\Generated_Source\PSoC5/USBFS.c ****             USBFS_EP[epNumber].apiEpState = USBFS_NO_EVENT_PENDING;
1058:.\Generated_Source\PSoC5/USBFS.c ****             if ((pData != NULL) && (length > 0u))
1059:.\Generated_Source\PSoC5/USBFS.c ****             {
1060:.\Generated_Source\PSoC5/USBFS.c ****                 /* Enable DMA in mode2 for transferring data */
1061:.\Generated_Source\PSoC5/USBFS.c ****                 (void) CyDmaChDisable(USBFS_DmaChan[epNumber]);
1062:.\Generated_Source\PSoC5/USBFS.c ****                 (void) CyDmaTdSetConfiguration(USBFS_DmaTd[epNumber], length, CY_DMA_DISABLE_TD,
1063:.\Generated_Source\PSoC5/USBFS.c ****                                                                                  TD_TERMIN_EN | TD_
1064:.\Generated_Source\PSoC5/USBFS.c ****                 (void) CyDmaTdSetAddress(USBFS_DmaTd[epNumber],  LO16((uint32)pData), LO16((uint32)
1065:.\Generated_Source\PSoC5/USBFS.c ****                 /* Enable the DMA */
1066:.\Generated_Source\PSoC5/USBFS.c ****                 (void) CyDmaChSetInitialTd(USBFS_DmaChan[epNumber], USBFS_DmaTd[epNumber]);
1067:.\Generated_Source\PSoC5/USBFS.c ****                 (void) CyDmaChEnable(USBFS_DmaChan[epNumber], 1u);
1068:.\Generated_Source\PSoC5/USBFS.c ****                 /* Generate DMA request */
1069:.\Generated_Source\PSoC5/USBFS.c ****                 * (reg8 *)(USBFS_ARB_EP1_CFG_IND + ri) |= USBFS_ARB_EPX_CFG_DMA_REQ;
1070:.\Generated_Source\PSoC5/USBFS.c ****                 * (reg8 *)(USBFS_ARB_EP1_CFG_IND + ri) &= ((uint8)(~USBFS_ARB_EPX_CFG_DMA_REQ));
1071:.\Generated_Source\PSoC5/USBFS.c ****                 /* Mode register will be written in arb ISR after DMA transfer complete */
1072:.\Generated_Source\PSoC5/USBFS.c ****             }
1073:.\Generated_Source\PSoC5/USBFS.c ****             else
1074:.\Generated_Source\PSoC5/USBFS.c ****             {
1075:.\Generated_Source\PSoC5/USBFS.c ****                 /* When zero-length packet - write the Mode register directly */
1076:.\Generated_Source\PSoC5/USBFS.c ****                 CY_SET_REG8((reg8 *)(USBFS_SIE_EP1_CR0_IND + ri), USBFS_EP[epNumber].epMode);
1077:.\Generated_Source\PSoC5/USBFS.c ****             }
1078:.\Generated_Source\PSoC5/USBFS.c ****         #endif /*  USBFS_EP_MM == USBFS__EP_DMAMANUAL */
1079:.\Generated_Source\PSoC5/USBFS.c **** 
1080:.\Generated_Source\PSoC5/USBFS.c ****         #if(USBFS_EP_MM == USBFS__EP_DMAAUTO)
1081:.\Generated_Source\PSoC5/USBFS.c ****             if (pData != NULL)
1082:.\Generated_Source\PSoC5/USBFS.c ****             {
1083:.\Generated_Source\PSoC5/USBFS.c ****                 /* Enable DMA in mode3 for transferring data */
1084:.\Generated_Source\PSoC5/USBFS.c ****                 (void) CyDmaChDisable(USBFS_DmaChan[epNumber]);
1085:.\Generated_Source\PSoC5/USBFS.c ****             #if (USBFS_EP_DMA_AUTO_OPT == 0u)
1086:.\Generated_Source\PSoC5/USBFS.c ****                 USBFS_inLength[epNumber] = length;
1087:.\Generated_Source\PSoC5/USBFS.c ****                 USBFS_inDataPointer[epNumber] = pData;
1088:.\Generated_Source\PSoC5/USBFS.c ****                 /* Configure DMA to send the data only for the first burst */
1089:.\Generated_Source\PSoC5/USBFS.c ****                 (void) CyDmaTdSetConfiguration(USBFS_DmaTd[epNumber],
1090:.\Generated_Source\PSoC5/USBFS.c ****                     (length > USBFS_DMA_BYTES_PER_BURST) ? USBFS_DMA_BYTES_PER_BURST : length,
1091:.\Generated_Source\PSoC5/USBFS.c ****                     USBFS_DmaNextTd[epNumber], TD_TERMIN_EN | TD_INC_SRC_ADR);
1092:.\Generated_Source\PSoC5/USBFS.c ****                 (void) CyDmaTdSetAddress(USBFS_DmaTd[epNumber],  LO16((uint32)pData), LO16((uint32)
1093:.\Generated_Source\PSoC5/USBFS.c ****                 /* The second TD will be executed only when the first one fails.
1094:.\Generated_Source\PSoC5/USBFS.c ****                 *  The intention of this TD is to generate NRQ interrupt
1095:.\Generated_Source\PSoC5/USBFS.c ****                 *  and repeat 2 last bytes of the first burst.
1096:.\Generated_Source\PSoC5/USBFS.c ****                 */
1097:.\Generated_Source\PSoC5/USBFS.c ****                 (void) CyDmaTdSetConfiguration(USBFS_DmaNextTd[epNumber], 1u,
1098:.\Generated_Source\PSoC5/USBFS.c ****                                                USBFS_DmaNextTd[epNumber],
1099:.\Generated_Source\PSoC5/USBFS.c ****                                                USBFS_epX_TD_TERMOUT_EN[epNumber]);
1100:.\Generated_Source\PSoC5/USBFS.c ****                 /* Configure DmaNextTd to clear Data ready status */
1101:.\Generated_Source\PSoC5/USBFS.c ****                 (void) CyDmaTdSetAddress(USBFS_DmaNextTd[epNumber],  LO16((uint32)&clearInDataRdySt
1102:.\Generated_Source\PSoC5/USBFS.c ****                                                                 LO16((uint32)(USBFS_ARB_EP1_CFG_IND
1103:.\Generated_Source\PSoC5/USBFS.c ****             #else /* Configure DMA to send all data*/
1104:.\Generated_Source\PSoC5/USBFS.c ****                 (void) CyDmaTdSetConfiguration(USBFS_DmaTd[epNumber], length,
1105:.\Generated_Source\PSoC5/USBFS.c ****                                                USBFS_DmaTd[epNumber], TD_TERMIN_EN | TD_INC_SRC_ADR
1106:.\Generated_Source\PSoC5/USBFS.c ****                 (void) CyDmaTdSetAddress(USBFS_DmaTd[epNumber],  LO16((uint32)pData), LO16((uint32)
1107:.\Generated_Source\PSoC5/USBFS.c ****             #endif /* USBFS_EP_DMA_AUTO_OPT == 0u */    
1108:.\Generated_Source\PSoC5/USBFS.c **** 
1109:.\Generated_Source\PSoC5/USBFS.c ****                 /* Clear Any potential pending DMA requests before starting the DMA channel to tran
ARM GAS  C:\Users\VICTOR~1\AppData\Local\Temp\ccn4KLip.s 			page 41


1110:.\Generated_Source\PSoC5/USBFS.c ****                 (void) CyDmaClearPendingDrq(USBFS_DmaChan[epNumber]);
1111:.\Generated_Source\PSoC5/USBFS.c ****                 /* Enable the DMA */
1112:.\Generated_Source\PSoC5/USBFS.c ****                 (void) CyDmaChSetInitialTd(USBFS_DmaChan[epNumber], USBFS_DmaTd[epNumber]);
1113:.\Generated_Source\PSoC5/USBFS.c ****                 (void) CyDmaChEnable(USBFS_DmaChan[epNumber], 1u);
1114:.\Generated_Source\PSoC5/USBFS.c ****             }
1115:.\Generated_Source\PSoC5/USBFS.c ****             else
1116:.\Generated_Source\PSoC5/USBFS.c ****             {
1117:.\Generated_Source\PSoC5/USBFS.c ****                 USBFS_EP[epNumber].apiEpState = USBFS_NO_EVENT_PENDING;
1118:.\Generated_Source\PSoC5/USBFS.c ****                 if(length > 0u)
1119:.\Generated_Source\PSoC5/USBFS.c ****                 {
1120:.\Generated_Source\PSoC5/USBFS.c ****                 #if (USBFS_EP_DMA_AUTO_OPT == 0u)
1121:.\Generated_Source\PSoC5/USBFS.c ****                     USBFS_inLength[epNumber] = length;
1122:.\Generated_Source\PSoC5/USBFS.c ****                     USBFS_inBufFull[epNumber] = 0u;
1123:.\Generated_Source\PSoC5/USBFS.c ****                     (void) CyDmaChDisable(USBFS_DmaChan[epNumber]);
1124:.\Generated_Source\PSoC5/USBFS.c ****                     /* Configure DMA to send the data only for the first burst */
1125:.\Generated_Source\PSoC5/USBFS.c ****                     (void) CyDmaTdSetConfiguration(
1126:.\Generated_Source\PSoC5/USBFS.c ****                         USBFS_DmaTd[epNumber], (length > USBFS_DMA_BYTES_PER_BURST) ?
1127:.\Generated_Source\PSoC5/USBFS.c ****                         USBFS_DMA_BYTES_PER_BURST : length,
1128:.\Generated_Source\PSoC5/USBFS.c ****                         USBFS_DmaNextTd[epNumber], TD_TERMIN_EN | TD_INC_SRC_ADR );
1129:.\Generated_Source\PSoC5/USBFS.c ****                     (void) CyDmaTdSetAddress(USBFS_DmaTd[epNumber],
1130:.\Generated_Source\PSoC5/USBFS.c ****                                              LO16((uint32)USBFS_inDataPointer[epNumber]), LO16((uin
1131:.\Generated_Source\PSoC5/USBFS.c ****                     /* Clear Any potential pending DMA requests before starting the DMA channel to 
1132:.\Generated_Source\PSoC5/USBFS.c ****                     (void) CyDmaClearPendingDrq(USBFS_DmaChan[epNumber]);
1133:.\Generated_Source\PSoC5/USBFS.c ****                     /* Enable the DMA */
1134:.\Generated_Source\PSoC5/USBFS.c ****                     (void) CyDmaChSetInitialTd(USBFS_DmaChan[epNumber], USBFS_DmaTd[epNumber]);
1135:.\Generated_Source\PSoC5/USBFS.c ****                     (void) CyDmaChEnable(USBFS_DmaChan[epNumber], 1u);
1136:.\Generated_Source\PSoC5/USBFS.c ****                 #endif /* (USBFS_EP_DMA_AUTO_OPT == 0u) */
1137:.\Generated_Source\PSoC5/USBFS.c **** 
1138:.\Generated_Source\PSoC5/USBFS.c ****                     /* Set Data ready status, This will generate DMA request */
1139:.\Generated_Source\PSoC5/USBFS.c ****                     #ifndef USBFS_MANUAL_IN_EP_ARM
1140:.\Generated_Source\PSoC5/USBFS.c ****                         * (reg8 *)(USBFS_ARB_EP1_CFG_IND + ri) |= USBFS_ARB_EPX_CFG_IN_DATA_RDY;
1141:.\Generated_Source\PSoC5/USBFS.c ****                     #endif  /* USBFS_MANUAL_IN_EP_ARM */
1142:.\Generated_Source\PSoC5/USBFS.c ****                     /* Mode register will be written in arb ISR(In Buffer Full) after first DMA tra
1143:.\Generated_Source\PSoC5/USBFS.c ****                 }
1144:.\Generated_Source\PSoC5/USBFS.c ****                 else
1145:.\Generated_Source\PSoC5/USBFS.c ****                 {
1146:.\Generated_Source\PSoC5/USBFS.c ****                     /* When zero-length packet - write the Mode register directly */
1147:.\Generated_Source\PSoC5/USBFS.c ****                     CY_SET_REG8((reg8 *)(USBFS_SIE_EP1_CR0_IND + ri), USBFS_EP[epNumber].epMode);
1148:.\Generated_Source\PSoC5/USBFS.c ****                 }
1149:.\Generated_Source\PSoC5/USBFS.c ****             }
1150:.\Generated_Source\PSoC5/USBFS.c ****         #endif /*  USBFS_EP_MM == USBFS__EP_DMAAUTO */
1151:.\Generated_Source\PSoC5/USBFS.c ****     }
1152:.\Generated_Source\PSoC5/USBFS.c **** }
 1170              		.loc 1 1152 0
 1171 0144 07F11007 		add	r7, r7, #16
 1172 0148 BD46     		mov	sp, r7
 1173 014a 90BC     		pop	{r4, r7}
 1174 014c 7047     		bx	lr
 1175              		.cfi_endproc
 1176              	.LFE11:
 1177              		.size	USBFS_LoadInEP, .-USBFS_LoadInEP
 1178 014e 00BF     		.section	.text.USBFS_ReadOutEP,"ax",%progbits
 1179              		.align	2
 1180              		.global	USBFS_ReadOutEP
 1181              		.thumb
 1182              		.thumb_func
 1183              		.type	USBFS_ReadOutEP, %function
ARM GAS  C:\Users\VICTOR~1\AppData\Local\Temp\ccn4KLip.s 			page 42


 1184              	USBFS_ReadOutEP:
 1185              	.LFB12:
1153:.\Generated_Source\PSoC5/USBFS.c **** 
1154:.\Generated_Source\PSoC5/USBFS.c **** 
1155:.\Generated_Source\PSoC5/USBFS.c **** /*******************************************************************************
1156:.\Generated_Source\PSoC5/USBFS.c **** * Function Name: USBFS_ReadOutEP
1157:.\Generated_Source\PSoC5/USBFS.c **** ********************************************************************************
1158:.\Generated_Source\PSoC5/USBFS.c **** *
1159:.\Generated_Source\PSoC5/USBFS.c **** * Summary:
1160:.\Generated_Source\PSoC5/USBFS.c **** *  Read data from an endpoint.  The application must call
1161:.\Generated_Source\PSoC5/USBFS.c **** *  USBFS_GetEPState to see if an event is pending.
1162:.\Generated_Source\PSoC5/USBFS.c **** *
1163:.\Generated_Source\PSoC5/USBFS.c **** * Parameters:
1164:.\Generated_Source\PSoC5/USBFS.c **** *  epNumber: Contains the data endpoint number.
1165:.\Generated_Source\PSoC5/USBFS.c **** *            Valid values are between 1 and 8.
1166:.\Generated_Source\PSoC5/USBFS.c **** *  pData: A pointer to a data array from which the data for the endpoint space
1167:.\Generated_Source\PSoC5/USBFS.c **** *         is loaded.
1168:.\Generated_Source\PSoC5/USBFS.c **** *  length: The number of bytes to transfer from the USB Out endpoint and loads
1169:.\Generated_Source\PSoC5/USBFS.c **** *          it into data array. Valid values are between 0 and 1023. The function
1170:.\Generated_Source\PSoC5/USBFS.c **** *          moves fewer than the requested number of bytes if the host sends
1171:.\Generated_Source\PSoC5/USBFS.c **** *          fewer bytes than requested.
1172:.\Generated_Source\PSoC5/USBFS.c **** *
1173:.\Generated_Source\PSoC5/USBFS.c **** * Returns:
1174:.\Generated_Source\PSoC5/USBFS.c **** *  Number of bytes received, 0 for an invalid endpoint.
1175:.\Generated_Source\PSoC5/USBFS.c **** *
1176:.\Generated_Source\PSoC5/USBFS.c **** * Reentrant:
1177:.\Generated_Source\PSoC5/USBFS.c **** *  No.
1178:.\Generated_Source\PSoC5/USBFS.c **** *
1179:.\Generated_Source\PSoC5/USBFS.c **** *******************************************************************************/
1180:.\Generated_Source\PSoC5/USBFS.c **** uint16 USBFS_ReadOutEP(uint8 epNumber, uint8 pData[], uint16 length)
1181:.\Generated_Source\PSoC5/USBFS.c ****                                                                         
1182:.\Generated_Source\PSoC5/USBFS.c **** {
 1186              		.loc 1 1182 0
 1187              		.cfi_startproc
 1188              		@ args = 0, pretend = 0, frame = 24
 1189              		@ frame_needed = 1, uses_anonymous_args = 0
 1190 0000 80B5     		push	{r7, lr}
 1191              	.LCFI33:
 1192              		.cfi_def_cfa_offset 8
 1193              		.cfi_offset 7, -8
 1194              		.cfi_offset 14, -4
 1195 0002 86B0     		sub	sp, sp, #24
 1196              	.LCFI34:
 1197              		.cfi_def_cfa_offset 32
 1198 0004 00AF     		add	r7, sp, #0
 1199              	.LCFI35:
 1200              		.cfi_def_cfa_register 7
 1201 0006 3960     		str	r1, [r7, #0]
 1202 0008 1346     		mov	r3, r2
 1203 000a 0246     		mov	r2, r0
 1204 000c FA71     		strb	r2, [r7, #7]
 1205 000e BB80     		strh	r3, [r7, #4]	@ movhi
1183:.\Generated_Source\PSoC5/USBFS.c ****     uint8 ri;
1184:.\Generated_Source\PSoC5/USBFS.c ****     reg8 *p;
1185:.\Generated_Source\PSoC5/USBFS.c ****     #if(USBFS_EP_MM == USBFS__EP_MANUAL)
1186:.\Generated_Source\PSoC5/USBFS.c ****         uint16 i;
1187:.\Generated_Source\PSoC5/USBFS.c ****     #endif /*  USBFS_EP_MM == USBFS__EP_MANUAL */
ARM GAS  C:\Users\VICTOR~1\AppData\Local\Temp\ccn4KLip.s 			page 43


1188:.\Generated_Source\PSoC5/USBFS.c ****     #if(USBFS_EP_MM != USBFS__EP_DMAAUTO)
1189:.\Generated_Source\PSoC5/USBFS.c ****         uint16 xferCount;
1190:.\Generated_Source\PSoC5/USBFS.c ****     #endif /*  USBFS_EP_MM != USBFS__EP_DMAAUTO */
1191:.\Generated_Source\PSoC5/USBFS.c **** 
1192:.\Generated_Source\PSoC5/USBFS.c ****     if((epNumber > USBFS_EP0) && (epNumber < USBFS_MAX_EP) && (pData != NULL))
 1206              		.loc 1 1192 0
 1207 0010 FB79     		ldrb	r3, [r7, #7]	@ zero_extendqisi2
 1208 0012 002B     		cmp	r3, #0
 1209 0014 37D0     		beq	.L33
 1210              		.loc 1 1192 0 is_stmt 0 discriminator 1
 1211 0016 FB79     		ldrb	r3, [r7, #7]	@ zero_extendqisi2
 1212 0018 082B     		cmp	r3, #8
 1213 001a 34D8     		bhi	.L33
 1214 001c 3B68     		ldr	r3, [r7, #0]
 1215 001e 002B     		cmp	r3, #0
 1216 0020 31D0     		beq	.L33
1193:.\Generated_Source\PSoC5/USBFS.c ****     {
1194:.\Generated_Source\PSoC5/USBFS.c ****         ri = ((epNumber - USBFS_EP1) << USBFS_EPX_CNTX_ADDR_SHIFT);
 1217              		.loc 1 1194 0 is_stmt 1
 1218 0022 FB79     		ldrb	r3, [r7, #7]
 1219 0024 03F1FF33 		add	r3, r3, #-1
 1220 0028 DBB2     		uxtb	r3, r3
 1221 002a 4FEA0313 		lsl	r3, r3, #4
 1222 002e 7B75     		strb	r3, [r7, #21]
1195:.\Generated_Source\PSoC5/USBFS.c ****         p = (reg8 *)(USBFS_ARB_RW1_DR_IND + ri);
 1223              		.loc 1 1195 0
 1224 0030 7A7D     		ldrb	r2, [r7, #21]	@ zero_extendqisi2
 1225 0032 46F28803 		movw	r3, #24712
 1226 0036 C4F20003 		movt	r3, 16384
 1227 003a D318     		adds	r3, r2, r3
 1228 003c 3B61     		str	r3, [r7, #16]
1196:.\Generated_Source\PSoC5/USBFS.c **** 
1197:.\Generated_Source\PSoC5/USBFS.c ****         #if(USBFS_EP_MM != USBFS__EP_DMAAUTO)
1198:.\Generated_Source\PSoC5/USBFS.c ****             /* Determine which is smaller the requested data or the available data */
1199:.\Generated_Source\PSoC5/USBFS.c ****             xferCount = USBFS_GetEPCount(epNumber);
 1229              		.loc 1 1199 0
 1230 003e FB79     		ldrb	r3, [r7, #7]	@ zero_extendqisi2
 1231 0040 1846     		mov	r0, r3
 1232 0042 FFF7FEFF 		bl	USBFS_GetEPCount
 1233 0046 0346     		mov	r3, r0
 1234 0048 FB81     		strh	r3, [r7, #14]	@ movhi
1200:.\Generated_Source\PSoC5/USBFS.c ****             if (length > xferCount)
 1235              		.loc 1 1200 0
 1236 004a BA88     		ldrh	r2, [r7, #4]
 1237 004c FB89     		ldrh	r3, [r7, #14]
 1238 004e 9A42     		cmp	r2, r3
 1239 0050 01D9     		bls	.L34
1201:.\Generated_Source\PSoC5/USBFS.c ****             {
1202:.\Generated_Source\PSoC5/USBFS.c ****                 length = xferCount;
 1240              		.loc 1 1202 0
 1241 0052 FB89     		ldrh	r3, [r7, #14]	@ movhi
 1242 0054 BB80     		strh	r3, [r7, #4]	@ movhi
 1243              	.L34:
1203:.\Generated_Source\PSoC5/USBFS.c ****             }
1204:.\Generated_Source\PSoC5/USBFS.c ****         #endif /*  USBFS_EP_MM != USBFS__EP_DMAAUTO */
1205:.\Generated_Source\PSoC5/USBFS.c **** 
1206:.\Generated_Source\PSoC5/USBFS.c ****         #if(USBFS_EP_MM == USBFS__EP_MANUAL)
ARM GAS  C:\Users\VICTOR~1\AppData\Local\Temp\ccn4KLip.s 			page 44


1207:.\Generated_Source\PSoC5/USBFS.c ****             /* Copy the data using the arbiter data register */
1208:.\Generated_Source\PSoC5/USBFS.c ****             for (i = 0u; i < length; i++)
 1244              		.loc 1 1208 0
 1245 0056 4FF00003 		mov	r3, #0
 1246 005a FB82     		strh	r3, [r7, #22]	@ movhi
 1247 005c 0AE0     		b	.L35
 1248              	.L36:
1209:.\Generated_Source\PSoC5/USBFS.c ****             {
1210:.\Generated_Source\PSoC5/USBFS.c ****                 pData[i] = CY_GET_REG8(p);
 1249              		.loc 1 1210 0 discriminator 2
 1250 005e FB8A     		ldrh	r3, [r7, #22]
 1251 0060 3A68     		ldr	r2, [r7, #0]
 1252 0062 D318     		adds	r3, r2, r3
 1253 0064 3A69     		ldr	r2, [r7, #16]
 1254 0066 1278     		ldrb	r2, [r2, #0]
 1255 0068 D2B2     		uxtb	r2, r2
 1256 006a 1A70     		strb	r2, [r3, #0]
1208:.\Generated_Source\PSoC5/USBFS.c ****             for (i = 0u; i < length; i++)
 1257              		.loc 1 1208 0 discriminator 2
 1258 006c FB8A     		ldrh	r3, [r7, #22]	@ movhi
 1259 006e 03F10103 		add	r3, r3, #1
 1260 0072 FB82     		strh	r3, [r7, #22]	@ movhi
 1261              	.L35:
1208:.\Generated_Source\PSoC5/USBFS.c ****             for (i = 0u; i < length; i++)
 1262              		.loc 1 1208 0 is_stmt 0 discriminator 1
 1263 0074 FA8A     		ldrh	r2, [r7, #22]
 1264 0076 BB88     		ldrh	r3, [r7, #4]
 1265 0078 9A42     		cmp	r2, r3
 1266 007a F0D3     		bcc	.L36
1211:.\Generated_Source\PSoC5/USBFS.c ****             }
1212:.\Generated_Source\PSoC5/USBFS.c **** 
1213:.\Generated_Source\PSoC5/USBFS.c ****             /* (re)arming of OUT endpoint */
1214:.\Generated_Source\PSoC5/USBFS.c ****             USBFS_EnableOutEP(epNumber);
 1267              		.loc 1 1214 0 is_stmt 1
 1268 007c FB79     		ldrb	r3, [r7, #7]	@ zero_extendqisi2
 1269 007e 1846     		mov	r0, r3
 1270 0080 FFF7FEFF 		bl	USBFS_EnableOutEP
 1271 0084 02E0     		b	.L37
 1272              	.L33:
1215:.\Generated_Source\PSoC5/USBFS.c ****         #else
1216:.\Generated_Source\PSoC5/USBFS.c ****             /*Init DMA if it was not initialized */
1217:.\Generated_Source\PSoC5/USBFS.c ****             if(USBFS_DmaTd[epNumber] == DMA_INVALID_TD)
1218:.\Generated_Source\PSoC5/USBFS.c ****             {
1219:.\Generated_Source\PSoC5/USBFS.c ****                 USBFS_InitEP_DMA(epNumber, pData);
1220:.\Generated_Source\PSoC5/USBFS.c ****             }
1221:.\Generated_Source\PSoC5/USBFS.c **** 
1222:.\Generated_Source\PSoC5/USBFS.c ****         #endif /*  USBFS_EP_MM == USBFS__EP_MANUAL */
1223:.\Generated_Source\PSoC5/USBFS.c **** 
1224:.\Generated_Source\PSoC5/USBFS.c ****         #if(USBFS_EP_MM == USBFS__EP_DMAMANUAL)
1225:.\Generated_Source\PSoC5/USBFS.c ****             /* Enable DMA in mode2 for transferring data */
1226:.\Generated_Source\PSoC5/USBFS.c ****             (void) CyDmaChDisable(USBFS_DmaChan[epNumber]);
1227:.\Generated_Source\PSoC5/USBFS.c ****             (void) CyDmaTdSetConfiguration(USBFS_DmaTd[epNumber], length, CY_DMA_DISABLE_TD,
1228:.\Generated_Source\PSoC5/USBFS.c ****                                                                                 TD_TERMIN_EN | TD_I
1229:.\Generated_Source\PSoC5/USBFS.c ****             (void) CyDmaTdSetAddress(USBFS_DmaTd[epNumber],  LO16((uint32)p), LO16((uint32)pData));
1230:.\Generated_Source\PSoC5/USBFS.c ****             /* Enable the DMA */
1231:.\Generated_Source\PSoC5/USBFS.c ****             (void) CyDmaChSetInitialTd(USBFS_DmaChan[epNumber], USBFS_DmaTd[epNumber]);
1232:.\Generated_Source\PSoC5/USBFS.c ****             (void) CyDmaChEnable(USBFS_DmaChan[epNumber], 1u);
ARM GAS  C:\Users\VICTOR~1\AppData\Local\Temp\ccn4KLip.s 			page 45


1233:.\Generated_Source\PSoC5/USBFS.c **** 
1234:.\Generated_Source\PSoC5/USBFS.c ****             /* Generate DMA request */
1235:.\Generated_Source\PSoC5/USBFS.c ****             * (reg8 *)(USBFS_ARB_EP1_CFG_IND + ri) |= USBFS_ARB_EPX_CFG_DMA_REQ;
1236:.\Generated_Source\PSoC5/USBFS.c ****             * (reg8 *)(USBFS_ARB_EP1_CFG_IND + ri) &= ((uint8)(~USBFS_ARB_EPX_CFG_DMA_REQ));
1237:.\Generated_Source\PSoC5/USBFS.c ****             /* Out EP will be (re)armed in arb ISR after transfer complete */
1238:.\Generated_Source\PSoC5/USBFS.c ****         #endif /*  USBFS_EP_MM == USBFS__EP_DMAMANUAL */
1239:.\Generated_Source\PSoC5/USBFS.c **** 
1240:.\Generated_Source\PSoC5/USBFS.c ****         #if(USBFS_EP_MM == USBFS__EP_DMAAUTO)
1241:.\Generated_Source\PSoC5/USBFS.c ****             /* Enable DMA in mode3 for transferring data */
1242:.\Generated_Source\PSoC5/USBFS.c ****             (void) CyDmaChDisable(USBFS_DmaChan[epNumber]);
1243:.\Generated_Source\PSoC5/USBFS.c ****             (void) CyDmaTdSetConfiguration(USBFS_DmaTd[epNumber], length, USBFS_DmaTd[epNumber],
1244:.\Generated_Source\PSoC5/USBFS.c ****                                                                                 TD_TERMIN_EN | TD_I
1245:.\Generated_Source\PSoC5/USBFS.c ****             (void) CyDmaTdSetAddress(USBFS_DmaTd[epNumber],  LO16((uint32)p), LO16((uint32)pData));
1246:.\Generated_Source\PSoC5/USBFS.c **** 
1247:.\Generated_Source\PSoC5/USBFS.c ****             /* Clear Any potential pending DMA requests before starting the DMA channel to transfer
1248:.\Generated_Source\PSoC5/USBFS.c ****             (void) CyDmaClearPendingDrq(USBFS_DmaChan[epNumber]);
1249:.\Generated_Source\PSoC5/USBFS.c ****             /* Enable the DMA */
1250:.\Generated_Source\PSoC5/USBFS.c ****             (void) CyDmaChSetInitialTd(USBFS_DmaChan[epNumber], USBFS_DmaTd[epNumber]);
1251:.\Generated_Source\PSoC5/USBFS.c ****             (void) CyDmaChEnable(USBFS_DmaChan[epNumber], 1u);
1252:.\Generated_Source\PSoC5/USBFS.c ****             /* Out EP will be (re)armed in arb ISR after transfer complete */
1253:.\Generated_Source\PSoC5/USBFS.c ****         #endif /*  USBFS_EP_MM == USBFS__EP_DMAAUTO */
1254:.\Generated_Source\PSoC5/USBFS.c **** 
1255:.\Generated_Source\PSoC5/USBFS.c ****     }
1256:.\Generated_Source\PSoC5/USBFS.c ****     else
1257:.\Generated_Source\PSoC5/USBFS.c ****     {
1258:.\Generated_Source\PSoC5/USBFS.c ****         length = 0u;
 1273              		.loc 1 1258 0
 1274 0086 4FF00003 		mov	r3, #0
 1275 008a BB80     		strh	r3, [r7, #4]	@ movhi
 1276              	.L37:
1259:.\Generated_Source\PSoC5/USBFS.c ****     }
1260:.\Generated_Source\PSoC5/USBFS.c **** 
1261:.\Generated_Source\PSoC5/USBFS.c ****     return(length);
 1277              		.loc 1 1261 0
 1278 008c BB88     		ldrh	r3, [r7, #4]
1262:.\Generated_Source\PSoC5/USBFS.c **** }
 1279              		.loc 1 1262 0
 1280 008e 1846     		mov	r0, r3
 1281 0090 07F11807 		add	r7, r7, #24
 1282 0094 BD46     		mov	sp, r7
 1283 0096 80BD     		pop	{r7, pc}
 1284              		.cfi_endproc
 1285              	.LFE12:
 1286              		.size	USBFS_ReadOutEP, .-USBFS_ReadOutEP
 1287              		.section	.text.USBFS_EnableOutEP,"ax",%progbits
 1288              		.align	2
 1289              		.global	USBFS_EnableOutEP
 1290              		.thumb
 1291              		.thumb_func
 1292              		.type	USBFS_EnableOutEP, %function
 1293              	USBFS_EnableOutEP:
 1294              	.LFB13:
1263:.\Generated_Source\PSoC5/USBFS.c **** 
1264:.\Generated_Source\PSoC5/USBFS.c **** 
1265:.\Generated_Source\PSoC5/USBFS.c **** /*******************************************************************************
1266:.\Generated_Source\PSoC5/USBFS.c **** * Function Name: USBFS_EnableOutEP
1267:.\Generated_Source\PSoC5/USBFS.c **** ********************************************************************************
ARM GAS  C:\Users\VICTOR~1\AppData\Local\Temp\ccn4KLip.s 			page 46


1268:.\Generated_Source\PSoC5/USBFS.c **** *
1269:.\Generated_Source\PSoC5/USBFS.c **** * Summary:
1270:.\Generated_Source\PSoC5/USBFS.c **** *  This function enables an OUT endpoint.  It should not be
1271:.\Generated_Source\PSoC5/USBFS.c **** *  called for an IN endpoint.
1272:.\Generated_Source\PSoC5/USBFS.c **** *
1273:.\Generated_Source\PSoC5/USBFS.c **** * Parameters:
1274:.\Generated_Source\PSoC5/USBFS.c **** *  epNumber: Endpoint Number
1275:.\Generated_Source\PSoC5/USBFS.c **** *            Valid values are between 1 and 8.
1276:.\Generated_Source\PSoC5/USBFS.c **** *
1277:.\Generated_Source\PSoC5/USBFS.c **** * Return:
1278:.\Generated_Source\PSoC5/USBFS.c **** *   None.
1279:.\Generated_Source\PSoC5/USBFS.c **** *
1280:.\Generated_Source\PSoC5/USBFS.c **** * Global variables:
1281:.\Generated_Source\PSoC5/USBFS.c **** *  USBFS_EP[epNumber].apiEpState - set to NO_EVENT_PENDING
1282:.\Generated_Source\PSoC5/USBFS.c **** *
1283:.\Generated_Source\PSoC5/USBFS.c **** * Reentrant:
1284:.\Generated_Source\PSoC5/USBFS.c **** *  No.
1285:.\Generated_Source\PSoC5/USBFS.c **** *
1286:.\Generated_Source\PSoC5/USBFS.c **** *******************************************************************************/
1287:.\Generated_Source\PSoC5/USBFS.c **** void USBFS_EnableOutEP(uint8 epNumber) 
1288:.\Generated_Source\PSoC5/USBFS.c **** {
 1295              		.loc 1 1288 0
 1296              		.cfi_startproc
 1297              		@ args = 0, pretend = 0, frame = 16
 1298              		@ frame_needed = 1, uses_anonymous_args = 0
 1299              		@ link register save eliminated.
 1300 0000 80B4     		push	{r7}
 1301              	.LCFI36:
 1302              		.cfi_def_cfa_offset 4
 1303              		.cfi_offset 7, -4
 1304 0002 85B0     		sub	sp, sp, #20
 1305              	.LCFI37:
 1306              		.cfi_def_cfa_offset 24
 1307 0004 00AF     		add	r7, sp, #0
 1308              	.LCFI38:
 1309              		.cfi_def_cfa_register 7
 1310 0006 0346     		mov	r3, r0
 1311 0008 FB71     		strb	r3, [r7, #7]
1289:.\Generated_Source\PSoC5/USBFS.c ****     uint8 ri;
1290:.\Generated_Source\PSoC5/USBFS.c **** 
1291:.\Generated_Source\PSoC5/USBFS.c ****     if((epNumber > USBFS_EP0) && (epNumber < USBFS_MAX_EP))
 1312              		.loc 1 1291 0
 1313 000a FB79     		ldrb	r3, [r7, #7]	@ zero_extendqisi2
 1314 000c 002B     		cmp	r3, #0
 1315 000e 2ED0     		beq	.L39
 1316              		.loc 1 1291 0 is_stmt 0 discriminator 1
 1317 0010 FB79     		ldrb	r3, [r7, #7]	@ zero_extendqisi2
 1318 0012 082B     		cmp	r3, #8
 1319 0014 2BD8     		bhi	.L39
1292:.\Generated_Source\PSoC5/USBFS.c ****     {
1293:.\Generated_Source\PSoC5/USBFS.c ****         ri = ((epNumber - USBFS_EP1) << USBFS_EPX_CNTX_ADDR_SHIFT);
 1320              		.loc 1 1293 0 is_stmt 1
 1321 0016 FB79     		ldrb	r3, [r7, #7]
 1322 0018 03F1FF33 		add	r3, r3, #-1
 1323 001c DBB2     		uxtb	r3, r3
 1324 001e 4FEA0313 		lsl	r3, r3, #4
 1325 0022 FB73     		strb	r3, [r7, #15]
ARM GAS  C:\Users\VICTOR~1\AppData\Local\Temp\ccn4KLip.s 			page 47


1294:.\Generated_Source\PSoC5/USBFS.c ****         USBFS_EP[epNumber].apiEpState = USBFS_NO_EVENT_PENDING;
 1326              		.loc 1 1294 0
 1327 0024 F979     		ldrb	r1, [r7, #7]	@ zero_extendqisi2
 1328 0026 40F20002 		movw	r2, #:lower16:USBFS_EP
 1329 002a C0F20002 		movt	r2, #:upper16:USBFS_EP
 1330 002e 0B46     		mov	r3, r1
 1331 0030 4FEA4303 		lsl	r3, r3, #1
 1332 0034 5B18     		adds	r3, r3, r1
 1333 0036 4FEA8303 		lsl	r3, r3, #2
 1334 003a D318     		adds	r3, r2, r3
 1335 003c 4FF00002 		mov	r2, #0
 1336 0040 5A70     		strb	r2, [r3, #1]
1295:.\Generated_Source\PSoC5/USBFS.c ****         /* Write the Mode register */
1296:.\Generated_Source\PSoC5/USBFS.c ****         CY_SET_REG8((reg8 *)(USBFS_SIE_EP1_CR0_IND + ri), USBFS_EP[epNumber].epMode);
 1337              		.loc 1 1296 0
 1338 0042 FA7B     		ldrb	r2, [r7, #15]	@ zero_extendqisi2
 1339 0044 46F20E03 		movw	r3, #24590
 1340 0048 C4F20003 		movt	r3, 16384
 1341 004c D318     		adds	r3, r2, r3
 1342 004e 1846     		mov	r0, r3
 1343 0050 F979     		ldrb	r1, [r7, #7]	@ zero_extendqisi2
 1344 0052 40F20002 		movw	r2, #:lower16:USBFS_EP
 1345 0056 C0F20002 		movt	r2, #:upper16:USBFS_EP
 1346 005a 0B46     		mov	r3, r1
 1347 005c 4FEA4303 		lsl	r3, r3, #1
 1348 0060 5B18     		adds	r3, r3, r1
 1349 0062 4FEA8303 		lsl	r3, r3, #2
 1350 0066 D318     		adds	r3, r2, r3
 1351 0068 5B79     		ldrb	r3, [r3, #5]
 1352 006a DBB2     		uxtb	r3, r3
 1353 006c 0370     		strb	r3, [r0, #0]
 1354              	.L39:
1297:.\Generated_Source\PSoC5/USBFS.c ****     }
1298:.\Generated_Source\PSoC5/USBFS.c **** }
 1355              		.loc 1 1298 0
 1356 006e 07F11407 		add	r7, r7, #20
 1357 0072 BD46     		mov	sp, r7
 1358 0074 80BC     		pop	{r7}
 1359 0076 7047     		bx	lr
 1360              		.cfi_endproc
 1361              	.LFE13:
 1362              		.size	USBFS_EnableOutEP, .-USBFS_EnableOutEP
 1363              		.section	.text.USBFS_DisableOutEP,"ax",%progbits
 1364              		.align	2
 1365              		.global	USBFS_DisableOutEP
 1366              		.thumb
 1367              		.thumb_func
 1368              		.type	USBFS_DisableOutEP, %function
 1369              	USBFS_DisableOutEP:
 1370              	.LFB14:
1299:.\Generated_Source\PSoC5/USBFS.c **** 
1300:.\Generated_Source\PSoC5/USBFS.c **** 
1301:.\Generated_Source\PSoC5/USBFS.c **** /*******************************************************************************
1302:.\Generated_Source\PSoC5/USBFS.c **** * Function Name: USBFS_DisableOutEP
1303:.\Generated_Source\PSoC5/USBFS.c **** ********************************************************************************
1304:.\Generated_Source\PSoC5/USBFS.c **** *
1305:.\Generated_Source\PSoC5/USBFS.c **** * Summary:
ARM GAS  C:\Users\VICTOR~1\AppData\Local\Temp\ccn4KLip.s 			page 48


1306:.\Generated_Source\PSoC5/USBFS.c **** *  This function disables an OUT endpoint.  It should not be
1307:.\Generated_Source\PSoC5/USBFS.c **** *  called for an IN endpoint.
1308:.\Generated_Source\PSoC5/USBFS.c **** *
1309:.\Generated_Source\PSoC5/USBFS.c **** * Parameters:
1310:.\Generated_Source\PSoC5/USBFS.c **** *  epNumber: Endpoint Number
1311:.\Generated_Source\PSoC5/USBFS.c **** *            Valid values are between 1 and 8.
1312:.\Generated_Source\PSoC5/USBFS.c **** *
1313:.\Generated_Source\PSoC5/USBFS.c **** * Return:
1314:.\Generated_Source\PSoC5/USBFS.c **** *  None.
1315:.\Generated_Source\PSoC5/USBFS.c **** *
1316:.\Generated_Source\PSoC5/USBFS.c **** *******************************************************************************/
1317:.\Generated_Source\PSoC5/USBFS.c **** void USBFS_DisableOutEP(uint8 epNumber) 
1318:.\Generated_Source\PSoC5/USBFS.c **** {
 1371              		.loc 1 1318 0
 1372              		.cfi_startproc
 1373              		@ args = 0, pretend = 0, frame = 16
 1374              		@ frame_needed = 1, uses_anonymous_args = 0
 1375              		@ link register save eliminated.
 1376 0000 80B4     		push	{r7}
 1377              	.LCFI39:
 1378              		.cfi_def_cfa_offset 4
 1379              		.cfi_offset 7, -4
 1380 0002 85B0     		sub	sp, sp, #20
 1381              	.LCFI40:
 1382              		.cfi_def_cfa_offset 24
 1383 0004 00AF     		add	r7, sp, #0
 1384              	.LCFI41:
 1385              		.cfi_def_cfa_register 7
 1386 0006 0346     		mov	r3, r0
 1387 0008 FB71     		strb	r3, [r7, #7]
1319:.\Generated_Source\PSoC5/USBFS.c ****     uint8 ri ;
1320:.\Generated_Source\PSoC5/USBFS.c **** 
1321:.\Generated_Source\PSoC5/USBFS.c ****     if((epNumber > USBFS_EP0) && (epNumber < USBFS_MAX_EP))
 1388              		.loc 1 1321 0
 1389 000a FB79     		ldrb	r3, [r7, #7]	@ zero_extendqisi2
 1390 000c 002B     		cmp	r3, #0
 1391 000e 12D0     		beq	.L41
 1392              		.loc 1 1321 0 is_stmt 0 discriminator 1
 1393 0010 FB79     		ldrb	r3, [r7, #7]	@ zero_extendqisi2
 1394 0012 082B     		cmp	r3, #8
 1395 0014 0FD8     		bhi	.L41
1322:.\Generated_Source\PSoC5/USBFS.c ****     {
1323:.\Generated_Source\PSoC5/USBFS.c ****         ri = ((epNumber - USBFS_EP1) << USBFS_EPX_CNTX_ADDR_SHIFT);
 1396              		.loc 1 1323 0 is_stmt 1
 1397 0016 FB79     		ldrb	r3, [r7, #7]
 1398 0018 03F1FF33 		add	r3, r3, #-1
 1399 001c DBB2     		uxtb	r3, r3
 1400 001e 4FEA0313 		lsl	r3, r3, #4
 1401 0022 FB73     		strb	r3, [r7, #15]
1324:.\Generated_Source\PSoC5/USBFS.c ****         /* Write the Mode register */
1325:.\Generated_Source\PSoC5/USBFS.c ****         CY_SET_REG8((reg8 *)(USBFS_SIE_EP1_CR0_IND + ri), USBFS_MODE_NAK_OUT);
 1402              		.loc 1 1325 0
 1403 0024 FA7B     		ldrb	r2, [r7, #15]	@ zero_extendqisi2
 1404 0026 46F20E03 		movw	r3, #24590
 1405 002a C4F20003 		movt	r3, 16384
 1406 002e D318     		adds	r3, r2, r3
 1407 0030 4FF00802 		mov	r2, #8
ARM GAS  C:\Users\VICTOR~1\AppData\Local\Temp\ccn4KLip.s 			page 49


 1408 0034 1A70     		strb	r2, [r3, #0]
 1409              	.L41:
1326:.\Generated_Source\PSoC5/USBFS.c ****     }
1327:.\Generated_Source\PSoC5/USBFS.c **** }
 1410              		.loc 1 1327 0
 1411 0036 07F11407 		add	r7, r7, #20
 1412 003a BD46     		mov	sp, r7
 1413 003c 80BC     		pop	{r7}
 1414 003e 7047     		bx	lr
 1415              		.cfi_endproc
 1416              	.LFE14:
 1417              		.size	USBFS_DisableOutEP, .-USBFS_DisableOutEP
 1418              		.section	.text.USBFS_Force,"ax",%progbits
 1419              		.align	2
 1420              		.global	USBFS_Force
 1421              		.thumb
 1422              		.thumb_func
 1423              		.type	USBFS_Force, %function
 1424              	USBFS_Force:
 1425              	.LFB15:
1328:.\Generated_Source\PSoC5/USBFS.c **** 
1329:.\Generated_Source\PSoC5/USBFS.c **** 
1330:.\Generated_Source\PSoC5/USBFS.c **** /*******************************************************************************
1331:.\Generated_Source\PSoC5/USBFS.c **** * Function Name: USBFS_Force
1332:.\Generated_Source\PSoC5/USBFS.c **** ********************************************************************************
1333:.\Generated_Source\PSoC5/USBFS.c **** *
1334:.\Generated_Source\PSoC5/USBFS.c **** * Summary:
1335:.\Generated_Source\PSoC5/USBFS.c **** *  Forces the bus state
1336:.\Generated_Source\PSoC5/USBFS.c **** *
1337:.\Generated_Source\PSoC5/USBFS.c **** * Parameters:
1338:.\Generated_Source\PSoC5/USBFS.c **** *  bState
1339:.\Generated_Source\PSoC5/USBFS.c **** *    USBFS_FORCE_J
1340:.\Generated_Source\PSoC5/USBFS.c **** *    USBFS_FORCE_K
1341:.\Generated_Source\PSoC5/USBFS.c **** *    USBFS_FORCE_SE0
1342:.\Generated_Source\PSoC5/USBFS.c **** *    USBFS_FORCE_NONE
1343:.\Generated_Source\PSoC5/USBFS.c **** *
1344:.\Generated_Source\PSoC5/USBFS.c **** * Return:
1345:.\Generated_Source\PSoC5/USBFS.c **** *  None.
1346:.\Generated_Source\PSoC5/USBFS.c **** *
1347:.\Generated_Source\PSoC5/USBFS.c **** *******************************************************************************/
1348:.\Generated_Source\PSoC5/USBFS.c **** void USBFS_Force(uint8 bState) 
1349:.\Generated_Source\PSoC5/USBFS.c **** {
 1426              		.loc 1 1349 0
 1427              		.cfi_startproc
 1428              		@ args = 0, pretend = 0, frame = 8
 1429              		@ frame_needed = 1, uses_anonymous_args = 0
 1430              		@ link register save eliminated.
 1431 0000 80B4     		push	{r7}
 1432              	.LCFI42:
 1433              		.cfi_def_cfa_offset 4
 1434              		.cfi_offset 7, -4
 1435 0002 83B0     		sub	sp, sp, #12
 1436              	.LCFI43:
 1437              		.cfi_def_cfa_offset 16
 1438 0004 00AF     		add	r7, sp, #0
 1439              	.LCFI44:
 1440              		.cfi_def_cfa_register 7
ARM GAS  C:\Users\VICTOR~1\AppData\Local\Temp\ccn4KLip.s 			page 50


 1441 0006 0346     		mov	r3, r0
 1442 0008 FB71     		strb	r3, [r7, #7]
1350:.\Generated_Source\PSoC5/USBFS.c ****     CY_SET_REG8(USBFS_USBIO_CR0_PTR, bState);
 1443              		.loc 1 1350 0
 1444 000a 46F21003 		movw	r3, #24592
 1445 000e C4F20003 		movt	r3, 16384
 1446 0012 FA79     		ldrb	r2, [r7, #7]
 1447 0014 1A70     		strb	r2, [r3, #0]
1351:.\Generated_Source\PSoC5/USBFS.c **** }
 1448              		.loc 1 1351 0
 1449 0016 07F10C07 		add	r7, r7, #12
 1450 001a BD46     		mov	sp, r7
 1451 001c 80BC     		pop	{r7}
 1452 001e 7047     		bx	lr
 1453              		.cfi_endproc
 1454              	.LFE15:
 1455              		.size	USBFS_Force, .-USBFS_Force
 1456              		.section	.text.USBFS_GetEPAckState,"ax",%progbits
 1457              		.align	2
 1458              		.global	USBFS_GetEPAckState
 1459              		.thumb
 1460              		.thumb_func
 1461              		.type	USBFS_GetEPAckState, %function
 1462              	USBFS_GetEPAckState:
 1463              	.LFB16:
1352:.\Generated_Source\PSoC5/USBFS.c **** 
1353:.\Generated_Source\PSoC5/USBFS.c **** 
1354:.\Generated_Source\PSoC5/USBFS.c **** /*******************************************************************************
1355:.\Generated_Source\PSoC5/USBFS.c **** * Function Name: USBFS_GetEPAckState
1356:.\Generated_Source\PSoC5/USBFS.c **** ********************************************************************************
1357:.\Generated_Source\PSoC5/USBFS.c **** *
1358:.\Generated_Source\PSoC5/USBFS.c **** * Summary:
1359:.\Generated_Source\PSoC5/USBFS.c **** *  Returns the ACK of the CR0 Register (ACKD)
1360:.\Generated_Source\PSoC5/USBFS.c **** *
1361:.\Generated_Source\PSoC5/USBFS.c **** * Parameters:
1362:.\Generated_Source\PSoC5/USBFS.c **** *  epNumber: Endpoint Number
1363:.\Generated_Source\PSoC5/USBFS.c **** *            Valid values are between 1 and 8.
1364:.\Generated_Source\PSoC5/USBFS.c **** *
1365:.\Generated_Source\PSoC5/USBFS.c **** * Returns
1366:.\Generated_Source\PSoC5/USBFS.c **** *  0 if nothing has been ACKD, non-=zero something has been ACKD
1367:.\Generated_Source\PSoC5/USBFS.c **** *
1368:.\Generated_Source\PSoC5/USBFS.c **** *******************************************************************************/
1369:.\Generated_Source\PSoC5/USBFS.c **** uint8 USBFS_GetEPAckState(uint8 epNumber) 
1370:.\Generated_Source\PSoC5/USBFS.c **** {
 1464              		.loc 1 1370 0
 1465              		.cfi_startproc
 1466              		@ args = 0, pretend = 0, frame = 16
 1467              		@ frame_needed = 1, uses_anonymous_args = 0
 1468              		@ link register save eliminated.
 1469 0000 80B4     		push	{r7}
 1470              	.LCFI45:
 1471              		.cfi_def_cfa_offset 4
 1472              		.cfi_offset 7, -4
 1473 0002 85B0     		sub	sp, sp, #20
 1474              	.LCFI46:
 1475              		.cfi_def_cfa_offset 24
 1476 0004 00AF     		add	r7, sp, #0
ARM GAS  C:\Users\VICTOR~1\AppData\Local\Temp\ccn4KLip.s 			page 51


 1477              	.LCFI47:
 1478              		.cfi_def_cfa_register 7
 1479 0006 0346     		mov	r3, r0
 1480 0008 FB71     		strb	r3, [r7, #7]
1371:.\Generated_Source\PSoC5/USBFS.c ****     uint8 ri;
1372:.\Generated_Source\PSoC5/USBFS.c ****     uint8 cr = 0u;
 1481              		.loc 1 1372 0
 1482 000a 4FF00003 		mov	r3, #0
 1483 000e FB73     		strb	r3, [r7, #15]
1373:.\Generated_Source\PSoC5/USBFS.c **** 
1374:.\Generated_Source\PSoC5/USBFS.c ****     if((epNumber > USBFS_EP0) && (epNumber < USBFS_MAX_EP))
 1484              		.loc 1 1374 0
 1485 0010 FB79     		ldrb	r3, [r7, #7]	@ zero_extendqisi2
 1486 0012 002B     		cmp	r3, #0
 1487 0014 14D0     		beq	.L45
 1488              		.loc 1 1374 0 is_stmt 0 discriminator 1
 1489 0016 FB79     		ldrb	r3, [r7, #7]	@ zero_extendqisi2
 1490 0018 082B     		cmp	r3, #8
 1491 001a 11D8     		bhi	.L45
1375:.\Generated_Source\PSoC5/USBFS.c ****     {
1376:.\Generated_Source\PSoC5/USBFS.c ****         ri = ((epNumber - USBFS_EP1) << USBFS_EPX_CNTX_ADDR_SHIFT);
 1492              		.loc 1 1376 0 is_stmt 1
 1493 001c FB79     		ldrb	r3, [r7, #7]
 1494 001e 03F1FF33 		add	r3, r3, #-1
 1495 0022 DBB2     		uxtb	r3, r3
 1496 0024 4FEA0313 		lsl	r3, r3, #4
 1497 0028 BB73     		strb	r3, [r7, #14]
1377:.\Generated_Source\PSoC5/USBFS.c ****         cr = CY_GET_REG8((reg8 *)(USBFS_SIE_EP1_CR0_IND + ri)) & USBFS_MODE_ACKD;
 1498              		.loc 1 1377 0
 1499 002a BA7B     		ldrb	r2, [r7, #14]	@ zero_extendqisi2
 1500 002c 46F20E03 		movw	r3, #24590
 1501 0030 C4F20003 		movt	r3, 16384
 1502 0034 D318     		adds	r3, r2, r3
 1503 0036 1B78     		ldrb	r3, [r3, #0]
 1504 0038 DBB2     		uxtb	r3, r3
 1505 003a 03F01003 		and	r3, r3, #16
 1506 003e FB73     		strb	r3, [r7, #15]
 1507              	.L45:
1378:.\Generated_Source\PSoC5/USBFS.c ****     }
1379:.\Generated_Source\PSoC5/USBFS.c **** 
1380:.\Generated_Source\PSoC5/USBFS.c ****     return(cr);
 1508              		.loc 1 1380 0
 1509 0040 FB7B     		ldrb	r3, [r7, #15]	@ zero_extendqisi2
1381:.\Generated_Source\PSoC5/USBFS.c **** }
 1510              		.loc 1 1381 0
 1511 0042 1846     		mov	r0, r3
 1512 0044 07F11407 		add	r7, r7, #20
 1513 0048 BD46     		mov	sp, r7
 1514 004a 80BC     		pop	{r7}
 1515 004c 7047     		bx	lr
 1516              		.cfi_endproc
 1517              	.LFE16:
 1518              		.size	USBFS_GetEPAckState, .-USBFS_GetEPAckState
 1519 004e 00BF     		.section	.text.USBFS_SetPowerStatus,"ax",%progbits
 1520              		.align	2
 1521              		.global	USBFS_SetPowerStatus
 1522              		.thumb
ARM GAS  C:\Users\VICTOR~1\AppData\Local\Temp\ccn4KLip.s 			page 52


 1523              		.thumb_func
 1524              		.type	USBFS_SetPowerStatus, %function
 1525              	USBFS_SetPowerStatus:
 1526              	.LFB17:
1382:.\Generated_Source\PSoC5/USBFS.c **** 
1383:.\Generated_Source\PSoC5/USBFS.c **** 
1384:.\Generated_Source\PSoC5/USBFS.c **** /*******************************************************************************
1385:.\Generated_Source\PSoC5/USBFS.c **** * Function Name: USBFS_SetPowerStatus
1386:.\Generated_Source\PSoC5/USBFS.c **** ********************************************************************************
1387:.\Generated_Source\PSoC5/USBFS.c **** *
1388:.\Generated_Source\PSoC5/USBFS.c **** * Summary:
1389:.\Generated_Source\PSoC5/USBFS.c **** *  Sets the device power status for reporting in the Get Device Status
1390:.\Generated_Source\PSoC5/USBFS.c **** *  request
1391:.\Generated_Source\PSoC5/USBFS.c **** *
1392:.\Generated_Source\PSoC5/USBFS.c **** * Parameters:
1393:.\Generated_Source\PSoC5/USBFS.c **** *  powerStatus: USBFS_DEVICE_STATUS_BUS_POWERED(0) - Bus Powered,
1394:.\Generated_Source\PSoC5/USBFS.c **** *               USBFS_DEVICE_STATUS_SELF_POWERED(1) - Self Powered
1395:.\Generated_Source\PSoC5/USBFS.c **** *
1396:.\Generated_Source\PSoC5/USBFS.c **** * Return:
1397:.\Generated_Source\PSoC5/USBFS.c **** *   None.
1398:.\Generated_Source\PSoC5/USBFS.c **** *
1399:.\Generated_Source\PSoC5/USBFS.c **** * Global variables:
1400:.\Generated_Source\PSoC5/USBFS.c **** *  USBFS_deviceStatus - set power status
1401:.\Generated_Source\PSoC5/USBFS.c **** *
1402:.\Generated_Source\PSoC5/USBFS.c **** * Reentrant:
1403:.\Generated_Source\PSoC5/USBFS.c **** *  No.
1404:.\Generated_Source\PSoC5/USBFS.c **** *
1405:.\Generated_Source\PSoC5/USBFS.c **** *******************************************************************************/
1406:.\Generated_Source\PSoC5/USBFS.c **** void USBFS_SetPowerStatus(uint8 powerStatus) 
1407:.\Generated_Source\PSoC5/USBFS.c **** {
 1527              		.loc 1 1407 0
 1528              		.cfi_startproc
 1529              		@ args = 0, pretend = 0, frame = 8
 1530              		@ frame_needed = 1, uses_anonymous_args = 0
 1531              		@ link register save eliminated.
 1532 0000 80B4     		push	{r7}
 1533              	.LCFI48:
 1534              		.cfi_def_cfa_offset 4
 1535              		.cfi_offset 7, -4
 1536 0002 83B0     		sub	sp, sp, #12
 1537              	.LCFI49:
 1538              		.cfi_def_cfa_offset 16
 1539 0004 00AF     		add	r7, sp, #0
 1540              	.LCFI50:
 1541              		.cfi_def_cfa_register 7
 1542 0006 0346     		mov	r3, r0
 1543 0008 FB71     		strb	r3, [r7, #7]
1408:.\Generated_Source\PSoC5/USBFS.c ****     if (powerStatus != USBFS_DEVICE_STATUS_BUS_POWERED)
 1544              		.loc 1 1408 0
 1545 000a FB79     		ldrb	r3, [r7, #7]	@ zero_extendqisi2
 1546 000c 002B     		cmp	r3, #0
 1547 000e 0ED0     		beq	.L48
1409:.\Generated_Source\PSoC5/USBFS.c ****     {
1410:.\Generated_Source\PSoC5/USBFS.c ****         USBFS_deviceStatus |=  USBFS_DEVICE_STATUS_SELF_POWERED;
 1548              		.loc 1 1410 0
 1549 0010 40F20003 		movw	r3, #:lower16:USBFS_deviceStatus
 1550 0014 C0F20003 		movt	r3, #:upper16:USBFS_deviceStatus
ARM GAS  C:\Users\VICTOR~1\AppData\Local\Temp\ccn4KLip.s 			page 53


 1551 0018 1B78     		ldrb	r3, [r3, #0]
 1552 001a DBB2     		uxtb	r3, r3
 1553 001c 43F00103 		orr	r3, r3, #1
 1554 0020 DAB2     		uxtb	r2, r3
 1555 0022 40F20003 		movw	r3, #:lower16:USBFS_deviceStatus
 1556 0026 C0F20003 		movt	r3, #:upper16:USBFS_deviceStatus
 1557 002a 1A70     		strb	r2, [r3, #0]
 1558 002c 0DE0     		b	.L47
 1559              	.L48:
1411:.\Generated_Source\PSoC5/USBFS.c ****     }
1412:.\Generated_Source\PSoC5/USBFS.c ****     else
1413:.\Generated_Source\PSoC5/USBFS.c ****     {
1414:.\Generated_Source\PSoC5/USBFS.c ****         USBFS_deviceStatus &=  ((uint8)(~USBFS_DEVICE_STATUS_SELF_POWERED));
 1560              		.loc 1 1414 0
 1561 002e 40F20003 		movw	r3, #:lower16:USBFS_deviceStatus
 1562 0032 C0F20003 		movt	r3, #:upper16:USBFS_deviceStatus
 1563 0036 1B78     		ldrb	r3, [r3, #0]
 1564 0038 DBB2     		uxtb	r3, r3
 1565 003a 23F00103 		bic	r3, r3, #1
 1566 003e DAB2     		uxtb	r2, r3
 1567 0040 40F20003 		movw	r3, #:lower16:USBFS_deviceStatus
 1568 0044 C0F20003 		movt	r3, #:upper16:USBFS_deviceStatus
 1569 0048 1A70     		strb	r2, [r3, #0]
 1570              	.L47:
1415:.\Generated_Source\PSoC5/USBFS.c ****     }
1416:.\Generated_Source\PSoC5/USBFS.c **** }
 1571              		.loc 1 1416 0
 1572 004a 07F10C07 		add	r7, r7, #12
 1573 004e BD46     		mov	sp, r7
 1574 0050 80BC     		pop	{r7}
 1575 0052 7047     		bx	lr
 1576              		.cfi_endproc
 1577              	.LFE17:
 1578              		.size	USBFS_SetPowerStatus, .-USBFS_SetPowerStatus
 1579              		.section	.text.USBFS_RWUEnabled,"ax",%progbits
 1580              		.align	2
 1581              		.global	USBFS_RWUEnabled
 1582              		.thumb
 1583              		.thumb_func
 1584              		.type	USBFS_RWUEnabled, %function
 1585              	USBFS_RWUEnabled:
 1586              	.LFB18:
1417:.\Generated_Source\PSoC5/USBFS.c **** 
1418:.\Generated_Source\PSoC5/USBFS.c **** 
1419:.\Generated_Source\PSoC5/USBFS.c **** #if (USBFS_MON_VBUS == 1u)
1420:.\Generated_Source\PSoC5/USBFS.c **** 
1421:.\Generated_Source\PSoC5/USBFS.c ****     /*******************************************************************************
1422:.\Generated_Source\PSoC5/USBFS.c ****     * Function Name: USBFS_VBusPresent
1423:.\Generated_Source\PSoC5/USBFS.c ****     ********************************************************************************
1424:.\Generated_Source\PSoC5/USBFS.c ****     *
1425:.\Generated_Source\PSoC5/USBFS.c ****     * Summary:
1426:.\Generated_Source\PSoC5/USBFS.c ****     *  Determines VBUS presence for Self Powered Devices.
1427:.\Generated_Source\PSoC5/USBFS.c ****     *
1428:.\Generated_Source\PSoC5/USBFS.c ****     * Parameters:
1429:.\Generated_Source\PSoC5/USBFS.c ****     *  None.
1430:.\Generated_Source\PSoC5/USBFS.c ****     *
1431:.\Generated_Source\PSoC5/USBFS.c ****     * Return:
ARM GAS  C:\Users\VICTOR~1\AppData\Local\Temp\ccn4KLip.s 			page 54


1432:.\Generated_Source\PSoC5/USBFS.c ****     *  1 if VBUS is present, otherwise 0.
1433:.\Generated_Source\PSoC5/USBFS.c ****     *
1434:.\Generated_Source\PSoC5/USBFS.c ****     *******************************************************************************/
1435:.\Generated_Source\PSoC5/USBFS.c ****     uint8 USBFS_VBusPresent(void) 
1436:.\Generated_Source\PSoC5/USBFS.c ****     {
1437:.\Generated_Source\PSoC5/USBFS.c ****         return((0u != (CY_GET_REG8(USBFS_VBUS_PS_PTR) & USBFS_VBUS_MASK)) ? 1u : 0u);
1438:.\Generated_Source\PSoC5/USBFS.c ****     }
1439:.\Generated_Source\PSoC5/USBFS.c **** 
1440:.\Generated_Source\PSoC5/USBFS.c **** #endif /* USBFS_MON_VBUS */
1441:.\Generated_Source\PSoC5/USBFS.c **** 
1442:.\Generated_Source\PSoC5/USBFS.c **** 
1443:.\Generated_Source\PSoC5/USBFS.c **** /*******************************************************************************
1444:.\Generated_Source\PSoC5/USBFS.c **** * Function Name: USBFS_RWUEnabled
1445:.\Generated_Source\PSoC5/USBFS.c **** ********************************************************************************
1446:.\Generated_Source\PSoC5/USBFS.c **** *
1447:.\Generated_Source\PSoC5/USBFS.c **** * Summary:
1448:.\Generated_Source\PSoC5/USBFS.c **** *  Returns TRUE if Remote Wake Up is enabled, otherwise FALSE
1449:.\Generated_Source\PSoC5/USBFS.c **** *
1450:.\Generated_Source\PSoC5/USBFS.c **** * Parameters:
1451:.\Generated_Source\PSoC5/USBFS.c **** *   None.
1452:.\Generated_Source\PSoC5/USBFS.c **** *
1453:.\Generated_Source\PSoC5/USBFS.c **** * Return:
1454:.\Generated_Source\PSoC5/USBFS.c **** *  TRUE -  Remote Wake Up Enabled
1455:.\Generated_Source\PSoC5/USBFS.c **** *  FALSE - Remote Wake Up Disabled
1456:.\Generated_Source\PSoC5/USBFS.c **** *
1457:.\Generated_Source\PSoC5/USBFS.c **** * Global variables:
1458:.\Generated_Source\PSoC5/USBFS.c **** *  USBFS_deviceStatus - checked to determine remote status
1459:.\Generated_Source\PSoC5/USBFS.c **** *
1460:.\Generated_Source\PSoC5/USBFS.c **** *******************************************************************************/
1461:.\Generated_Source\PSoC5/USBFS.c **** uint8 USBFS_RWUEnabled(void) 
1462:.\Generated_Source\PSoC5/USBFS.c **** {
 1587              		.loc 1 1462 0
 1588              		.cfi_startproc
 1589              		@ args = 0, pretend = 0, frame = 8
 1590              		@ frame_needed = 1, uses_anonymous_args = 0
 1591              		@ link register save eliminated.
 1592 0000 80B4     		push	{r7}
 1593              	.LCFI51:
 1594              		.cfi_def_cfa_offset 4
 1595              		.cfi_offset 7, -4
 1596 0002 83B0     		sub	sp, sp, #12
 1597              	.LCFI52:
 1598              		.cfi_def_cfa_offset 16
 1599 0004 00AF     		add	r7, sp, #0
 1600              	.LCFI53:
 1601              		.cfi_def_cfa_register 7
1463:.\Generated_Source\PSoC5/USBFS.c ****     uint8 result = USBFS_FALSE;
 1602              		.loc 1 1463 0
 1603 0006 4FF00003 		mov	r3, #0
 1604 000a FB71     		strb	r3, [r7, #7]
1464:.\Generated_Source\PSoC5/USBFS.c ****     if((USBFS_deviceStatus & USBFS_DEVICE_STATUS_REMOTE_WAKEUP) != 0u)
 1605              		.loc 1 1464 0
 1606 000c 40F20003 		movw	r3, #:lower16:USBFS_deviceStatus
 1607 0010 C0F20003 		movt	r3, #:upper16:USBFS_deviceStatus
 1608 0014 1B78     		ldrb	r3, [r3, #0]
 1609 0016 DBB2     		uxtb	r3, r3
 1610 0018 03F00203 		and	r3, r3, #2
ARM GAS  C:\Users\VICTOR~1\AppData\Local\Temp\ccn4KLip.s 			page 55


 1611 001c 002B     		cmp	r3, #0
 1612 001e 02D0     		beq	.L51
1465:.\Generated_Source\PSoC5/USBFS.c ****     {
1466:.\Generated_Source\PSoC5/USBFS.c ****         result = USBFS_TRUE;
 1613              		.loc 1 1466 0
 1614 0020 4FF00103 		mov	r3, #1
 1615 0024 FB71     		strb	r3, [r7, #7]
 1616              	.L51:
1467:.\Generated_Source\PSoC5/USBFS.c ****     }
1468:.\Generated_Source\PSoC5/USBFS.c **** 
1469:.\Generated_Source\PSoC5/USBFS.c ****     return(result);
 1617              		.loc 1 1469 0
 1618 0026 FB79     		ldrb	r3, [r7, #7]	@ zero_extendqisi2
1470:.\Generated_Source\PSoC5/USBFS.c **** }
 1619              		.loc 1 1470 0
 1620 0028 1846     		mov	r0, r3
 1621 002a 07F10C07 		add	r7, r7, #12
 1622 002e BD46     		mov	sp, r7
 1623 0030 80BC     		pop	{r7}
 1624 0032 7047     		bx	lr
 1625              		.cfi_endproc
 1626              	.LFE18:
 1627              		.size	USBFS_RWUEnabled, .-USBFS_RWUEnabled
 1628              		.text
 1629              	.Letext0:
 1630              		.file 2 "./Generated_Source/PSoC5/cytypes.h"
 1631              		.file 3 ".\\Generated_Source\\PSoC5\\USBFS.h"
 1632              		.file 4 ".\\Generated_Source\\PSoC5\\USBFS_pvt.h"