ARM GAS  C:\Users\VICTOR~1\AppData\Local\Temp\ccOdoS4G.s 			page 1


   1              		.syntax unified
   2              		.cpu cortex-m3
   3              		.fpu softvfp
   4              		.eabi_attribute 20, 1
   5              		.eabi_attribute 21, 1
   6              		.eabi_attribute 23, 3
   7              		.eabi_attribute 24, 1
   8              		.eabi_attribute 25, 1
   9              		.eabi_attribute 26, 1
  10              		.eabi_attribute 30, 6
  11              		.eabi_attribute 34, 1
  12              		.eabi_attribute 18, 4
  13              		.thumb
  14              		.file	"USBFS_episr.c"
  15              		.text
  16              	.Ltext0:
  17              		.cfi_sections	.debug_frame
  18              		.section	.text.USBFS_EP_1_ISR,"ax",%progbits
  19              		.align	2
  20              		.global	USBFS_EP_1_ISR
  21              		.thumb
  22              		.thumb_func
  23              		.type	USBFS_EP_1_ISR, %function
  24              	USBFS_EP_1_ISR:
  25              	.LFB0:
  26              		.file 1 ".\\Generated_Source\\PSoC5\\USBFS_episr.c"
   1:.\Generated_Source\PSoC5/USBFS_episr.c **** /*******************************************************************************
   2:.\Generated_Source\PSoC5/USBFS_episr.c **** * File Name: USBFS_episr.c
   3:.\Generated_Source\PSoC5/USBFS_episr.c **** * Version 2.70
   4:.\Generated_Source\PSoC5/USBFS_episr.c **** *
   5:.\Generated_Source\PSoC5/USBFS_episr.c **** * Description:
   6:.\Generated_Source\PSoC5/USBFS_episr.c **** *  Data endpoint Interrupt Service Routines
   7:.\Generated_Source\PSoC5/USBFS_episr.c **** *
   8:.\Generated_Source\PSoC5/USBFS_episr.c **** * Note:
   9:.\Generated_Source\PSoC5/USBFS_episr.c **** *
  10:.\Generated_Source\PSoC5/USBFS_episr.c **** ********************************************************************************
  11:.\Generated_Source\PSoC5/USBFS_episr.c **** * Copyright 2008-2013, Cypress Semiconductor Corporation.  All rights reserved.
  12:.\Generated_Source\PSoC5/USBFS_episr.c **** * You may use this file only in accordance with the license, terms, conditions,
  13:.\Generated_Source\PSoC5/USBFS_episr.c **** * disclaimers, and limitations in the end user license agreement accompanying
  14:.\Generated_Source\PSoC5/USBFS_episr.c **** * the software package with which this file was provided.
  15:.\Generated_Source\PSoC5/USBFS_episr.c **** *******************************************************************************/
  16:.\Generated_Source\PSoC5/USBFS_episr.c **** 
  17:.\Generated_Source\PSoC5/USBFS_episr.c **** #include "USBFS.h"
  18:.\Generated_Source\PSoC5/USBFS_episr.c **** #include "USBFS_pvt.h"
  19:.\Generated_Source\PSoC5/USBFS_episr.c **** #if (defined(USBFS_ENABLE_MIDI_STREAMING) && (USBFS_ENABLE_MIDI_API != 0u))
  20:.\Generated_Source\PSoC5/USBFS_episr.c ****     #include "USBFS_midi.h"
  21:.\Generated_Source\PSoC5/USBFS_episr.c **** #endif /* (defined(USBFS_ENABLE_MIDI_STREAMING) && (USBFS_ENABLE_MIDI_API != 0u)) */
  22:.\Generated_Source\PSoC5/USBFS_episr.c **** #if ((USBFS_EP_MM == USBFS__EP_DMAAUTO) && (USBFS_EP_DMA_AUTO_OPT == 0u))
  23:.\Generated_Source\PSoC5/USBFS_episr.c ****     #include "USBFS_EP8_DMA_Done_SR.h"
  24:.\Generated_Source\PSoC5/USBFS_episr.c ****     #include "USBFS_EP17_DMA_Done_SR.h"
  25:.\Generated_Source\PSoC5/USBFS_episr.c **** #endif /* (USBFS_EP_MM == USBFS__EP_DMAAUTO) && (USBFS_EP_DMA_AUTO_OPT == 0u) */
  26:.\Generated_Source\PSoC5/USBFS_episr.c **** 
  27:.\Generated_Source\PSoC5/USBFS_episr.c **** 
  28:.\Generated_Source\PSoC5/USBFS_episr.c **** /***************************************
  29:.\Generated_Source\PSoC5/USBFS_episr.c **** * Custom Declarations
  30:.\Generated_Source\PSoC5/USBFS_episr.c **** ***************************************/
  31:.\Generated_Source\PSoC5/USBFS_episr.c **** /* `#START CUSTOM_DECLARATIONS` Place your declaration here */
ARM GAS  C:\Users\VICTOR~1\AppData\Local\Temp\ccOdoS4G.s 			page 2


  32:.\Generated_Source\PSoC5/USBFS_episr.c **** 
  33:.\Generated_Source\PSoC5/USBFS_episr.c **** /* `#END` */
  34:.\Generated_Source\PSoC5/USBFS_episr.c **** 
  35:.\Generated_Source\PSoC5/USBFS_episr.c **** 
  36:.\Generated_Source\PSoC5/USBFS_episr.c **** #if(USBFS_EP1_ISR_REMOVE == 0u)
  37:.\Generated_Source\PSoC5/USBFS_episr.c **** 
  38:.\Generated_Source\PSoC5/USBFS_episr.c **** 
  39:.\Generated_Source\PSoC5/USBFS_episr.c ****     /******************************************************************************
  40:.\Generated_Source\PSoC5/USBFS_episr.c ****     * Function Name: USBFS_EP_1_ISR
  41:.\Generated_Source\PSoC5/USBFS_episr.c ****     *******************************************************************************
  42:.\Generated_Source\PSoC5/USBFS_episr.c ****     *
  43:.\Generated_Source\PSoC5/USBFS_episr.c ****     * Summary:
  44:.\Generated_Source\PSoC5/USBFS_episr.c ****     *  Endpoint 1 Interrupt Service Routine
  45:.\Generated_Source\PSoC5/USBFS_episr.c ****     *
  46:.\Generated_Source\PSoC5/USBFS_episr.c ****     * Parameters:
  47:.\Generated_Source\PSoC5/USBFS_episr.c ****     *  None.
  48:.\Generated_Source\PSoC5/USBFS_episr.c ****     *
  49:.\Generated_Source\PSoC5/USBFS_episr.c ****     * Return:
  50:.\Generated_Source\PSoC5/USBFS_episr.c ****     *  None.
  51:.\Generated_Source\PSoC5/USBFS_episr.c ****     *
  52:.\Generated_Source\PSoC5/USBFS_episr.c ****     ******************************************************************************/
  53:.\Generated_Source\PSoC5/USBFS_episr.c ****     CY_ISR(USBFS_EP_1_ISR)
  54:.\Generated_Source\PSoC5/USBFS_episr.c ****     {
  27              		.loc 1 54 0
  28              		.cfi_startproc
  29              		@ args = 0, pretend = 0, frame = 0
  30              		@ frame_needed = 1, uses_anonymous_args = 0
  31              		@ link register save eliminated.
  32 0000 80B4     		push	{r7}
  33              	.LCFI0:
  34              		.cfi_def_cfa_offset 4
  35              		.cfi_offset 7, -4
  36 0002 00AF     		add	r7, sp, #0
  37              	.LCFI1:
  38              		.cfi_def_cfa_register 7
  55:.\Generated_Source\PSoC5/USBFS_episr.c ****         #if (defined(USBFS_ENABLE_MIDI_STREAMING) && !defined(USBFS_MAIN_SERVICE_MIDI_OUT)  && \
  56:.\Generated_Source\PSoC5/USBFS_episr.c ****                      USBFS_ISR_SERVICE_MIDI_OUT && CY_PSOC3)
  57:.\Generated_Source\PSoC5/USBFS_episr.c ****             uint8 int_en;
  58:.\Generated_Source\PSoC5/USBFS_episr.c ****         #endif /* USBFS_ISR_SERVICE_MIDI_OUT && CY_PSOC3 */
  59:.\Generated_Source\PSoC5/USBFS_episr.c **** 
  60:.\Generated_Source\PSoC5/USBFS_episr.c ****         /* `#START EP1_USER_CODE` Place your code here */
  61:.\Generated_Source\PSoC5/USBFS_episr.c **** 
  62:.\Generated_Source\PSoC5/USBFS_episr.c ****         /* `#END` */
  63:.\Generated_Source\PSoC5/USBFS_episr.c **** 
  64:.\Generated_Source\PSoC5/USBFS_episr.c ****         #if (defined(USBFS_ENABLE_MIDI_STREAMING) && !defined(USBFS_MAIN_SERVICE_MIDI_OUT) && \
  65:.\Generated_Source\PSoC5/USBFS_episr.c ****                      USBFS_ISR_SERVICE_MIDI_OUT && CY_PSOC3)
  66:.\Generated_Source\PSoC5/USBFS_episr.c ****             int_en = EA;
  67:.\Generated_Source\PSoC5/USBFS_episr.c ****             CyGlobalIntEnable;  /* Make sure nested interrupt is enabled */
  68:.\Generated_Source\PSoC5/USBFS_episr.c ****         #endif /* USBFS_ISR_SERVICE_MIDI_OUT && CY_PSOC3 */
  69:.\Generated_Source\PSoC5/USBFS_episr.c **** 
  70:.\Generated_Source\PSoC5/USBFS_episr.c ****         CY_GET_REG8(USBFS_SIE_EP1_CR0_PTR); /* Must read the mode reg */
  39              		.loc 1 70 0
  40 0004 46F20E03 		movw	r3, #24590
  41 0008 C4F20003 		movt	r3, 16384
  42 000c 1B78     		ldrb	r3, [r3, #0]
  71:.\Generated_Source\PSoC5/USBFS_episr.c ****         /* Do not toggle ISOC endpoint */
  72:.\Generated_Source\PSoC5/USBFS_episr.c ****         if((USBFS_EP[USBFS_EP1].attrib & USBFS_EP_TYPE_MASK) !=
ARM GAS  C:\Users\VICTOR~1\AppData\Local\Temp\ccOdoS4G.s 			page 3


  43              		.loc 1 72 0
  44 000e 40F20003 		movw	r3, #:lower16:USBFS_EP
  45 0012 C0F20003 		movt	r3, #:upper16:USBFS_EP
  46 0016 1B7B     		ldrb	r3, [r3, #12]
  47 0018 DBB2     		uxtb	r3, r3
  48 001a 03F00303 		and	r3, r3, #3
  49 001e 012B     		cmp	r3, #1
  50 0020 0FD0     		beq	.L2
  73:.\Generated_Source\PSoC5/USBFS_episr.c ****                                                                                     USBFS_EP_TYPE_I
  74:.\Generated_Source\PSoC5/USBFS_episr.c ****         {
  75:.\Generated_Source\PSoC5/USBFS_episr.c ****             USBFS_EP[USBFS_EP1].epToggle ^= USBFS_EPX_CNT_DATA_TOGGLE;
  51              		.loc 1 75 0
  52 0022 40F20003 		movw	r3, #:lower16:USBFS_EP
  53 0026 C0F20003 		movt	r3, #:upper16:USBFS_EP
  54 002a DB7B     		ldrb	r3, [r3, #15]
  55 002c DBB2     		uxtb	r3, r3
  56 002e 83F07F03 		eor	r3, r3, #127
  57 0032 6FEA0303 		mvn	r3, r3
  58 0036 DAB2     		uxtb	r2, r3
  59 0038 40F20003 		movw	r3, #:lower16:USBFS_EP
  60 003c C0F20003 		movt	r3, #:upper16:USBFS_EP
  61 0040 DA73     		strb	r2, [r3, #15]
  62              	.L2:
  76:.\Generated_Source\PSoC5/USBFS_episr.c ****         }
  77:.\Generated_Source\PSoC5/USBFS_episr.c ****         USBFS_EP[USBFS_EP1].apiEpState = USBFS_EVENT_PENDING;
  63              		.loc 1 77 0
  64 0042 40F20003 		movw	r3, #:lower16:USBFS_EP
  65 0046 C0F20003 		movt	r3, #:upper16:USBFS_EP
  66 004a 4FF00102 		mov	r2, #1
  67 004e 5A73     		strb	r2, [r3, #13]
  78:.\Generated_Source\PSoC5/USBFS_episr.c ****         CY_SET_REG8(USBFS_SIE_EP_INT_SR_PTR, CY_GET_REG8(USBFS_SIE_EP_INT_SR_PTR) &
  68              		.loc 1 78 0
  69 0050 46F20B03 		movw	r3, #24587
  70 0054 C4F20003 		movt	r3, 16384
  71 0058 46F20B02 		movw	r2, #24587
  72 005c C4F20002 		movt	r2, 16384
  73 0060 1278     		ldrb	r2, [r2, #0]
  74 0062 D2B2     		uxtb	r2, r2
  75 0064 22F00102 		bic	r2, r2, #1
  76 0068 D2B2     		uxtb	r2, r2
  77 006a 1A70     		strb	r2, [r3, #0]
  79:.\Generated_Source\PSoC5/USBFS_episr.c ****                                                                     (uint8)~USBFS_SIE_EP_INT_EP1_MA
  80:.\Generated_Source\PSoC5/USBFS_episr.c **** 
  81:.\Generated_Source\PSoC5/USBFS_episr.c ****         #if (defined(USBFS_ENABLE_MIDI_STREAMING) && !defined(USBFS_MAIN_SERVICE_MIDI_OUT) && \
  82:.\Generated_Source\PSoC5/USBFS_episr.c ****                      USBFS_ISR_SERVICE_MIDI_OUT)
  83:.\Generated_Source\PSoC5/USBFS_episr.c ****             if(USBFS_midi_out_ep == USBFS_EP1)
  84:.\Generated_Source\PSoC5/USBFS_episr.c ****             {
  85:.\Generated_Source\PSoC5/USBFS_episr.c ****                 USBFS_MIDI_OUT_EP_Service();
  86:.\Generated_Source\PSoC5/USBFS_episr.c ****             }
  87:.\Generated_Source\PSoC5/USBFS_episr.c ****         #endif /*  USBFS_ISR_SERVICE_MIDI_OUT */
  88:.\Generated_Source\PSoC5/USBFS_episr.c **** 
  89:.\Generated_Source\PSoC5/USBFS_episr.c ****         /* `#START EP1_END_USER_CODE` Place your code here */
  90:.\Generated_Source\PSoC5/USBFS_episr.c **** 
  91:.\Generated_Source\PSoC5/USBFS_episr.c ****         /* `#END` */
  92:.\Generated_Source\PSoC5/USBFS_episr.c **** 
  93:.\Generated_Source\PSoC5/USBFS_episr.c ****         #if (defined(USBFS_ENABLE_MIDI_STREAMING) && !defined(USBFS_MAIN_SERVICE_MIDI_OUT) && \
  94:.\Generated_Source\PSoC5/USBFS_episr.c ****                      USBFS_ISR_SERVICE_MIDI_OUT && CY_PSOC3)
ARM GAS  C:\Users\VICTOR~1\AppData\Local\Temp\ccOdoS4G.s 			page 4


  95:.\Generated_Source\PSoC5/USBFS_episr.c ****             EA = int_en;
  96:.\Generated_Source\PSoC5/USBFS_episr.c ****         #endif /* USBFS_ISR_SERVICE_MIDI_OUT && CY_PSOC3 */
  97:.\Generated_Source\PSoC5/USBFS_episr.c ****     }
  78              		.loc 1 97 0
  79 006c BD46     		mov	sp, r7
  80 006e 80BC     		pop	{r7}
  81 0070 7047     		bx	lr
  82              		.cfi_endproc
  83              	.LFE0:
  84              		.size	USBFS_EP_1_ISR, .-USBFS_EP_1_ISR
  85 0072 00BF     		.section	.text.USBFS_EP_2_ISR,"ax",%progbits
  86              		.align	2
  87              		.global	USBFS_EP_2_ISR
  88              		.thumb
  89              		.thumb_func
  90              		.type	USBFS_EP_2_ISR, %function
  91              	USBFS_EP_2_ISR:
  92              	.LFB1:
  98:.\Generated_Source\PSoC5/USBFS_episr.c **** 
  99:.\Generated_Source\PSoC5/USBFS_episr.c **** #endif   /*  USBFS_EP1_ISR_REMOVE */
 100:.\Generated_Source\PSoC5/USBFS_episr.c **** 
 101:.\Generated_Source\PSoC5/USBFS_episr.c **** 
 102:.\Generated_Source\PSoC5/USBFS_episr.c **** #if(USBFS_EP2_ISR_REMOVE == 0u)
 103:.\Generated_Source\PSoC5/USBFS_episr.c **** 
 104:.\Generated_Source\PSoC5/USBFS_episr.c ****     /*******************************************************************************
 105:.\Generated_Source\PSoC5/USBFS_episr.c ****     * Function Name: USBFS_EP_2_ISR
 106:.\Generated_Source\PSoC5/USBFS_episr.c ****     ********************************************************************************
 107:.\Generated_Source\PSoC5/USBFS_episr.c ****     *
 108:.\Generated_Source\PSoC5/USBFS_episr.c ****     * Summary:
 109:.\Generated_Source\PSoC5/USBFS_episr.c ****     *  Endpoint 2 Interrupt Service Routine
 110:.\Generated_Source\PSoC5/USBFS_episr.c ****     *
 111:.\Generated_Source\PSoC5/USBFS_episr.c ****     * Parameters:
 112:.\Generated_Source\PSoC5/USBFS_episr.c ****     *  None.
 113:.\Generated_Source\PSoC5/USBFS_episr.c ****     *
 114:.\Generated_Source\PSoC5/USBFS_episr.c ****     * Return:
 115:.\Generated_Source\PSoC5/USBFS_episr.c ****     *  None.
 116:.\Generated_Source\PSoC5/USBFS_episr.c ****     *
 117:.\Generated_Source\PSoC5/USBFS_episr.c ****     *******************************************************************************/
 118:.\Generated_Source\PSoC5/USBFS_episr.c ****     CY_ISR(USBFS_EP_2_ISR)
 119:.\Generated_Source\PSoC5/USBFS_episr.c ****     {
  93              		.loc 1 119 0
  94              		.cfi_startproc
  95              		@ args = 0, pretend = 0, frame = 0
  96              		@ frame_needed = 1, uses_anonymous_args = 0
  97              		@ link register save eliminated.
  98 0000 80B4     		push	{r7}
  99              	.LCFI2:
 100              		.cfi_def_cfa_offset 4
 101              		.cfi_offset 7, -4
 102 0002 00AF     		add	r7, sp, #0
 103              	.LCFI3:
 104              		.cfi_def_cfa_register 7
 120:.\Generated_Source\PSoC5/USBFS_episr.c ****         #if (defined(USBFS_ENABLE_MIDI_STREAMING) && !defined(USBFS_MAIN_SERVICE_MIDI_OUT) && \
 121:.\Generated_Source\PSoC5/USBFS_episr.c ****                      USBFS_ISR_SERVICE_MIDI_OUT && CY_PSOC3)
 122:.\Generated_Source\PSoC5/USBFS_episr.c ****             uint8 int_en;
 123:.\Generated_Source\PSoC5/USBFS_episr.c ****         #endif /* USBFS_ISR_SERVICE_MIDI_OUT && CY_PSOC3 */
 124:.\Generated_Source\PSoC5/USBFS_episr.c **** 
ARM GAS  C:\Users\VICTOR~1\AppData\Local\Temp\ccOdoS4G.s 			page 5


 125:.\Generated_Source\PSoC5/USBFS_episr.c ****         /* `#START EP2_USER_CODE` Place your code here */
 126:.\Generated_Source\PSoC5/USBFS_episr.c **** 
 127:.\Generated_Source\PSoC5/USBFS_episr.c ****         /* `#END` */
 128:.\Generated_Source\PSoC5/USBFS_episr.c **** 
 129:.\Generated_Source\PSoC5/USBFS_episr.c ****         #if (defined(USBFS_ENABLE_MIDI_STREAMING) && !defined(USBFS_MAIN_SERVICE_MIDI_OUT) && \
 130:.\Generated_Source\PSoC5/USBFS_episr.c ****                      USBFS_ISR_SERVICE_MIDI_OUT && CY_PSOC3)
 131:.\Generated_Source\PSoC5/USBFS_episr.c ****             int_en = EA;
 132:.\Generated_Source\PSoC5/USBFS_episr.c ****             CyGlobalIntEnable;  /* Make sure nested interrupt is enabled */
 133:.\Generated_Source\PSoC5/USBFS_episr.c ****         #endif /* USBFS_ISR_SERVICE_MIDI_OUT && CY_PSOC3 */
 134:.\Generated_Source\PSoC5/USBFS_episr.c **** 
 135:.\Generated_Source\PSoC5/USBFS_episr.c ****         CY_GET_REG8(USBFS_SIE_EP2_CR0_PTR); /* Must read the mode reg */
 105              		.loc 1 135 0
 106 0004 46F21E03 		movw	r3, #24606
 107 0008 C4F20003 		movt	r3, 16384
 108 000c 1B78     		ldrb	r3, [r3, #0]
 136:.\Generated_Source\PSoC5/USBFS_episr.c ****         /* Do not toggle ISOC endpoint */
 137:.\Generated_Source\PSoC5/USBFS_episr.c ****         if((USBFS_EP[USBFS_EP2].attrib & USBFS_EP_TYPE_MASK) !=
 109              		.loc 1 137 0
 110 000e 40F20003 		movw	r3, #:lower16:USBFS_EP
 111 0012 C0F20003 		movt	r3, #:upper16:USBFS_EP
 112 0016 1B7E     		ldrb	r3, [r3, #24]
 113 0018 DBB2     		uxtb	r3, r3
 114 001a 03F00303 		and	r3, r3, #3
 115 001e 012B     		cmp	r3, #1
 116 0020 0FD0     		beq	.L4
 138:.\Generated_Source\PSoC5/USBFS_episr.c ****                                                                                     USBFS_EP_TYPE_I
 139:.\Generated_Source\PSoC5/USBFS_episr.c ****         {
 140:.\Generated_Source\PSoC5/USBFS_episr.c ****             USBFS_EP[USBFS_EP2].epToggle ^= USBFS_EPX_CNT_DATA_TOGGLE;
 117              		.loc 1 140 0
 118 0022 40F20003 		movw	r3, #:lower16:USBFS_EP
 119 0026 C0F20003 		movt	r3, #:upper16:USBFS_EP
 120 002a DB7E     		ldrb	r3, [r3, #27]
 121 002c DBB2     		uxtb	r3, r3
 122 002e 83F07F03 		eor	r3, r3, #127
 123 0032 6FEA0303 		mvn	r3, r3
 124 0036 DAB2     		uxtb	r2, r3
 125 0038 40F20003 		movw	r3, #:lower16:USBFS_EP
 126 003c C0F20003 		movt	r3, #:upper16:USBFS_EP
 127 0040 DA76     		strb	r2, [r3, #27]
 128              	.L4:
 141:.\Generated_Source\PSoC5/USBFS_episr.c ****         }
 142:.\Generated_Source\PSoC5/USBFS_episr.c ****         USBFS_EP[USBFS_EP2].apiEpState = USBFS_EVENT_PENDING;
 129              		.loc 1 142 0
 130 0042 40F20003 		movw	r3, #:lower16:USBFS_EP
 131 0046 C0F20003 		movt	r3, #:upper16:USBFS_EP
 132 004a 4FF00102 		mov	r2, #1
 133 004e 5A76     		strb	r2, [r3, #25]
 143:.\Generated_Source\PSoC5/USBFS_episr.c ****         CY_SET_REG8(USBFS_SIE_EP_INT_SR_PTR, CY_GET_REG8(USBFS_SIE_EP_INT_SR_PTR)
 134              		.loc 1 143 0
 135 0050 46F20B03 		movw	r3, #24587
 136 0054 C4F20003 		movt	r3, 16384
 137 0058 46F20B02 		movw	r2, #24587
 138 005c C4F20002 		movt	r2, 16384
 139 0060 1278     		ldrb	r2, [r2, #0]
 140 0062 D2B2     		uxtb	r2, r2
 141 0064 22F00202 		bic	r2, r2, #2
 142 0068 D2B2     		uxtb	r2, r2
ARM GAS  C:\Users\VICTOR~1\AppData\Local\Temp\ccOdoS4G.s 			page 6


 143 006a 1A70     		strb	r2, [r3, #0]
 144:.\Generated_Source\PSoC5/USBFS_episr.c ****                                                                         & (uint8)~USBFS_SIE_EP_INT_
 145:.\Generated_Source\PSoC5/USBFS_episr.c **** 
 146:.\Generated_Source\PSoC5/USBFS_episr.c ****         #if (defined(USBFS_ENABLE_MIDI_STREAMING) && !defined(USBFS_MAIN_SERVICE_MIDI_OUT) && \
 147:.\Generated_Source\PSoC5/USBFS_episr.c ****                      USBFS_ISR_SERVICE_MIDI_OUT)
 148:.\Generated_Source\PSoC5/USBFS_episr.c ****             if(USBFS_midi_out_ep == USBFS_EP2)
 149:.\Generated_Source\PSoC5/USBFS_episr.c ****             {
 150:.\Generated_Source\PSoC5/USBFS_episr.c ****                 USBFS_MIDI_OUT_EP_Service();
 151:.\Generated_Source\PSoC5/USBFS_episr.c ****             }
 152:.\Generated_Source\PSoC5/USBFS_episr.c ****         #endif /*  USBFS_ISR_SERVICE_MIDI_OUT */
 153:.\Generated_Source\PSoC5/USBFS_episr.c **** 
 154:.\Generated_Source\PSoC5/USBFS_episr.c ****         /* `#START EP2_END_USER_CODE` Place your code here */
 155:.\Generated_Source\PSoC5/USBFS_episr.c **** 
 156:.\Generated_Source\PSoC5/USBFS_episr.c ****         /* `#END` */
 157:.\Generated_Source\PSoC5/USBFS_episr.c **** 
 158:.\Generated_Source\PSoC5/USBFS_episr.c ****         #if (defined(USBFS_ENABLE_MIDI_STREAMING) && !defined(USBFS_MAIN_SERVICE_MIDI_OUT) && \
 159:.\Generated_Source\PSoC5/USBFS_episr.c ****                      USBFS_ISR_SERVICE_MIDI_OUT && CY_PSOC3)
 160:.\Generated_Source\PSoC5/USBFS_episr.c ****             EA = int_en;
 161:.\Generated_Source\PSoC5/USBFS_episr.c ****         #endif /* USBFS_ISR_SERVICE_MIDI_OUT && CY_PSOC3 */
 162:.\Generated_Source\PSoC5/USBFS_episr.c ****     }
 144              		.loc 1 162 0
 145 006c BD46     		mov	sp, r7
 146 006e 80BC     		pop	{r7}
 147 0070 7047     		bx	lr
 148              		.cfi_endproc
 149              	.LFE1:
 150              		.size	USBFS_EP_2_ISR, .-USBFS_EP_2_ISR
 151 0072 00BF     		.section	.text.USBFS_EP_3_ISR,"ax",%progbits
 152              		.align	2
 153              		.global	USBFS_EP_3_ISR
 154              		.thumb
 155              		.thumb_func
 156              		.type	USBFS_EP_3_ISR, %function
 157              	USBFS_EP_3_ISR:
 158              	.LFB2:
 163:.\Generated_Source\PSoC5/USBFS_episr.c **** 
 164:.\Generated_Source\PSoC5/USBFS_episr.c **** #endif   /*  USBFS_EP2_ISR_REMOVE */
 165:.\Generated_Source\PSoC5/USBFS_episr.c **** 
 166:.\Generated_Source\PSoC5/USBFS_episr.c **** 
 167:.\Generated_Source\PSoC5/USBFS_episr.c **** #if(USBFS_EP3_ISR_REMOVE == 0u)
 168:.\Generated_Source\PSoC5/USBFS_episr.c **** 
 169:.\Generated_Source\PSoC5/USBFS_episr.c ****     /*******************************************************************************
 170:.\Generated_Source\PSoC5/USBFS_episr.c ****     * Function Name: USBFS_EP_3_ISR
 171:.\Generated_Source\PSoC5/USBFS_episr.c ****     ********************************************************************************
 172:.\Generated_Source\PSoC5/USBFS_episr.c ****     *
 173:.\Generated_Source\PSoC5/USBFS_episr.c ****     * Summary:
 174:.\Generated_Source\PSoC5/USBFS_episr.c ****     *  Endpoint 3 Interrupt Service Routine
 175:.\Generated_Source\PSoC5/USBFS_episr.c ****     *
 176:.\Generated_Source\PSoC5/USBFS_episr.c ****     * Parameters:
 177:.\Generated_Source\PSoC5/USBFS_episr.c ****     *  None.
 178:.\Generated_Source\PSoC5/USBFS_episr.c ****     *
 179:.\Generated_Source\PSoC5/USBFS_episr.c ****     * Return:
 180:.\Generated_Source\PSoC5/USBFS_episr.c ****     *  None.
 181:.\Generated_Source\PSoC5/USBFS_episr.c ****     *
 182:.\Generated_Source\PSoC5/USBFS_episr.c ****     *******************************************************************************/
 183:.\Generated_Source\PSoC5/USBFS_episr.c ****     CY_ISR(USBFS_EP_3_ISR)
 184:.\Generated_Source\PSoC5/USBFS_episr.c ****     {
ARM GAS  C:\Users\VICTOR~1\AppData\Local\Temp\ccOdoS4G.s 			page 7


 159              		.loc 1 184 0
 160              		.cfi_startproc
 161              		@ args = 0, pretend = 0, frame = 0
 162              		@ frame_needed = 1, uses_anonymous_args = 0
 163              		@ link register save eliminated.
 164 0000 80B4     		push	{r7}
 165              	.LCFI4:
 166              		.cfi_def_cfa_offset 4
 167              		.cfi_offset 7, -4
 168 0002 00AF     		add	r7, sp, #0
 169              	.LCFI5:
 170              		.cfi_def_cfa_register 7
 185:.\Generated_Source\PSoC5/USBFS_episr.c ****         #if (defined(USBFS_ENABLE_MIDI_STREAMING) && !defined(USBFS_MAIN_SERVICE_MIDI_OUT) && \
 186:.\Generated_Source\PSoC5/USBFS_episr.c ****                      USBFS_ISR_SERVICE_MIDI_OUT && CY_PSOC3)
 187:.\Generated_Source\PSoC5/USBFS_episr.c ****             uint8 int_en;
 188:.\Generated_Source\PSoC5/USBFS_episr.c ****         #endif /* USBFS_ISR_SERVICE_MIDI_OUT && CY_PSOC3 */
 189:.\Generated_Source\PSoC5/USBFS_episr.c **** 
 190:.\Generated_Source\PSoC5/USBFS_episr.c ****         /* `#START EP3_USER_CODE` Place your code here */
 191:.\Generated_Source\PSoC5/USBFS_episr.c **** 
 192:.\Generated_Source\PSoC5/USBFS_episr.c ****         /* `#END` */
 193:.\Generated_Source\PSoC5/USBFS_episr.c **** 
 194:.\Generated_Source\PSoC5/USBFS_episr.c ****         #if (defined(USBFS_ENABLE_MIDI_STREAMING) && !defined(USBFS_MAIN_SERVICE_MIDI_OUT) && \
 195:.\Generated_Source\PSoC5/USBFS_episr.c ****                      USBFS_ISR_SERVICE_MIDI_OUT && CY_PSOC3)
 196:.\Generated_Source\PSoC5/USBFS_episr.c ****             int_en = EA;
 197:.\Generated_Source\PSoC5/USBFS_episr.c ****             CyGlobalIntEnable;  /* Make sure nested interrupt is enabled */
 198:.\Generated_Source\PSoC5/USBFS_episr.c ****         #endif /* CY_PSOC3 & USBFS_ISR_SERVICE_MIDI_OUT  */
 199:.\Generated_Source\PSoC5/USBFS_episr.c **** 
 200:.\Generated_Source\PSoC5/USBFS_episr.c ****         CY_GET_REG8(USBFS_SIE_EP3_CR0_PTR); /* Must read the mode reg */
 171              		.loc 1 200 0
 172 0004 46F22E03 		movw	r3, #24622
 173 0008 C4F20003 		movt	r3, 16384
 174 000c 1B78     		ldrb	r3, [r3, #0]
 201:.\Generated_Source\PSoC5/USBFS_episr.c ****         /* Do not toggle ISOC endpoint */
 202:.\Generated_Source\PSoC5/USBFS_episr.c ****         if((USBFS_EP[USBFS_EP3].attrib & USBFS_EP_TYPE_MASK) !=
 175              		.loc 1 202 0
 176 000e 40F20003 		movw	r3, #:lower16:USBFS_EP
 177 0012 C0F20003 		movt	r3, #:upper16:USBFS_EP
 178 0016 93F82430 		ldrb	r3, [r3, #36]
 179 001a DBB2     		uxtb	r3, r3
 180 001c 03F00303 		and	r3, r3, #3
 181 0020 012B     		cmp	r3, #1
 182 0022 11D0     		beq	.L6
 203:.\Generated_Source\PSoC5/USBFS_episr.c ****                                                                                     USBFS_EP_TYPE_I
 204:.\Generated_Source\PSoC5/USBFS_episr.c ****         {
 205:.\Generated_Source\PSoC5/USBFS_episr.c ****             USBFS_EP[USBFS_EP3].epToggle ^= USBFS_EPX_CNT_DATA_TOGGLE;
 183              		.loc 1 205 0
 184 0024 40F20003 		movw	r3, #:lower16:USBFS_EP
 185 0028 C0F20003 		movt	r3, #:upper16:USBFS_EP
 186 002c 93F82730 		ldrb	r3, [r3, #39]
 187 0030 DBB2     		uxtb	r3, r3
 188 0032 83F07F03 		eor	r3, r3, #127
 189 0036 6FEA0303 		mvn	r3, r3
 190 003a DAB2     		uxtb	r2, r3
 191 003c 40F20003 		movw	r3, #:lower16:USBFS_EP
 192 0040 C0F20003 		movt	r3, #:upper16:USBFS_EP
 193 0044 83F82720 		strb	r2, [r3, #39]
 194              	.L6:
ARM GAS  C:\Users\VICTOR~1\AppData\Local\Temp\ccOdoS4G.s 			page 8


 206:.\Generated_Source\PSoC5/USBFS_episr.c ****         }
 207:.\Generated_Source\PSoC5/USBFS_episr.c ****         USBFS_EP[USBFS_EP3].apiEpState = USBFS_EVENT_PENDING;
 195              		.loc 1 207 0
 196 0048 40F20003 		movw	r3, #:lower16:USBFS_EP
 197 004c C0F20003 		movt	r3, #:upper16:USBFS_EP
 198 0050 4FF00102 		mov	r2, #1
 199 0054 83F82520 		strb	r2, [r3, #37]
 208:.\Generated_Source\PSoC5/USBFS_episr.c ****         CY_SET_REG8(USBFS_SIE_EP_INT_SR_PTR, CY_GET_REG8(USBFS_SIE_EP_INT_SR_PTR)
 200              		.loc 1 208 0
 201 0058 46F20B03 		movw	r3, #24587
 202 005c C4F20003 		movt	r3, 16384
 203 0060 46F20B02 		movw	r2, #24587
 204 0064 C4F20002 		movt	r2, 16384
 205 0068 1278     		ldrb	r2, [r2, #0]
 206 006a D2B2     		uxtb	r2, r2
 207 006c 22F00402 		bic	r2, r2, #4
 208 0070 D2B2     		uxtb	r2, r2
 209 0072 1A70     		strb	r2, [r3, #0]
 209:.\Generated_Source\PSoC5/USBFS_episr.c ****                                                                         & (uint8)~USBFS_SIE_EP_INT_
 210:.\Generated_Source\PSoC5/USBFS_episr.c **** 
 211:.\Generated_Source\PSoC5/USBFS_episr.c ****         #if (defined(USBFS_ENABLE_MIDI_STREAMING) && !defined(USBFS_MAIN_SERVICE_MIDI_OUT) && \
 212:.\Generated_Source\PSoC5/USBFS_episr.c ****                      USBFS_ISR_SERVICE_MIDI_OUT)
 213:.\Generated_Source\PSoC5/USBFS_episr.c ****             if(USBFS_midi_out_ep == USBFS_EP3)
 214:.\Generated_Source\PSoC5/USBFS_episr.c ****             {
 215:.\Generated_Source\PSoC5/USBFS_episr.c ****                 USBFS_MIDI_OUT_EP_Service();
 216:.\Generated_Source\PSoC5/USBFS_episr.c ****             }
 217:.\Generated_Source\PSoC5/USBFS_episr.c ****         #endif /*  USBFS_ISR_SERVICE_MIDI_OUT */
 218:.\Generated_Source\PSoC5/USBFS_episr.c **** 
 219:.\Generated_Source\PSoC5/USBFS_episr.c ****         /* `#START EP3_END_USER_CODE` Place your code here */
 220:.\Generated_Source\PSoC5/USBFS_episr.c **** 
 221:.\Generated_Source\PSoC5/USBFS_episr.c ****         /* `#END` */
 222:.\Generated_Source\PSoC5/USBFS_episr.c **** 
 223:.\Generated_Source\PSoC5/USBFS_episr.c ****         #if (defined(USBFS_ENABLE_MIDI_STREAMING) && !defined(USBFS_MAIN_SERVICE_MIDI_OUT) && \
 224:.\Generated_Source\PSoC5/USBFS_episr.c ****                      USBFS_ISR_SERVICE_MIDI_OUT && CY_PSOC3)
 225:.\Generated_Source\PSoC5/USBFS_episr.c ****             EA = int_en;
 226:.\Generated_Source\PSoC5/USBFS_episr.c ****         #endif /* CY_PSOC3 & USBFS_ISR_SERVICE_MIDI_OUT  */
 227:.\Generated_Source\PSoC5/USBFS_episr.c ****     }
 210              		.loc 1 227 0
 211 0074 BD46     		mov	sp, r7
 212 0076 80BC     		pop	{r7}
 213 0078 7047     		bx	lr
 214              		.cfi_endproc
 215              	.LFE2:
 216              		.size	USBFS_EP_3_ISR, .-USBFS_EP_3_ISR
 217 007a 00BF     		.section	.text.USBFS_EP_4_ISR,"ax",%progbits
 218              		.align	2
 219              		.global	USBFS_EP_4_ISR
 220              		.thumb
 221              		.thumb_func
 222              		.type	USBFS_EP_4_ISR, %function
 223              	USBFS_EP_4_ISR:
 224              	.LFB3:
 228:.\Generated_Source\PSoC5/USBFS_episr.c **** 
 229:.\Generated_Source\PSoC5/USBFS_episr.c **** #endif   /*  USBFS_EP3_ISR_REMOVE */
 230:.\Generated_Source\PSoC5/USBFS_episr.c **** 
 231:.\Generated_Source\PSoC5/USBFS_episr.c **** 
 232:.\Generated_Source\PSoC5/USBFS_episr.c **** #if(USBFS_EP4_ISR_REMOVE == 0u)
ARM GAS  C:\Users\VICTOR~1\AppData\Local\Temp\ccOdoS4G.s 			page 9


 233:.\Generated_Source\PSoC5/USBFS_episr.c **** 
 234:.\Generated_Source\PSoC5/USBFS_episr.c ****     /*******************************************************************************
 235:.\Generated_Source\PSoC5/USBFS_episr.c ****     * Function Name: USBFS_EP_4_ISR
 236:.\Generated_Source\PSoC5/USBFS_episr.c ****     ********************************************************************************
 237:.\Generated_Source\PSoC5/USBFS_episr.c ****     *
 238:.\Generated_Source\PSoC5/USBFS_episr.c ****     * Summary:
 239:.\Generated_Source\PSoC5/USBFS_episr.c ****     *  Endpoint 4 Interrupt Service Routine
 240:.\Generated_Source\PSoC5/USBFS_episr.c ****     *
 241:.\Generated_Source\PSoC5/USBFS_episr.c ****     * Parameters:
 242:.\Generated_Source\PSoC5/USBFS_episr.c ****     *  None.
 243:.\Generated_Source\PSoC5/USBFS_episr.c ****     *
 244:.\Generated_Source\PSoC5/USBFS_episr.c ****     * Return:
 245:.\Generated_Source\PSoC5/USBFS_episr.c ****     *  None.
 246:.\Generated_Source\PSoC5/USBFS_episr.c ****     *
 247:.\Generated_Source\PSoC5/USBFS_episr.c ****     *******************************************************************************/
 248:.\Generated_Source\PSoC5/USBFS_episr.c ****     CY_ISR(USBFS_EP_4_ISR)
 249:.\Generated_Source\PSoC5/USBFS_episr.c ****     {
 225              		.loc 1 249 0
 226              		.cfi_startproc
 227              		@ args = 0, pretend = 0, frame = 0
 228              		@ frame_needed = 1, uses_anonymous_args = 0
 229              		@ link register save eliminated.
 230 0000 80B4     		push	{r7}
 231              	.LCFI6:
 232              		.cfi_def_cfa_offset 4
 233              		.cfi_offset 7, -4
 234 0002 00AF     		add	r7, sp, #0
 235              	.LCFI7:
 236              		.cfi_def_cfa_register 7
 250:.\Generated_Source\PSoC5/USBFS_episr.c ****         #if (defined(USBFS_ENABLE_MIDI_STREAMING) && !defined(USBFS_MAIN_SERVICE_MIDI_OUT) && \
 251:.\Generated_Source\PSoC5/USBFS_episr.c ****                      USBFS_ISR_SERVICE_MIDI_OUT && CY_PSOC3)
 252:.\Generated_Source\PSoC5/USBFS_episr.c ****             uint8 int_en;
 253:.\Generated_Source\PSoC5/USBFS_episr.c ****         #endif /* CY_PSOC3 & USBFS_ISR_SERVICE_MIDI_OUT  */
 254:.\Generated_Source\PSoC5/USBFS_episr.c **** 
 255:.\Generated_Source\PSoC5/USBFS_episr.c ****         /* `#START EP4_USER_CODE` Place your code here */
 256:.\Generated_Source\PSoC5/USBFS_episr.c **** 
 257:.\Generated_Source\PSoC5/USBFS_episr.c ****         /* `#END` */
 258:.\Generated_Source\PSoC5/USBFS_episr.c **** 
 259:.\Generated_Source\PSoC5/USBFS_episr.c ****         #if (defined(USBFS_ENABLE_MIDI_STREAMING) && !defined(USBFS_MAIN_SERVICE_MIDI_OUT) && \
 260:.\Generated_Source\PSoC5/USBFS_episr.c ****                      USBFS_ISR_SERVICE_MIDI_OUT && CY_PSOC3)
 261:.\Generated_Source\PSoC5/USBFS_episr.c ****             int_en = EA;
 262:.\Generated_Source\PSoC5/USBFS_episr.c ****             CyGlobalIntEnable;  /* Make sure nested interrupt is enabled */
 263:.\Generated_Source\PSoC5/USBFS_episr.c ****         #endif /* CY_PSOC3 & USBFS_ISR_SERVICE_MIDI_OUT  */
 264:.\Generated_Source\PSoC5/USBFS_episr.c **** 
 265:.\Generated_Source\PSoC5/USBFS_episr.c ****         CY_GET_REG8(USBFS_SIE_EP4_CR0_PTR); /* Must read the mode reg */
 237              		.loc 1 265 0
 238 0004 46F23E03 		movw	r3, #24638
 239 0008 C4F20003 		movt	r3, 16384
 240 000c 1B78     		ldrb	r3, [r3, #0]
 266:.\Generated_Source\PSoC5/USBFS_episr.c ****         /* Do not toggle ISOC endpoint */
 267:.\Generated_Source\PSoC5/USBFS_episr.c ****         if((USBFS_EP[USBFS_EP4].attrib & USBFS_EP_TYPE_MASK) !=
 241              		.loc 1 267 0
 242 000e 40F20003 		movw	r3, #:lower16:USBFS_EP
 243 0012 C0F20003 		movt	r3, #:upper16:USBFS_EP
 244 0016 93F83030 		ldrb	r3, [r3, #48]
 245 001a DBB2     		uxtb	r3, r3
 246 001c 03F00303 		and	r3, r3, #3
ARM GAS  C:\Users\VICTOR~1\AppData\Local\Temp\ccOdoS4G.s 			page 10


 247 0020 012B     		cmp	r3, #1
 248 0022 11D0     		beq	.L8
 268:.\Generated_Source\PSoC5/USBFS_episr.c ****                                                                                     USBFS_EP_TYPE_I
 269:.\Generated_Source\PSoC5/USBFS_episr.c ****         {
 270:.\Generated_Source\PSoC5/USBFS_episr.c ****             USBFS_EP[USBFS_EP4].epToggle ^= USBFS_EPX_CNT_DATA_TOGGLE;
 249              		.loc 1 270 0
 250 0024 40F20003 		movw	r3, #:lower16:USBFS_EP
 251 0028 C0F20003 		movt	r3, #:upper16:USBFS_EP
 252 002c 93F83330 		ldrb	r3, [r3, #51]
 253 0030 DBB2     		uxtb	r3, r3
 254 0032 83F07F03 		eor	r3, r3, #127
 255 0036 6FEA0303 		mvn	r3, r3
 256 003a DAB2     		uxtb	r2, r3
 257 003c 40F20003 		movw	r3, #:lower16:USBFS_EP
 258 0040 C0F20003 		movt	r3, #:upper16:USBFS_EP
 259 0044 83F83320 		strb	r2, [r3, #51]
 260              	.L8:
 271:.\Generated_Source\PSoC5/USBFS_episr.c ****         }
 272:.\Generated_Source\PSoC5/USBFS_episr.c ****         USBFS_EP[USBFS_EP4].apiEpState = USBFS_EVENT_PENDING;
 261              		.loc 1 272 0
 262 0048 40F20003 		movw	r3, #:lower16:USBFS_EP
 263 004c C0F20003 		movt	r3, #:upper16:USBFS_EP
 264 0050 4FF00102 		mov	r2, #1
 265 0054 83F83120 		strb	r2, [r3, #49]
 273:.\Generated_Source\PSoC5/USBFS_episr.c ****         CY_SET_REG8(USBFS_SIE_EP_INT_SR_PTR, CY_GET_REG8(USBFS_SIE_EP_INT_SR_PTR)
 266              		.loc 1 273 0
 267 0058 46F20B03 		movw	r3, #24587
 268 005c C4F20003 		movt	r3, 16384
 269 0060 46F20B02 		movw	r2, #24587
 270 0064 C4F20002 		movt	r2, 16384
 271 0068 1278     		ldrb	r2, [r2, #0]
 272 006a D2B2     		uxtb	r2, r2
 273 006c 22F00802 		bic	r2, r2, #8
 274 0070 D2B2     		uxtb	r2, r2
 275 0072 1A70     		strb	r2, [r3, #0]
 274:.\Generated_Source\PSoC5/USBFS_episr.c ****                                                                         & (uint8)~USBFS_SIE_EP_INT_
 275:.\Generated_Source\PSoC5/USBFS_episr.c **** 
 276:.\Generated_Source\PSoC5/USBFS_episr.c ****         #if (defined(USBFS_ENABLE_MIDI_STREAMING) && !defined(USBFS_MAIN_SERVICE_MIDI_OUT) && \
 277:.\Generated_Source\PSoC5/USBFS_episr.c ****                      USBFS_ISR_SERVICE_MIDI_OUT)
 278:.\Generated_Source\PSoC5/USBFS_episr.c ****             if(USBFS_midi_out_ep == USBFS_EP4)
 279:.\Generated_Source\PSoC5/USBFS_episr.c ****             {
 280:.\Generated_Source\PSoC5/USBFS_episr.c ****                 USBFS_MIDI_OUT_EP_Service();
 281:.\Generated_Source\PSoC5/USBFS_episr.c ****             }
 282:.\Generated_Source\PSoC5/USBFS_episr.c ****         #endif /*  USBFS_ISR_SERVICE_MIDI_OUT */
 283:.\Generated_Source\PSoC5/USBFS_episr.c **** 
 284:.\Generated_Source\PSoC5/USBFS_episr.c ****         /* `#START EP4_END_USER_CODE` Place your code here */
 285:.\Generated_Source\PSoC5/USBFS_episr.c **** 
 286:.\Generated_Source\PSoC5/USBFS_episr.c ****         /* `#END` */
 287:.\Generated_Source\PSoC5/USBFS_episr.c **** 
 288:.\Generated_Source\PSoC5/USBFS_episr.c ****         #if (defined(USBFS_ENABLE_MIDI_STREAMING) && !defined(USBFS_MAIN_SERVICE_MIDI_OUT) && \
 289:.\Generated_Source\PSoC5/USBFS_episr.c ****                      USBFS_ISR_SERVICE_MIDI_OUT && CY_PSOC3)
 290:.\Generated_Source\PSoC5/USBFS_episr.c ****             EA = int_en;
 291:.\Generated_Source\PSoC5/USBFS_episr.c ****         #endif /* CY_PSOC3 & USBFS_ISR_SERVICE_MIDI_OUT  */
 292:.\Generated_Source\PSoC5/USBFS_episr.c ****     }
 276              		.loc 1 292 0
 277 0074 BD46     		mov	sp, r7
 278 0076 80BC     		pop	{r7}
ARM GAS  C:\Users\VICTOR~1\AppData\Local\Temp\ccOdoS4G.s 			page 11


 279 0078 7047     		bx	lr
 280              		.cfi_endproc
 281              	.LFE3:
 282              		.size	USBFS_EP_4_ISR, .-USBFS_EP_4_ISR
 283 007a 00BF     		.section	.text.USBFS_EP_5_ISR,"ax",%progbits
 284              		.align	2
 285              		.global	USBFS_EP_5_ISR
 286              		.thumb
 287              		.thumb_func
 288              		.type	USBFS_EP_5_ISR, %function
 289              	USBFS_EP_5_ISR:
 290              	.LFB4:
 293:.\Generated_Source\PSoC5/USBFS_episr.c **** 
 294:.\Generated_Source\PSoC5/USBFS_episr.c **** #endif   /*  USBFS_EP4_ISR_REMOVE */
 295:.\Generated_Source\PSoC5/USBFS_episr.c **** 
 296:.\Generated_Source\PSoC5/USBFS_episr.c **** 
 297:.\Generated_Source\PSoC5/USBFS_episr.c **** #if(USBFS_EP5_ISR_REMOVE == 0u)
 298:.\Generated_Source\PSoC5/USBFS_episr.c **** 
 299:.\Generated_Source\PSoC5/USBFS_episr.c ****     /*******************************************************************************
 300:.\Generated_Source\PSoC5/USBFS_episr.c ****     * Function Name: USBFS_EP_5_ISR
 301:.\Generated_Source\PSoC5/USBFS_episr.c ****     ********************************************************************************
 302:.\Generated_Source\PSoC5/USBFS_episr.c ****     *
 303:.\Generated_Source\PSoC5/USBFS_episr.c ****     * Summary:
 304:.\Generated_Source\PSoC5/USBFS_episr.c ****     *  Endpoint 5 Interrupt Service Routine
 305:.\Generated_Source\PSoC5/USBFS_episr.c ****     *
 306:.\Generated_Source\PSoC5/USBFS_episr.c ****     * Parameters:
 307:.\Generated_Source\PSoC5/USBFS_episr.c ****     *  None.
 308:.\Generated_Source\PSoC5/USBFS_episr.c ****     *
 309:.\Generated_Source\PSoC5/USBFS_episr.c ****     * Return:
 310:.\Generated_Source\PSoC5/USBFS_episr.c ****     *  None.
 311:.\Generated_Source\PSoC5/USBFS_episr.c ****     *
 312:.\Generated_Source\PSoC5/USBFS_episr.c ****     *******************************************************************************/
 313:.\Generated_Source\PSoC5/USBFS_episr.c ****     CY_ISR(USBFS_EP_5_ISR)
 314:.\Generated_Source\PSoC5/USBFS_episr.c ****     {
 291              		.loc 1 314 0
 292              		.cfi_startproc
 293              		@ args = 0, pretend = 0, frame = 0
 294              		@ frame_needed = 1, uses_anonymous_args = 0
 295              		@ link register save eliminated.
 296 0000 80B4     		push	{r7}
 297              	.LCFI8:
 298              		.cfi_def_cfa_offset 4
 299              		.cfi_offset 7, -4
 300 0002 00AF     		add	r7, sp, #0
 301              	.LCFI9:
 302              		.cfi_def_cfa_register 7
 315:.\Generated_Source\PSoC5/USBFS_episr.c ****         #if (defined(USBFS_ENABLE_MIDI_STREAMING) && !defined(USBFS_MAIN_SERVICE_MIDI_OUT) && \
 316:.\Generated_Source\PSoC5/USBFS_episr.c ****                      USBFS_ISR_SERVICE_MIDI_OUT && CY_PSOC3)
 317:.\Generated_Source\PSoC5/USBFS_episr.c ****             uint8 int_en;
 318:.\Generated_Source\PSoC5/USBFS_episr.c ****         #endif /* CY_PSOC3 & USBFS_ISR_SERVICE_MIDI_OUT  */
 319:.\Generated_Source\PSoC5/USBFS_episr.c **** 
 320:.\Generated_Source\PSoC5/USBFS_episr.c ****         /* `#START EP5_USER_CODE` Place your code here */
 321:.\Generated_Source\PSoC5/USBFS_episr.c **** 
 322:.\Generated_Source\PSoC5/USBFS_episr.c ****         /* `#END` */
 323:.\Generated_Source\PSoC5/USBFS_episr.c **** 
 324:.\Generated_Source\PSoC5/USBFS_episr.c ****         #if (defined(USBFS_ENABLE_MIDI_STREAMING) && !defined(USBFS_MAIN_SERVICE_MIDI_OUT) && \
 325:.\Generated_Source\PSoC5/USBFS_episr.c ****                      USBFS_ISR_SERVICE_MIDI_OUT && CY_PSOC3)
ARM GAS  C:\Users\VICTOR~1\AppData\Local\Temp\ccOdoS4G.s 			page 12


 326:.\Generated_Source\PSoC5/USBFS_episr.c ****             int_en = EA;
 327:.\Generated_Source\PSoC5/USBFS_episr.c ****             CyGlobalIntEnable;  /* Make sure nested interrupt is enabled */
 328:.\Generated_Source\PSoC5/USBFS_episr.c ****         #endif /* CY_PSOC3 & USBFS_ISR_SERVICE_MIDI_OUT  */
 329:.\Generated_Source\PSoC5/USBFS_episr.c **** 
 330:.\Generated_Source\PSoC5/USBFS_episr.c ****         CY_GET_REG8(USBFS_SIE_EP5_CR0_PTR); /* Must read the mode reg */
 303              		.loc 1 330 0
 304 0004 46F24E03 		movw	r3, #24654
 305 0008 C4F20003 		movt	r3, 16384
 306 000c 1B78     		ldrb	r3, [r3, #0]
 331:.\Generated_Source\PSoC5/USBFS_episr.c ****         /* Do not toggle ISOC endpoint */
 332:.\Generated_Source\PSoC5/USBFS_episr.c ****         if((USBFS_EP[USBFS_EP5].attrib & USBFS_EP_TYPE_MASK) !=
 307              		.loc 1 332 0
 308 000e 40F20003 		movw	r3, #:lower16:USBFS_EP
 309 0012 C0F20003 		movt	r3, #:upper16:USBFS_EP
 310 0016 93F83C30 		ldrb	r3, [r3, #60]
 311 001a DBB2     		uxtb	r3, r3
 312 001c 03F00303 		and	r3, r3, #3
 313 0020 012B     		cmp	r3, #1
 314 0022 11D0     		beq	.L10
 333:.\Generated_Source\PSoC5/USBFS_episr.c ****                                                                                     USBFS_EP_TYPE_I
 334:.\Generated_Source\PSoC5/USBFS_episr.c ****         {
 335:.\Generated_Source\PSoC5/USBFS_episr.c ****             USBFS_EP[USBFS_EP5].epToggle ^= USBFS_EPX_CNT_DATA_TOGGLE;
 315              		.loc 1 335 0
 316 0024 40F20003 		movw	r3, #:lower16:USBFS_EP
 317 0028 C0F20003 		movt	r3, #:upper16:USBFS_EP
 318 002c 93F83F30 		ldrb	r3, [r3, #63]
 319 0030 DBB2     		uxtb	r3, r3
 320 0032 83F07F03 		eor	r3, r3, #127
 321 0036 6FEA0303 		mvn	r3, r3
 322 003a DAB2     		uxtb	r2, r3
 323 003c 40F20003 		movw	r3, #:lower16:USBFS_EP
 324 0040 C0F20003 		movt	r3, #:upper16:USBFS_EP
 325 0044 83F83F20 		strb	r2, [r3, #63]
 326              	.L10:
 336:.\Generated_Source\PSoC5/USBFS_episr.c ****         }
 337:.\Generated_Source\PSoC5/USBFS_episr.c ****         USBFS_EP[USBFS_EP5].apiEpState = USBFS_EVENT_PENDING;
 327              		.loc 1 337 0
 328 0048 40F20003 		movw	r3, #:lower16:USBFS_EP
 329 004c C0F20003 		movt	r3, #:upper16:USBFS_EP
 330 0050 4FF00102 		mov	r2, #1
 331 0054 83F83D20 		strb	r2, [r3, #61]
 338:.\Generated_Source\PSoC5/USBFS_episr.c ****         CY_SET_REG8(USBFS_SIE_EP_INT_SR_PTR, CY_GET_REG8(USBFS_SIE_EP_INT_SR_PTR)
 332              		.loc 1 338 0
 333 0058 46F20B03 		movw	r3, #24587
 334 005c C4F20003 		movt	r3, 16384
 335 0060 46F20B02 		movw	r2, #24587
 336 0064 C4F20002 		movt	r2, 16384
 337 0068 1278     		ldrb	r2, [r2, #0]
 338 006a D2B2     		uxtb	r2, r2
 339 006c 22F01002 		bic	r2, r2, #16
 340 0070 D2B2     		uxtb	r2, r2
 341 0072 1A70     		strb	r2, [r3, #0]
 339:.\Generated_Source\PSoC5/USBFS_episr.c ****                                                                         & (uint8)~USBFS_SIE_EP_INT_
 340:.\Generated_Source\PSoC5/USBFS_episr.c **** 
 341:.\Generated_Source\PSoC5/USBFS_episr.c ****         #if (defined(USBFS_ENABLE_MIDI_STREAMING) && !defined(USBFS_MAIN_SERVICE_MIDI_OUT) && \
 342:.\Generated_Source\PSoC5/USBFS_episr.c ****                      USBFS_ISR_SERVICE_MIDI_OUT)
 343:.\Generated_Source\PSoC5/USBFS_episr.c ****             if(USBFS_midi_out_ep == USBFS_EP5)
ARM GAS  C:\Users\VICTOR~1\AppData\Local\Temp\ccOdoS4G.s 			page 13


 344:.\Generated_Source\PSoC5/USBFS_episr.c ****             {
 345:.\Generated_Source\PSoC5/USBFS_episr.c ****                 USBFS_MIDI_OUT_EP_Service();
 346:.\Generated_Source\PSoC5/USBFS_episr.c ****             }
 347:.\Generated_Source\PSoC5/USBFS_episr.c ****         #endif /*  USBFS_ISR_SERVICE_MIDI_OUT */
 348:.\Generated_Source\PSoC5/USBFS_episr.c **** 
 349:.\Generated_Source\PSoC5/USBFS_episr.c ****         /* `#START EP5_END_USER_CODE` Place your code here */
 350:.\Generated_Source\PSoC5/USBFS_episr.c **** 
 351:.\Generated_Source\PSoC5/USBFS_episr.c ****         /* `#END` */
 352:.\Generated_Source\PSoC5/USBFS_episr.c **** 
 353:.\Generated_Source\PSoC5/USBFS_episr.c ****         #if (defined(USBFS_ENABLE_MIDI_STREAMING) && !defined(USBFS_MAIN_SERVICE_MIDI_OUT) && \
 354:.\Generated_Source\PSoC5/USBFS_episr.c ****                      USBFS_ISR_SERVICE_MIDI_OUT && CY_PSOC3)
 355:.\Generated_Source\PSoC5/USBFS_episr.c ****             EA = int_en;
 356:.\Generated_Source\PSoC5/USBFS_episr.c ****         #endif /* CY_PSOC3 & USBFS_ISR_SERVICE_MIDI_OUT  */
 357:.\Generated_Source\PSoC5/USBFS_episr.c ****     }
 342              		.loc 1 357 0
 343 0074 BD46     		mov	sp, r7
 344 0076 80BC     		pop	{r7}
 345 0078 7047     		bx	lr
 346              		.cfi_endproc
 347              	.LFE4:
 348              		.size	USBFS_EP_5_ISR, .-USBFS_EP_5_ISR
 349 007a 00BF     		.section	.text.USBFS_EP_6_ISR,"ax",%progbits
 350              		.align	2
 351              		.global	USBFS_EP_6_ISR
 352              		.thumb
 353              		.thumb_func
 354              		.type	USBFS_EP_6_ISR, %function
 355              	USBFS_EP_6_ISR:
 356              	.LFB5:
 358:.\Generated_Source\PSoC5/USBFS_episr.c **** #endif   /*  USBFS_EP5_ISR_REMOVE */
 359:.\Generated_Source\PSoC5/USBFS_episr.c **** 
 360:.\Generated_Source\PSoC5/USBFS_episr.c **** 
 361:.\Generated_Source\PSoC5/USBFS_episr.c **** #if(USBFS_EP6_ISR_REMOVE == 0u)
 362:.\Generated_Source\PSoC5/USBFS_episr.c **** 
 363:.\Generated_Source\PSoC5/USBFS_episr.c ****     /*******************************************************************************
 364:.\Generated_Source\PSoC5/USBFS_episr.c ****     * Function Name: USBFS_EP_6_ISR
 365:.\Generated_Source\PSoC5/USBFS_episr.c ****     ********************************************************************************
 366:.\Generated_Source\PSoC5/USBFS_episr.c ****     *
 367:.\Generated_Source\PSoC5/USBFS_episr.c ****     * Summary:
 368:.\Generated_Source\PSoC5/USBFS_episr.c ****     *  Endpoint 6 Interrupt Service Routine
 369:.\Generated_Source\PSoC5/USBFS_episr.c ****     *
 370:.\Generated_Source\PSoC5/USBFS_episr.c ****     * Parameters:
 371:.\Generated_Source\PSoC5/USBFS_episr.c ****     *  None.
 372:.\Generated_Source\PSoC5/USBFS_episr.c ****     *
 373:.\Generated_Source\PSoC5/USBFS_episr.c ****     * Return:
 374:.\Generated_Source\PSoC5/USBFS_episr.c ****     *  None.
 375:.\Generated_Source\PSoC5/USBFS_episr.c ****     *
 376:.\Generated_Source\PSoC5/USBFS_episr.c ****     *******************************************************************************/
 377:.\Generated_Source\PSoC5/USBFS_episr.c ****     CY_ISR(USBFS_EP_6_ISR)
 378:.\Generated_Source\PSoC5/USBFS_episr.c ****     {
 357              		.loc 1 378 0
 358              		.cfi_startproc
 359              		@ args = 0, pretend = 0, frame = 0
 360              		@ frame_needed = 1, uses_anonymous_args = 0
 361              		@ link register save eliminated.
 362 0000 80B4     		push	{r7}
 363              	.LCFI10:
ARM GAS  C:\Users\VICTOR~1\AppData\Local\Temp\ccOdoS4G.s 			page 14


 364              		.cfi_def_cfa_offset 4
 365              		.cfi_offset 7, -4
 366 0002 00AF     		add	r7, sp, #0
 367              	.LCFI11:
 368              		.cfi_def_cfa_register 7
 379:.\Generated_Source\PSoC5/USBFS_episr.c ****         #if (defined(USBFS_ENABLE_MIDI_STREAMING) && !defined(USBFS_MAIN_SERVICE_MIDI_OUT) && \
 380:.\Generated_Source\PSoC5/USBFS_episr.c ****                      USBFS_ISR_SERVICE_MIDI_OUT && CY_PSOC3)
 381:.\Generated_Source\PSoC5/USBFS_episr.c ****             uint8 int_en;
 382:.\Generated_Source\PSoC5/USBFS_episr.c ****         #endif /* CY_PSOC3 & USBFS_ISR_SERVICE_MIDI_OUT  */
 383:.\Generated_Source\PSoC5/USBFS_episr.c **** 
 384:.\Generated_Source\PSoC5/USBFS_episr.c ****         /* `#START EP6_USER_CODE` Place your code here */
 385:.\Generated_Source\PSoC5/USBFS_episr.c **** 
 386:.\Generated_Source\PSoC5/USBFS_episr.c ****         /* `#END` */
 387:.\Generated_Source\PSoC5/USBFS_episr.c **** 
 388:.\Generated_Source\PSoC5/USBFS_episr.c ****         #if (defined(USBFS_ENABLE_MIDI_STREAMING) && !defined(USBFS_MAIN_SERVICE_MIDI_OUT) && \
 389:.\Generated_Source\PSoC5/USBFS_episr.c ****                      USBFS_ISR_SERVICE_MIDI_OUT && CY_PSOC3)
 390:.\Generated_Source\PSoC5/USBFS_episr.c ****             int_en = EA;
 391:.\Generated_Source\PSoC5/USBFS_episr.c ****             CyGlobalIntEnable;  /* Make sure nested interrupt is enabled */
 392:.\Generated_Source\PSoC5/USBFS_episr.c ****         #endif /* CY_PSOC3 & USBFS_ISR_SERVICE_MIDI_OUT  */
 393:.\Generated_Source\PSoC5/USBFS_episr.c **** 
 394:.\Generated_Source\PSoC5/USBFS_episr.c ****         CY_GET_REG8(USBFS_SIE_EP6_CR0_PTR); /* Must read the mode reg */
 369              		.loc 1 394 0
 370 0004 46F25E03 		movw	r3, #24670
 371 0008 C4F20003 		movt	r3, 16384
 372 000c 1B78     		ldrb	r3, [r3, #0]
 395:.\Generated_Source\PSoC5/USBFS_episr.c ****         /* Do not toggle ISOC endpoint */
 396:.\Generated_Source\PSoC5/USBFS_episr.c ****         if((USBFS_EP[USBFS_EP6].attrib & USBFS_EP_TYPE_MASK) !=
 373              		.loc 1 396 0
 374 000e 40F20003 		movw	r3, #:lower16:USBFS_EP
 375 0012 C0F20003 		movt	r3, #:upper16:USBFS_EP
 376 0016 93F84830 		ldrb	r3, [r3, #72]
 377 001a DBB2     		uxtb	r3, r3
 378 001c 03F00303 		and	r3, r3, #3
 379 0020 012B     		cmp	r3, #1
 380 0022 11D0     		beq	.L12
 397:.\Generated_Source\PSoC5/USBFS_episr.c ****                                                                                     USBFS_EP_TYPE_I
 398:.\Generated_Source\PSoC5/USBFS_episr.c ****         {
 399:.\Generated_Source\PSoC5/USBFS_episr.c ****             USBFS_EP[USBFS_EP6].epToggle ^= USBFS_EPX_CNT_DATA_TOGGLE;
 381              		.loc 1 399 0
 382 0024 40F20003 		movw	r3, #:lower16:USBFS_EP
 383 0028 C0F20003 		movt	r3, #:upper16:USBFS_EP
 384 002c 93F84B30 		ldrb	r3, [r3, #75]
 385 0030 DBB2     		uxtb	r3, r3
 386 0032 83F07F03 		eor	r3, r3, #127
 387 0036 6FEA0303 		mvn	r3, r3
 388 003a DAB2     		uxtb	r2, r3
 389 003c 40F20003 		movw	r3, #:lower16:USBFS_EP
 390 0040 C0F20003 		movt	r3, #:upper16:USBFS_EP
 391 0044 83F84B20 		strb	r2, [r3, #75]
 392              	.L12:
 400:.\Generated_Source\PSoC5/USBFS_episr.c ****         }
 401:.\Generated_Source\PSoC5/USBFS_episr.c ****         USBFS_EP[USBFS_EP6].apiEpState = USBFS_EVENT_PENDING;
 393              		.loc 1 401 0
 394 0048 40F20003 		movw	r3, #:lower16:USBFS_EP
 395 004c C0F20003 		movt	r3, #:upper16:USBFS_EP
 396 0050 4FF00102 		mov	r2, #1
 397 0054 83F84920 		strb	r2, [r3, #73]
ARM GAS  C:\Users\VICTOR~1\AppData\Local\Temp\ccOdoS4G.s 			page 15


 402:.\Generated_Source\PSoC5/USBFS_episr.c ****         CY_SET_REG8(USBFS_SIE_EP_INT_SR_PTR, CY_GET_REG8(USBFS_SIE_EP_INT_SR_PTR)
 398              		.loc 1 402 0
 399 0058 46F20B03 		movw	r3, #24587
 400 005c C4F20003 		movt	r3, 16384
 401 0060 46F20B02 		movw	r2, #24587
 402 0064 C4F20002 		movt	r2, 16384
 403 0068 1278     		ldrb	r2, [r2, #0]
 404 006a D2B2     		uxtb	r2, r2
 405 006c 22F02002 		bic	r2, r2, #32
 406 0070 D2B2     		uxtb	r2, r2
 407 0072 1A70     		strb	r2, [r3, #0]
 403:.\Generated_Source\PSoC5/USBFS_episr.c ****                                                                         & (uint8)~USBFS_SIE_EP_INT_
 404:.\Generated_Source\PSoC5/USBFS_episr.c **** 
 405:.\Generated_Source\PSoC5/USBFS_episr.c ****         #if (defined(USBFS_ENABLE_MIDI_STREAMING) && !defined(USBFS_MAIN_SERVICE_MIDI_OUT) && \
 406:.\Generated_Source\PSoC5/USBFS_episr.c ****                      USBFS_ISR_SERVICE_MIDI_OUT)
 407:.\Generated_Source\PSoC5/USBFS_episr.c ****             if(USBFS_midi_out_ep == USBFS_EP6)
 408:.\Generated_Source\PSoC5/USBFS_episr.c ****             {
 409:.\Generated_Source\PSoC5/USBFS_episr.c ****                 USBFS_MIDI_OUT_EP_Service();
 410:.\Generated_Source\PSoC5/USBFS_episr.c ****             }
 411:.\Generated_Source\PSoC5/USBFS_episr.c ****         #endif /*  USBFS_ISR_SERVICE_MIDI_OUT  */
 412:.\Generated_Source\PSoC5/USBFS_episr.c **** 
 413:.\Generated_Source\PSoC5/USBFS_episr.c ****         /* `#START EP6_END_USER_CODE` Place your code here */
 414:.\Generated_Source\PSoC5/USBFS_episr.c **** 
 415:.\Generated_Source\PSoC5/USBFS_episr.c ****         /* `#END` */
 416:.\Generated_Source\PSoC5/USBFS_episr.c **** 
 417:.\Generated_Source\PSoC5/USBFS_episr.c ****         #if (defined(USBFS_ENABLE_MIDI_STREAMING) && !defined(USBFS_MAIN_SERVICE_MIDI_OUT) && \
 418:.\Generated_Source\PSoC5/USBFS_episr.c ****                      USBFS_ISR_SERVICE_MIDI_OUT && CY_PSOC3)
 419:.\Generated_Source\PSoC5/USBFS_episr.c ****             EA = int_en;
 420:.\Generated_Source\PSoC5/USBFS_episr.c ****         #endif /* CY_PSOC3 & USBFS_ISR_SERVICE_MIDI_OUT  */
 421:.\Generated_Source\PSoC5/USBFS_episr.c ****     }
 408              		.loc 1 421 0
 409 0074 BD46     		mov	sp, r7
 410 0076 80BC     		pop	{r7}
 411 0078 7047     		bx	lr
 412              		.cfi_endproc
 413              	.LFE5:
 414              		.size	USBFS_EP_6_ISR, .-USBFS_EP_6_ISR
 415 007a 00BF     		.section	.text.USBFS_SOF_ISR,"ax",%progbits
 416              		.align	2
 417              		.global	USBFS_SOF_ISR
 418              		.thumb
 419              		.thumb_func
 420              		.type	USBFS_SOF_ISR, %function
 421              	USBFS_SOF_ISR:
 422              	.LFB6:
 422:.\Generated_Source\PSoC5/USBFS_episr.c **** 
 423:.\Generated_Source\PSoC5/USBFS_episr.c **** #endif   /*  USBFS_EP6_ISR_REMOVE */
 424:.\Generated_Source\PSoC5/USBFS_episr.c **** 
 425:.\Generated_Source\PSoC5/USBFS_episr.c **** 
 426:.\Generated_Source\PSoC5/USBFS_episr.c **** #if(USBFS_EP7_ISR_REMOVE == 0u)
 427:.\Generated_Source\PSoC5/USBFS_episr.c **** 
 428:.\Generated_Source\PSoC5/USBFS_episr.c ****     /*******************************************************************************
 429:.\Generated_Source\PSoC5/USBFS_episr.c ****     * Function Name: USBFS_EP_7_ISR
 430:.\Generated_Source\PSoC5/USBFS_episr.c ****     ********************************************************************************
 431:.\Generated_Source\PSoC5/USBFS_episr.c ****     *
 432:.\Generated_Source\PSoC5/USBFS_episr.c ****     * Summary:
 433:.\Generated_Source\PSoC5/USBFS_episr.c ****     *  Endpoint 7 Interrupt Service Routine
ARM GAS  C:\Users\VICTOR~1\AppData\Local\Temp\ccOdoS4G.s 			page 16


 434:.\Generated_Source\PSoC5/USBFS_episr.c ****     *
 435:.\Generated_Source\PSoC5/USBFS_episr.c ****     * Parameters:
 436:.\Generated_Source\PSoC5/USBFS_episr.c ****     *  None.
 437:.\Generated_Source\PSoC5/USBFS_episr.c ****     *
 438:.\Generated_Source\PSoC5/USBFS_episr.c ****     * Return:
 439:.\Generated_Source\PSoC5/USBFS_episr.c ****     *  None.
 440:.\Generated_Source\PSoC5/USBFS_episr.c ****     *
 441:.\Generated_Source\PSoC5/USBFS_episr.c ****     *******************************************************************************/
 442:.\Generated_Source\PSoC5/USBFS_episr.c ****     CY_ISR(USBFS_EP_7_ISR)
 443:.\Generated_Source\PSoC5/USBFS_episr.c ****     {
 444:.\Generated_Source\PSoC5/USBFS_episr.c ****         #if (defined(USBFS_ENABLE_MIDI_STREAMING) && !defined(USBFS_MAIN_SERVICE_MIDI_OUT) && \
 445:.\Generated_Source\PSoC5/USBFS_episr.c ****                      USBFS_ISR_SERVICE_MIDI_OUT && CY_PSOC3)
 446:.\Generated_Source\PSoC5/USBFS_episr.c ****             uint8 int_en;
 447:.\Generated_Source\PSoC5/USBFS_episr.c ****         #endif /* CY_PSOC3 & USBFS_ISR_SERVICE_MIDI_OUT  */
 448:.\Generated_Source\PSoC5/USBFS_episr.c **** 
 449:.\Generated_Source\PSoC5/USBFS_episr.c ****         /* `#START EP7_USER_CODE` Place your code here */
 450:.\Generated_Source\PSoC5/USBFS_episr.c **** 
 451:.\Generated_Source\PSoC5/USBFS_episr.c ****         /* `#END` */
 452:.\Generated_Source\PSoC5/USBFS_episr.c **** 
 453:.\Generated_Source\PSoC5/USBFS_episr.c ****         #if (defined(USBFS_ENABLE_MIDI_STREAMING) && !defined(USBFS_MAIN_SERVICE_MIDI_OUT) && \
 454:.\Generated_Source\PSoC5/USBFS_episr.c ****                      USBFS_ISR_SERVICE_MIDI_OUT && CY_PSOC3)
 455:.\Generated_Source\PSoC5/USBFS_episr.c ****             int_en = EA;
 456:.\Generated_Source\PSoC5/USBFS_episr.c ****             CyGlobalIntEnable;  /* Make sure nested interrupt is enabled */
 457:.\Generated_Source\PSoC5/USBFS_episr.c ****         #endif /* CY_PSOC3 & USBFS_ISR_SERVICE_MIDI_OUT  */
 458:.\Generated_Source\PSoC5/USBFS_episr.c **** 
 459:.\Generated_Source\PSoC5/USBFS_episr.c ****         CY_GET_REG8(USBFS_SIE_EP7_CR0_PTR); /* Must read the mode reg */
 460:.\Generated_Source\PSoC5/USBFS_episr.c ****         /* Do not toggle ISOC endpoint */
 461:.\Generated_Source\PSoC5/USBFS_episr.c ****         if((USBFS_EP[USBFS_EP7].attrib & USBFS_EP_TYPE_MASK) !=
 462:.\Generated_Source\PSoC5/USBFS_episr.c ****                                                                                     USBFS_EP_TYPE_I
 463:.\Generated_Source\PSoC5/USBFS_episr.c ****         {
 464:.\Generated_Source\PSoC5/USBFS_episr.c ****             USBFS_EP[USBFS_EP7].epToggle ^= USBFS_EPX_CNT_DATA_TOGGLE;
 465:.\Generated_Source\PSoC5/USBFS_episr.c ****         }
 466:.\Generated_Source\PSoC5/USBFS_episr.c ****         USBFS_EP[USBFS_EP7].apiEpState = USBFS_EVENT_PENDING;
 467:.\Generated_Source\PSoC5/USBFS_episr.c ****         CY_SET_REG8(USBFS_SIE_EP_INT_SR_PTR, CY_GET_REG8(USBFS_SIE_EP_INT_SR_PTR)
 468:.\Generated_Source\PSoC5/USBFS_episr.c ****                                                                         & (uint8)~USBFS_SIE_EP_INT_
 469:.\Generated_Source\PSoC5/USBFS_episr.c **** 
 470:.\Generated_Source\PSoC5/USBFS_episr.c ****         #if (defined(USBFS_ENABLE_MIDI_STREAMING) && !defined(USBFS_MAIN_SERVICE_MIDI_OUT) && \
 471:.\Generated_Source\PSoC5/USBFS_episr.c ****                      USBFS_ISR_SERVICE_MIDI_OUT)
 472:.\Generated_Source\PSoC5/USBFS_episr.c ****             if(USBFS_midi_out_ep == USBFS_EP7)
 473:.\Generated_Source\PSoC5/USBFS_episr.c ****             {
 474:.\Generated_Source\PSoC5/USBFS_episr.c ****                 USBFS_MIDI_OUT_EP_Service();
 475:.\Generated_Source\PSoC5/USBFS_episr.c ****             }
 476:.\Generated_Source\PSoC5/USBFS_episr.c ****         #endif /*  USBFS_ISR_SERVICE_MIDI_OUT  */
 477:.\Generated_Source\PSoC5/USBFS_episr.c **** 
 478:.\Generated_Source\PSoC5/USBFS_episr.c ****         /* `#START EP7_END_USER_CODE` Place your code here */
 479:.\Generated_Source\PSoC5/USBFS_episr.c **** 
 480:.\Generated_Source\PSoC5/USBFS_episr.c ****         /* `#END` */
 481:.\Generated_Source\PSoC5/USBFS_episr.c **** 
 482:.\Generated_Source\PSoC5/USBFS_episr.c ****         #if (defined(USBFS_ENABLE_MIDI_STREAMING) && !defined(USBFS_MAIN_SERVICE_MIDI_OUT) && \
 483:.\Generated_Source\PSoC5/USBFS_episr.c ****                      USBFS_ISR_SERVICE_MIDI_OUT && CY_PSOC3)
 484:.\Generated_Source\PSoC5/USBFS_episr.c ****             EA = int_en;
 485:.\Generated_Source\PSoC5/USBFS_episr.c ****         #endif /* CY_PSOC3 & USBFS_ISR_SERVICE_MIDI_OUT  */
 486:.\Generated_Source\PSoC5/USBFS_episr.c ****     }
 487:.\Generated_Source\PSoC5/USBFS_episr.c **** 
 488:.\Generated_Source\PSoC5/USBFS_episr.c **** #endif   /*  USBFS_EP7_ISR_REMOVE */
 489:.\Generated_Source\PSoC5/USBFS_episr.c **** 
 490:.\Generated_Source\PSoC5/USBFS_episr.c **** 
ARM GAS  C:\Users\VICTOR~1\AppData\Local\Temp\ccOdoS4G.s 			page 17


 491:.\Generated_Source\PSoC5/USBFS_episr.c **** #if(USBFS_EP8_ISR_REMOVE == 0u)
 492:.\Generated_Source\PSoC5/USBFS_episr.c **** 
 493:.\Generated_Source\PSoC5/USBFS_episr.c ****     /*******************************************************************************
 494:.\Generated_Source\PSoC5/USBFS_episr.c ****     * Function Name: USBFS_EP_8_ISR
 495:.\Generated_Source\PSoC5/USBFS_episr.c ****     ********************************************************************************
 496:.\Generated_Source\PSoC5/USBFS_episr.c ****     *
 497:.\Generated_Source\PSoC5/USBFS_episr.c ****     * Summary:
 498:.\Generated_Source\PSoC5/USBFS_episr.c ****     *  Endpoint 8 Interrupt Service Routine
 499:.\Generated_Source\PSoC5/USBFS_episr.c ****     *
 500:.\Generated_Source\PSoC5/USBFS_episr.c ****     * Parameters:
 501:.\Generated_Source\PSoC5/USBFS_episr.c ****     *  None.
 502:.\Generated_Source\PSoC5/USBFS_episr.c ****     *
 503:.\Generated_Source\PSoC5/USBFS_episr.c ****     * Return:
 504:.\Generated_Source\PSoC5/USBFS_episr.c ****     *  None.
 505:.\Generated_Source\PSoC5/USBFS_episr.c ****     *
 506:.\Generated_Source\PSoC5/USBFS_episr.c ****     *******************************************************************************/
 507:.\Generated_Source\PSoC5/USBFS_episr.c ****     CY_ISR(USBFS_EP_8_ISR)
 508:.\Generated_Source\PSoC5/USBFS_episr.c ****     {
 509:.\Generated_Source\PSoC5/USBFS_episr.c ****         #if (defined(USBFS_ENABLE_MIDI_STREAMING) && !defined(USBFS_MAIN_SERVICE_MIDI_OUT) && \
 510:.\Generated_Source\PSoC5/USBFS_episr.c ****                      USBFS_ISR_SERVICE_MIDI_OUT && CY_PSOC3)
 511:.\Generated_Source\PSoC5/USBFS_episr.c ****             uint8 int_en;
 512:.\Generated_Source\PSoC5/USBFS_episr.c ****         #endif /* CY_PSOC3 & USBFS_ISR_SERVICE_MIDI_OUT  */
 513:.\Generated_Source\PSoC5/USBFS_episr.c **** 
 514:.\Generated_Source\PSoC5/USBFS_episr.c ****         /* `#START EP8_USER_CODE` Place your code here */
 515:.\Generated_Source\PSoC5/USBFS_episr.c **** 
 516:.\Generated_Source\PSoC5/USBFS_episr.c ****         /* `#END` */
 517:.\Generated_Source\PSoC5/USBFS_episr.c **** 
 518:.\Generated_Source\PSoC5/USBFS_episr.c ****         #if (defined(USBFS_ENABLE_MIDI_STREAMING) && !defined(USBFS_MAIN_SERVICE_MIDI_OUT) && \
 519:.\Generated_Source\PSoC5/USBFS_episr.c ****                      USBFS_ISR_SERVICE_MIDI_OUT && CY_PSOC3)
 520:.\Generated_Source\PSoC5/USBFS_episr.c ****             int_en = EA;
 521:.\Generated_Source\PSoC5/USBFS_episr.c ****             CyGlobalIntEnable;  /* Make sure nested interrupt is enabled */
 522:.\Generated_Source\PSoC5/USBFS_episr.c ****         #endif /* CY_PSOC3 & USBFS_ISR_SERVICE_MIDI_OUT  */
 523:.\Generated_Source\PSoC5/USBFS_episr.c **** 
 524:.\Generated_Source\PSoC5/USBFS_episr.c ****         CY_GET_REG8(USBFS_SIE_EP8_CR0_PTR); /* Must read the mode reg */
 525:.\Generated_Source\PSoC5/USBFS_episr.c ****         /* Do not toggle ISOC endpoint */
 526:.\Generated_Source\PSoC5/USBFS_episr.c ****         if((USBFS_EP[USBFS_EP8].attrib & USBFS_EP_TYPE_MASK) !=
 527:.\Generated_Source\PSoC5/USBFS_episr.c ****                                                                                     USBFS_EP_TYPE_I
 528:.\Generated_Source\PSoC5/USBFS_episr.c ****         {
 529:.\Generated_Source\PSoC5/USBFS_episr.c ****             USBFS_EP[USBFS_EP8].epToggle ^= USBFS_EPX_CNT_DATA_TOGGLE;
 530:.\Generated_Source\PSoC5/USBFS_episr.c ****         }
 531:.\Generated_Source\PSoC5/USBFS_episr.c ****         USBFS_EP[USBFS_EP8].apiEpState = USBFS_EVENT_PENDING;
 532:.\Generated_Source\PSoC5/USBFS_episr.c ****         CY_SET_REG8(USBFS_SIE_EP_INT_SR_PTR, CY_GET_REG8(USBFS_SIE_EP_INT_SR_PTR)
 533:.\Generated_Source\PSoC5/USBFS_episr.c ****                                                                         & (uint8)~USBFS_SIE_EP_INT_
 534:.\Generated_Source\PSoC5/USBFS_episr.c **** 
 535:.\Generated_Source\PSoC5/USBFS_episr.c ****         #if (defined(USBFS_ENABLE_MIDI_STREAMING) && !defined(USBFS_MAIN_SERVICE_MIDI_OUT) && \
 536:.\Generated_Source\PSoC5/USBFS_episr.c ****                      USBFS_ISR_SERVICE_MIDI_OUT)
 537:.\Generated_Source\PSoC5/USBFS_episr.c ****             if(USBFS_midi_out_ep == USBFS_EP8)
 538:.\Generated_Source\PSoC5/USBFS_episr.c ****             {
 539:.\Generated_Source\PSoC5/USBFS_episr.c ****                 USBFS_MIDI_OUT_EP_Service();
 540:.\Generated_Source\PSoC5/USBFS_episr.c ****             }
 541:.\Generated_Source\PSoC5/USBFS_episr.c ****         #endif /*  USBFS_ISR_SERVICE_MIDI_OUT */
 542:.\Generated_Source\PSoC5/USBFS_episr.c **** 
 543:.\Generated_Source\PSoC5/USBFS_episr.c ****         /* `#START EP8_END_USER_CODE` Place your code here */
 544:.\Generated_Source\PSoC5/USBFS_episr.c **** 
 545:.\Generated_Source\PSoC5/USBFS_episr.c ****         /* `#END` */
 546:.\Generated_Source\PSoC5/USBFS_episr.c **** 
 547:.\Generated_Source\PSoC5/USBFS_episr.c ****         #if (defined(USBFS_ENABLE_MIDI_STREAMING) && !defined(USBFS_MAIN_SERVICE_MIDI_OUT) && \
ARM GAS  C:\Users\VICTOR~1\AppData\Local\Temp\ccOdoS4G.s 			page 18


 548:.\Generated_Source\PSoC5/USBFS_episr.c ****                      USBFS_ISR_SERVICE_MIDI_OUT && CY_PSOC3)
 549:.\Generated_Source\PSoC5/USBFS_episr.c ****             EA = int_en;
 550:.\Generated_Source\PSoC5/USBFS_episr.c ****         #endif /* CY_PSOC3 & USBFS_ISR_SERVICE_MIDI_OUT  */
 551:.\Generated_Source\PSoC5/USBFS_episr.c ****     }
 552:.\Generated_Source\PSoC5/USBFS_episr.c **** 
 553:.\Generated_Source\PSoC5/USBFS_episr.c **** #endif   /*  USBFS_EP8_ISR_REMOVE */
 554:.\Generated_Source\PSoC5/USBFS_episr.c **** 
 555:.\Generated_Source\PSoC5/USBFS_episr.c **** 
 556:.\Generated_Source\PSoC5/USBFS_episr.c **** /*******************************************************************************
 557:.\Generated_Source\PSoC5/USBFS_episr.c **** * Function Name: USBFS_SOF_ISR
 558:.\Generated_Source\PSoC5/USBFS_episr.c **** ********************************************************************************
 559:.\Generated_Source\PSoC5/USBFS_episr.c **** *
 560:.\Generated_Source\PSoC5/USBFS_episr.c **** * Summary:
 561:.\Generated_Source\PSoC5/USBFS_episr.c **** *  Start of Frame Interrupt Service Routine
 562:.\Generated_Source\PSoC5/USBFS_episr.c **** *
 563:.\Generated_Source\PSoC5/USBFS_episr.c **** * Parameters:
 564:.\Generated_Source\PSoC5/USBFS_episr.c **** *  None.
 565:.\Generated_Source\PSoC5/USBFS_episr.c **** *
 566:.\Generated_Source\PSoC5/USBFS_episr.c **** * Return:
 567:.\Generated_Source\PSoC5/USBFS_episr.c **** *  None.
 568:.\Generated_Source\PSoC5/USBFS_episr.c **** *
 569:.\Generated_Source\PSoC5/USBFS_episr.c **** *******************************************************************************/
 570:.\Generated_Source\PSoC5/USBFS_episr.c **** CY_ISR(USBFS_SOF_ISR)
 571:.\Generated_Source\PSoC5/USBFS_episr.c **** {
 423              		.loc 1 571 0
 424              		.cfi_startproc
 425              		@ args = 0, pretend = 0, frame = 0
 426              		@ frame_needed = 1, uses_anonymous_args = 0
 427              		@ link register save eliminated.
 428 0000 80B4     		push	{r7}
 429              	.LCFI12:
 430              		.cfi_def_cfa_offset 4
 431              		.cfi_offset 7, -4
 432 0002 00AF     		add	r7, sp, #0
 433              	.LCFI13:
 434              		.cfi_def_cfa_register 7
 572:.\Generated_Source\PSoC5/USBFS_episr.c ****     /* `#START SOF_USER_CODE` Place your code here */
 573:.\Generated_Source\PSoC5/USBFS_episr.c **** 
 574:.\Generated_Source\PSoC5/USBFS_episr.c ****     /* `#END` */
 575:.\Generated_Source\PSoC5/USBFS_episr.c **** }
 435              		.loc 1 575 0
 436 0004 BD46     		mov	sp, r7
 437 0006 80BC     		pop	{r7}
 438 0008 7047     		bx	lr
 439              		.cfi_endproc
 440              	.LFE6:
 441              		.size	USBFS_SOF_ISR, .-USBFS_SOF_ISR
 442 000a 00BF     		.section	.text.USBFS_BUS_RESET_ISR,"ax",%progbits
 443              		.align	2
 444              		.global	USBFS_BUS_RESET_ISR
 445              		.thumb
 446              		.thumb_func
 447              		.type	USBFS_BUS_RESET_ISR, %function
 448              	USBFS_BUS_RESET_ISR:
 449              	.LFB7:
 576:.\Generated_Source\PSoC5/USBFS_episr.c **** 
 577:.\Generated_Source\PSoC5/USBFS_episr.c **** 
ARM GAS  C:\Users\VICTOR~1\AppData\Local\Temp\ccOdoS4G.s 			page 19


 578:.\Generated_Source\PSoC5/USBFS_episr.c **** /*******************************************************************************
 579:.\Generated_Source\PSoC5/USBFS_episr.c **** * Function Name: USBFS_BUS_RESET_ISR
 580:.\Generated_Source\PSoC5/USBFS_episr.c **** ********************************************************************************
 581:.\Generated_Source\PSoC5/USBFS_episr.c **** *
 582:.\Generated_Source\PSoC5/USBFS_episr.c **** * Summary:
 583:.\Generated_Source\PSoC5/USBFS_episr.c **** *  USB Bus Reset Interrupt Service Routine.  Calls _Start with the same
 584:.\Generated_Source\PSoC5/USBFS_episr.c **** *  parameters as the last USER call to _Start
 585:.\Generated_Source\PSoC5/USBFS_episr.c **** *
 586:.\Generated_Source\PSoC5/USBFS_episr.c **** * Parameters:
 587:.\Generated_Source\PSoC5/USBFS_episr.c **** *  None.
 588:.\Generated_Source\PSoC5/USBFS_episr.c **** *
 589:.\Generated_Source\PSoC5/USBFS_episr.c **** * Return:
 590:.\Generated_Source\PSoC5/USBFS_episr.c **** *  None.
 591:.\Generated_Source\PSoC5/USBFS_episr.c **** *
 592:.\Generated_Source\PSoC5/USBFS_episr.c **** *******************************************************************************/
 593:.\Generated_Source\PSoC5/USBFS_episr.c **** CY_ISR(USBFS_BUS_RESET_ISR)
 594:.\Generated_Source\PSoC5/USBFS_episr.c **** {
 450              		.loc 1 594 0
 451              		.cfi_startproc
 452              		@ args = 0, pretend = 0, frame = 0
 453              		@ frame_needed = 1, uses_anonymous_args = 0
 454 0000 80B5     		push	{r7, lr}
 455              	.LCFI14:
 456              		.cfi_def_cfa_offset 8
 457              		.cfi_offset 7, -8
 458              		.cfi_offset 14, -4
 459 0002 00AF     		add	r7, sp, #0
 460              	.LCFI15:
 461              		.cfi_def_cfa_register 7
 595:.\Generated_Source\PSoC5/USBFS_episr.c ****     /* `#START BUS_RESET_USER_CODE` Place your code here */
 596:.\Generated_Source\PSoC5/USBFS_episr.c **** 
 597:.\Generated_Source\PSoC5/USBFS_episr.c ****     /* `#END` */
 598:.\Generated_Source\PSoC5/USBFS_episr.c **** 
 599:.\Generated_Source\PSoC5/USBFS_episr.c ****     USBFS_ReInitComponent();
 462              		.loc 1 599 0
 463 0004 FFF7FEFF 		bl	USBFS_ReInitComponent
 600:.\Generated_Source\PSoC5/USBFS_episr.c **** }
 464              		.loc 1 600 0
 465 0008 80BD     		pop	{r7, pc}
 466              		.cfi_endproc
 467              	.LFE7:
 468              		.size	USBFS_BUS_RESET_ISR, .-USBFS_BUS_RESET_ISR
 469 000a 00BF     		.text
 470              	.Letext0:
 471              		.file 2 ".\\Generated_Source\\PSoC5\\cytypes.h"
 472              		.file 3 ".\\Generated_Source\\PSoC5\\USBFS.h"
 473              		.file 4 ".\\Generated_Source\\PSoC5\\USBFS_pvt.h"