ARM GAS  C:\Users\VICTOR~1\AppData\Local\Temp\ccl24Kua.s 			page 1


   1              		.syntax unified
   2              		.cpu cortex-m3
   3              		.fpu softvfp
   4              		.eabi_attribute 20, 1
   5              		.eabi_attribute 21, 1
   6              		.eabi_attribute 23, 3
   7              		.eabi_attribute 24, 1
   8              		.eabi_attribute 25, 1
   9              		.eabi_attribute 26, 1
  10              		.eabi_attribute 30, 6
  11              		.eabi_attribute 34, 1
  12              		.eabi_attribute 18, 4
  13              		.thumb
  14              		.file	"USBFS_std.c"
  15              		.text
  16              	.Ltext0:
  17              		.cfi_sections	.debug_frame
  18              		.section	.text.USBFS_HandleStandardRqst,"ax",%progbits
  19              		.align	2
  20              		.global	USBFS_HandleStandardRqst
  21              		.thumb
  22              		.thumb_func
  23              		.type	USBFS_HandleStandardRqst, %function
  24              	USBFS_HandleStandardRqst:
  25              	.LFB0:
  26              		.file 1 ".\\Generated_Source\\PSoC5\\USBFS_std.c"
   1:.\Generated_Source\PSoC5/USBFS_std.c **** /*******************************************************************************
   2:.\Generated_Source\PSoC5/USBFS_std.c **** * File Name: USBFS_std.c
   3:.\Generated_Source\PSoC5/USBFS_std.c **** * Version 2.70
   4:.\Generated_Source\PSoC5/USBFS_std.c **** *
   5:.\Generated_Source\PSoC5/USBFS_std.c **** * Description:
   6:.\Generated_Source\PSoC5/USBFS_std.c **** *  USB Standard request handler.
   7:.\Generated_Source\PSoC5/USBFS_std.c **** *
   8:.\Generated_Source\PSoC5/USBFS_std.c **** * Note:
   9:.\Generated_Source\PSoC5/USBFS_std.c **** *
  10:.\Generated_Source\PSoC5/USBFS_std.c **** ********************************************************************************
  11:.\Generated_Source\PSoC5/USBFS_std.c **** * Copyright 2008-2013, Cypress Semiconductor Corporation.  All rights reserved.
  12:.\Generated_Source\PSoC5/USBFS_std.c **** * You may use this file only in accordance with the license, terms, conditions,
  13:.\Generated_Source\PSoC5/USBFS_std.c **** * disclaimers, and limitations in the end user license agreement accompanying
  14:.\Generated_Source\PSoC5/USBFS_std.c **** * the software package with which this file was provided.
  15:.\Generated_Source\PSoC5/USBFS_std.c **** *******************************************************************************/
  16:.\Generated_Source\PSoC5/USBFS_std.c **** 
  17:.\Generated_Source\PSoC5/USBFS_std.c **** #include "USBFS.h"
  18:.\Generated_Source\PSoC5/USBFS_std.c **** #include "USBFS_cdc.h"
  19:.\Generated_Source\PSoC5/USBFS_std.c **** #include "USBFS_pvt.h"
  20:.\Generated_Source\PSoC5/USBFS_std.c **** #if defined(USBFS_ENABLE_MIDI_STREAMING)
  21:.\Generated_Source\PSoC5/USBFS_std.c ****     #include "USBFS_midi.h"
  22:.\Generated_Source\PSoC5/USBFS_std.c **** #endif /*  USBFS_ENABLE_MIDI_STREAMING*/
  23:.\Generated_Source\PSoC5/USBFS_std.c **** 
  24:.\Generated_Source\PSoC5/USBFS_std.c **** 
  25:.\Generated_Source\PSoC5/USBFS_std.c **** /***************************************
  26:.\Generated_Source\PSoC5/USBFS_std.c **** *   Static data allocation
  27:.\Generated_Source\PSoC5/USBFS_std.c **** ***************************************/
  28:.\Generated_Source\PSoC5/USBFS_std.c **** 
  29:.\Generated_Source\PSoC5/USBFS_std.c **** #if defined(USBFS_ENABLE_FWSN_STRING)
  30:.\Generated_Source\PSoC5/USBFS_std.c ****     static volatile uint8 *USBFS_fwSerialNumberStringDescriptor;
  31:.\Generated_Source\PSoC5/USBFS_std.c ****     static volatile uint8 USBFS_snStringConfirm = USBFS_FALSE;
ARM GAS  C:\Users\VICTOR~1\AppData\Local\Temp\ccl24Kua.s 			page 2


  32:.\Generated_Source\PSoC5/USBFS_std.c **** #endif  /* USBFS_ENABLE_FWSN_STRING */
  33:.\Generated_Source\PSoC5/USBFS_std.c **** 
  34:.\Generated_Source\PSoC5/USBFS_std.c **** #if defined(USBFS_ENABLE_FWSN_STRING)
  35:.\Generated_Source\PSoC5/USBFS_std.c **** 
  36:.\Generated_Source\PSoC5/USBFS_std.c ****     /*******************************************************************************
  37:.\Generated_Source\PSoC5/USBFS_std.c ****     * Function Name: USBFS_SerialNumString
  38:.\Generated_Source\PSoC5/USBFS_std.c ****     ********************************************************************************
  39:.\Generated_Source\PSoC5/USBFS_std.c ****     *
  40:.\Generated_Source\PSoC5/USBFS_std.c ****     * Summary:
  41:.\Generated_Source\PSoC5/USBFS_std.c ****     *  Application firmware may supply the source of the USB device descriptors
  42:.\Generated_Source\PSoC5/USBFS_std.c ****     *  serial number string during runtime.
  43:.\Generated_Source\PSoC5/USBFS_std.c ****     *
  44:.\Generated_Source\PSoC5/USBFS_std.c ****     * Parameters:
  45:.\Generated_Source\PSoC5/USBFS_std.c ****     *  snString:  pointer to string.
  46:.\Generated_Source\PSoC5/USBFS_std.c ****     *
  47:.\Generated_Source\PSoC5/USBFS_std.c ****     * Return:
  48:.\Generated_Source\PSoC5/USBFS_std.c ****     *  None.
  49:.\Generated_Source\PSoC5/USBFS_std.c ****     *
  50:.\Generated_Source\PSoC5/USBFS_std.c ****     * Reentrant:
  51:.\Generated_Source\PSoC5/USBFS_std.c ****     *  No.
  52:.\Generated_Source\PSoC5/USBFS_std.c ****     *
  53:.\Generated_Source\PSoC5/USBFS_std.c ****     *******************************************************************************/
  54:.\Generated_Source\PSoC5/USBFS_std.c ****     void  USBFS_SerialNumString(uint8 snString[]) 
  55:.\Generated_Source\PSoC5/USBFS_std.c ****     {
  56:.\Generated_Source\PSoC5/USBFS_std.c ****         USBFS_snStringConfirm = USBFS_FALSE;
  57:.\Generated_Source\PSoC5/USBFS_std.c ****         if(snString != NULL)
  58:.\Generated_Source\PSoC5/USBFS_std.c ****         {
  59:.\Generated_Source\PSoC5/USBFS_std.c ****             /* Check descriptor validation */
  60:.\Generated_Source\PSoC5/USBFS_std.c ****             if( (snString[0u] > 1u ) && (snString[1u] == USBFS_DESCR_STRING) )
  61:.\Generated_Source\PSoC5/USBFS_std.c ****             {
  62:.\Generated_Source\PSoC5/USBFS_std.c ****                 USBFS_fwSerialNumberStringDescriptor = snString;
  63:.\Generated_Source\PSoC5/USBFS_std.c ****                 USBFS_snStringConfirm = USBFS_TRUE;
  64:.\Generated_Source\PSoC5/USBFS_std.c ****             }
  65:.\Generated_Source\PSoC5/USBFS_std.c ****         }
  66:.\Generated_Source\PSoC5/USBFS_std.c ****     }
  67:.\Generated_Source\PSoC5/USBFS_std.c **** 
  68:.\Generated_Source\PSoC5/USBFS_std.c **** #endif  /* USBFS_ENABLE_FWSN_STRING */
  69:.\Generated_Source\PSoC5/USBFS_std.c **** 
  70:.\Generated_Source\PSoC5/USBFS_std.c **** 
  71:.\Generated_Source\PSoC5/USBFS_std.c **** /*******************************************************************************
  72:.\Generated_Source\PSoC5/USBFS_std.c **** * Function Name: USBFS_HandleStandardRqst
  73:.\Generated_Source\PSoC5/USBFS_std.c **** ********************************************************************************
  74:.\Generated_Source\PSoC5/USBFS_std.c **** *
  75:.\Generated_Source\PSoC5/USBFS_std.c **** * Summary:
  76:.\Generated_Source\PSoC5/USBFS_std.c **** *  This Routine dispatches standard requests
  77:.\Generated_Source\PSoC5/USBFS_std.c **** *
  78:.\Generated_Source\PSoC5/USBFS_std.c **** * Parameters:
  79:.\Generated_Source\PSoC5/USBFS_std.c **** *  None.
  80:.\Generated_Source\PSoC5/USBFS_std.c **** *
  81:.\Generated_Source\PSoC5/USBFS_std.c **** * Return:
  82:.\Generated_Source\PSoC5/USBFS_std.c **** *  TRUE if request handled.
  83:.\Generated_Source\PSoC5/USBFS_std.c **** *
  84:.\Generated_Source\PSoC5/USBFS_std.c **** * Reentrant:
  85:.\Generated_Source\PSoC5/USBFS_std.c **** *  No.
  86:.\Generated_Source\PSoC5/USBFS_std.c **** *
  87:.\Generated_Source\PSoC5/USBFS_std.c **** *******************************************************************************/
  88:.\Generated_Source\PSoC5/USBFS_std.c **** uint8 USBFS_HandleStandardRqst(void) 
ARM GAS  C:\Users\VICTOR~1\AppData\Local\Temp\ccl24Kua.s 			page 3


  89:.\Generated_Source\PSoC5/USBFS_std.c **** {
  27              		.loc 1 89 0
  28              		.cfi_startproc
  29              		@ args = 0, pretend = 0, frame = 24
  30              		@ frame_needed = 1, uses_anonymous_args = 0
  31 0000 80B5     		push	{r7, lr}
  32              	.LCFI0:
  33              		.cfi_def_cfa_offset 8
  34              		.cfi_offset 7, -8
  35              		.cfi_offset 14, -4
  36 0002 86B0     		sub	sp, sp, #24
  37              	.LCFI1:
  38              		.cfi_def_cfa_offset 32
  39 0004 00AF     		add	r7, sp, #0
  40              	.LCFI2:
  41              		.cfi_def_cfa_register 7
  90:.\Generated_Source\PSoC5/USBFS_std.c ****     uint8 requestHandled = USBFS_FALSE;
  42              		.loc 1 90 0
  43 0006 4FF00003 		mov	r3, #0
  44 000a FB75     		strb	r3, [r7, #23]
  91:.\Generated_Source\PSoC5/USBFS_std.c ****     uint8 interfaceNumber;
  92:.\Generated_Source\PSoC5/USBFS_std.c ****     uint8 configurationN;
  93:.\Generated_Source\PSoC5/USBFS_std.c ****     #if defined(USBFS_ENABLE_STRINGS)
  94:.\Generated_Source\PSoC5/USBFS_std.c ****         volatile uint8 *pStr = 0u;
  45              		.loc 1 94 0
  46 000c 4FF00003 		mov	r3, #0
  47 0010 3B61     		str	r3, [r7, #16]
  95:.\Generated_Source\PSoC5/USBFS_std.c ****         #if defined(USBFS_ENABLE_DESCRIPTOR_STRINGS)
  96:.\Generated_Source\PSoC5/USBFS_std.c ****             uint8 nStr;
  97:.\Generated_Source\PSoC5/USBFS_std.c ****             uint8 descrLength;
  98:.\Generated_Source\PSoC5/USBFS_std.c ****         #endif /* USBFS_ENABLE_DESCRIPTOR_STRINGS */
  99:.\Generated_Source\PSoC5/USBFS_std.c ****     #endif /* USBFS_ENABLE_STRINGS */
 100:.\Generated_Source\PSoC5/USBFS_std.c ****     static volatile uint8 USBFS_tBuffer[USBFS_STATUS_LENGTH_MAX];
 101:.\Generated_Source\PSoC5/USBFS_std.c ****     const T_USBFS_LUT CYCODE *pTmp;
 102:.\Generated_Source\PSoC5/USBFS_std.c ****     USBFS_currentTD.count = 0u;
  48              		.loc 1 102 0
  49 0012 40F20003 		movw	r3, #:lower16:USBFS_currentTD
  50 0016 C0F20003 		movt	r3, #:upper16:USBFS_currentTD
  51 001a 4FF00002 		mov	r2, #0
  52 001e 1A80     		strh	r2, [r3, #0]	@ movhi
 103:.\Generated_Source\PSoC5/USBFS_std.c **** 
 104:.\Generated_Source\PSoC5/USBFS_std.c ****     if ((CY_GET_REG8(USBFS_bmRequestType) & USBFS_RQST_DIR_MASK) == USBFS_RQST_DIR_D2H)
  53              		.loc 1 104 0
  54 0020 4FF4C043 		mov	r3, #24576
  55 0024 C4F20003 		movt	r3, 16384
  56 0028 1B78     		ldrb	r3, [r3, #0]
  57 002a DBB2     		uxtb	r3, r3
  58 002c DBB2     		uxtb	r3, r3
  59 002e 5BB2     		sxtb	r3, r3
  60 0030 002B     		cmp	r3, #0
  61 0032 80F26781 		bge	.L2
 105:.\Generated_Source\PSoC5/USBFS_std.c ****     {
 106:.\Generated_Source\PSoC5/USBFS_std.c ****         /* Control Read */
 107:.\Generated_Source\PSoC5/USBFS_std.c ****         switch (CY_GET_REG8(USBFS_bRequest))
  62              		.loc 1 107 0
  63 0036 46F20103 		movw	r3, #24577
  64 003a C4F20003 		movt	r3, 16384
ARM GAS  C:\Users\VICTOR~1\AppData\Local\Temp\ccl24Kua.s 			page 4


  65 003e 1B78     		ldrb	r3, [r3, #0]
  66 0040 DBB2     		uxtb	r3, r3
  67 0042 0A2B     		cmp	r3, #10
  68 0044 00F2C982 		bhi	.L55
  69 0048 01A2     		adr	r2, .L8
  70 004a 52F823F0 		ldr	pc, [r2, r3, lsl #2]
  71 004e 00BF     		.align	2
  72              	.L8:
  73 0050 C9010000 		.word	.L4+1
  74 0054 DB050000 		.word	.L55+1
  75 0058 DB050000 		.word	.L55+1
  76 005c DB050000 		.word	.L55+1
  77 0060 DB050000 		.word	.L55+1
  78 0064 DB050000 		.word	.L55+1
  79 0068 7D000000 		.word	.L5+1
  80 006c DB050000 		.word	.L55+1
  81 0070 9F020000 		.word	.L6+1
  82 0074 DB050000 		.word	.L55+1
  83 0078 C9020000 		.word	.L7+1
  84              	.L5:
 108:.\Generated_Source\PSoC5/USBFS_std.c ****         {
 109:.\Generated_Source\PSoC5/USBFS_std.c ****             case USBFS_GET_DESCRIPTOR:
 110:.\Generated_Source\PSoC5/USBFS_std.c ****                 if (CY_GET_REG8(USBFS_wValueHi) == USBFS_DESCR_DEVICE)
  85              		.loc 1 110 0
  86 007c 46F20303 		movw	r3, #24579
  87 0080 C4F20003 		movt	r3, 16384
  88 0084 1B78     		ldrb	r3, [r3, #0]
  89 0086 DBB2     		uxtb	r3, r3
  90 0088 012B     		cmp	r3, #1
  91 008a 15D1     		bne	.L9
 111:.\Generated_Source\PSoC5/USBFS_std.c ****                 {
 112:.\Generated_Source\PSoC5/USBFS_std.c ****                     pTmp = USBFS_GetDeviceTablePtr();
  92              		.loc 1 112 0
  93 008c FFF7FEFF 		bl	USBFS_GetDeviceTablePtr
  94 0090 B860     		str	r0, [r7, #8]
 113:.\Generated_Source\PSoC5/USBFS_std.c ****                     USBFS_currentTD.pData = (volatile uint8 *)pTmp->p_list;
  95              		.loc 1 113 0
  96 0092 BB68     		ldr	r3, [r7, #8]
  97 0094 5A68     		ldr	r2, [r3, #4]
  98 0096 40F20003 		movw	r3, #:lower16:USBFS_currentTD
  99 009a C0F20003 		movt	r3, #:upper16:USBFS_currentTD
 100 009e 5A60     		str	r2, [r3, #4]
 114:.\Generated_Source\PSoC5/USBFS_std.c ****                     USBFS_currentTD.count = USBFS_DEVICE_DESCR_LENGTH;
 101              		.loc 1 114 0
 102 00a0 40F20003 		movw	r3, #:lower16:USBFS_currentTD
 103 00a4 C0F20003 		movt	r3, #:upper16:USBFS_currentTD
 104 00a8 4FF01202 		mov	r2, #18
 105 00ac 1A80     		strh	r2, [r3, #0]	@ movhi
 115:.\Generated_Source\PSoC5/USBFS_std.c ****                     requestHandled  = USBFS_InitControlRead();
 106              		.loc 1 115 0
 107 00ae FFF7FEFF 		bl	USBFS_InitControlRead
 108 00b2 0346     		mov	r3, r0
 109 00b4 FB75     		strb	r3, [r7, #23]
 116:.\Generated_Source\PSoC5/USBFS_std.c ****                 }
 117:.\Generated_Source\PSoC5/USBFS_std.c ****                 else if (CY_GET_REG8(USBFS_wValueHi) == USBFS_DESCR_CONFIG)
 118:.\Generated_Source\PSoC5/USBFS_std.c ****                 {
 119:.\Generated_Source\PSoC5/USBFS_std.c ****                     pTmp = USBFS_GetConfigTablePtr(CY_GET_REG8(USBFS_wValueLo));
ARM GAS  C:\Users\VICTOR~1\AppData\Local\Temp\ccl24Kua.s 			page 5


 120:.\Generated_Source\PSoC5/USBFS_std.c ****                     if( pTmp != NULL )  /* Verify that requested descriptor exists */
 121:.\Generated_Source\PSoC5/USBFS_std.c ****                     {
 122:.\Generated_Source\PSoC5/USBFS_std.c ****                         USBFS_currentTD.pData = (volatile uint8 *)pTmp->p_list;
 123:.\Generated_Source\PSoC5/USBFS_std.c ****                         USBFS_currentTD.count = ((uint16)(USBFS_currentTD.pData)[ \
 124:.\Generated_Source\PSoC5/USBFS_std.c ****                                           USBFS_CONFIG_DESCR_TOTAL_LENGTH_HI] << 8u) | \
 125:.\Generated_Source\PSoC5/USBFS_std.c ****                                          (USBFS_currentTD.pData)[USBFS_CONFIG_DESCR_TOTAL_LENGTH_LO
 126:.\Generated_Source\PSoC5/USBFS_std.c ****                         requestHandled  = USBFS_InitControlRead();
 127:.\Generated_Source\PSoC5/USBFS_std.c ****                     }
 128:.\Generated_Source\PSoC5/USBFS_std.c ****                 }
 129:.\Generated_Source\PSoC5/USBFS_std.c ****                 #if defined(USBFS_ENABLE_STRINGS)
 130:.\Generated_Source\PSoC5/USBFS_std.c ****                 else if (CY_GET_REG8(USBFS_wValueHi) == USBFS_DESCR_STRING)
 131:.\Generated_Source\PSoC5/USBFS_std.c ****                 {
 132:.\Generated_Source\PSoC5/USBFS_std.c ****                     /* Descriptor Strings*/
 133:.\Generated_Source\PSoC5/USBFS_std.c ****                     #if defined(USBFS_ENABLE_DESCRIPTOR_STRINGS)
 134:.\Generated_Source\PSoC5/USBFS_std.c ****                         nStr = 0u;
 135:.\Generated_Source\PSoC5/USBFS_std.c ****                         pStr = (volatile uint8 *)&USBFS_STRING_DESCRIPTORS[0u];
 136:.\Generated_Source\PSoC5/USBFS_std.c ****                         while ( (CY_GET_REG8(USBFS_wValueLo) > nStr) && (*pStr != 0u) )
 137:.\Generated_Source\PSoC5/USBFS_std.c ****                         {
 138:.\Generated_Source\PSoC5/USBFS_std.c ****                             /* Read descriptor length from 1st byte */
 139:.\Generated_Source\PSoC5/USBFS_std.c ****                             descrLength = *pStr;
 140:.\Generated_Source\PSoC5/USBFS_std.c ****                             /* Move to next string descriptor */
 141:.\Generated_Source\PSoC5/USBFS_std.c ****                             pStr = &pStr[descrLength];
 142:.\Generated_Source\PSoC5/USBFS_std.c ****                             nStr++;
 143:.\Generated_Source\PSoC5/USBFS_std.c ****                         }
 144:.\Generated_Source\PSoC5/USBFS_std.c ****                     #endif /*  USBFS_ENABLE_DESCRIPTOR_STRINGS */
 145:.\Generated_Source\PSoC5/USBFS_std.c ****                     /* Microsoft OS String*/
 146:.\Generated_Source\PSoC5/USBFS_std.c ****                     #if defined(USBFS_ENABLE_MSOS_STRING)
 147:.\Generated_Source\PSoC5/USBFS_std.c ****                         if( CY_GET_REG8(USBFS_wValueLo) == USBFS_STRING_MSOS )
 148:.\Generated_Source\PSoC5/USBFS_std.c ****                         {
 149:.\Generated_Source\PSoC5/USBFS_std.c ****                             pStr = (volatile uint8 *)&USBFS_MSOS_DESCRIPTOR[0u];
 150:.\Generated_Source\PSoC5/USBFS_std.c ****                         }
 151:.\Generated_Source\PSoC5/USBFS_std.c ****                     #endif /*  USBFS_ENABLE_MSOS_STRING*/
 152:.\Generated_Source\PSoC5/USBFS_std.c ****                     /* SN string */
 153:.\Generated_Source\PSoC5/USBFS_std.c ****                     #if defined(USBFS_ENABLE_SN_STRING)
 154:.\Generated_Source\PSoC5/USBFS_std.c ****                         if( (CY_GET_REG8(USBFS_wValueLo) != 0u) &&
 155:.\Generated_Source\PSoC5/USBFS_std.c ****                             (CY_GET_REG8(USBFS_wValueLo) ==
 156:.\Generated_Source\PSoC5/USBFS_std.c ****                             USBFS_DEVICE0_DESCR[USBFS_DEVICE_DESCR_SN_SHIFT]) )
 157:.\Generated_Source\PSoC5/USBFS_std.c ****                         {
 158:.\Generated_Source\PSoC5/USBFS_std.c ****                             
 159:.\Generated_Source\PSoC5/USBFS_std.c ****                             #if defined(USBFS_ENABLE_IDSN_STRING)
 160:.\Generated_Source\PSoC5/USBFS_std.c ****                                 /* Read DIE ID and generate string descriptor in RAM */
 161:.\Generated_Source\PSoC5/USBFS_std.c ****                                 USBFS_ReadDieID(USBFS_idSerialNumberStringDescriptor);
 162:.\Generated_Source\PSoC5/USBFS_std.c ****                                 pStr = USBFS_idSerialNumberStringDescriptor;
 163:.\Generated_Source\PSoC5/USBFS_std.c ****                             #elif defined(USBFS_ENABLE_FWSN_STRING)
 164:.\Generated_Source\PSoC5/USBFS_std.c ****                                 if(USBFS_snStringConfirm != USBFS_FALSE)
 165:.\Generated_Source\PSoC5/USBFS_std.c ****                                 {
 166:.\Generated_Source\PSoC5/USBFS_std.c ****                                     pStr = USBFS_fwSerialNumberStringDescriptor;
 167:.\Generated_Source\PSoC5/USBFS_std.c ****                                 }
 168:.\Generated_Source\PSoC5/USBFS_std.c ****                                 else
 169:.\Generated_Source\PSoC5/USBFS_std.c ****                                 {
 170:.\Generated_Source\PSoC5/USBFS_std.c ****                                     pStr = (volatile uint8 *)&USBFS_SN_STRING_DESCRIPTOR[0u];
 171:.\Generated_Source\PSoC5/USBFS_std.c ****                                 }
 172:.\Generated_Source\PSoC5/USBFS_std.c ****                             #else
 173:.\Generated_Source\PSoC5/USBFS_std.c ****                                 pStr = (volatile uint8 *)&USBFS_SN_STRING_DESCRIPTOR[0u];
 174:.\Generated_Source\PSoC5/USBFS_std.c ****                             #endif  /* defined(USBFS_ENABLE_IDSN_STRING) */
 175:.\Generated_Source\PSoC5/USBFS_std.c ****                         }
 176:.\Generated_Source\PSoC5/USBFS_std.c ****                     #endif    /*  USBFS_ENABLE_SN_STRING */
ARM GAS  C:\Users\VICTOR~1\AppData\Local\Temp\ccl24Kua.s 			page 6


 177:.\Generated_Source\PSoC5/USBFS_std.c ****                     if (*pStr != 0u)
 178:.\Generated_Source\PSoC5/USBFS_std.c ****                     {
 179:.\Generated_Source\PSoC5/USBFS_std.c ****                         USBFS_currentTD.count = *pStr;
 180:.\Generated_Source\PSoC5/USBFS_std.c ****                         USBFS_currentTD.pData = pStr;
 181:.\Generated_Source\PSoC5/USBFS_std.c ****                         requestHandled  = USBFS_InitControlRead();
 182:.\Generated_Source\PSoC5/USBFS_std.c ****                     }
 183:.\Generated_Source\PSoC5/USBFS_std.c ****                 }
 184:.\Generated_Source\PSoC5/USBFS_std.c ****                 #endif /*  USBFS_ENABLE_STRINGS */
 185:.\Generated_Source\PSoC5/USBFS_std.c ****                 else
 186:.\Generated_Source\PSoC5/USBFS_std.c ****                 {
 187:.\Generated_Source\PSoC5/USBFS_std.c ****                     requestHandled = USBFS_DispatchClassRqst();
 188:.\Generated_Source\PSoC5/USBFS_std.c ****                 }
 189:.\Generated_Source\PSoC5/USBFS_std.c ****                 break;
 110              		.loc 1 189 0
 111 00b6 92E2     		b	.L56
 112              	.L9:
 117:.\Generated_Source\PSoC5/USBFS_std.c ****                 else if (CY_GET_REG8(USBFS_wValueHi) == USBFS_DESCR_CONFIG)
 113              		.loc 1 117 0
 114 00b8 46F20303 		movw	r3, #24579
 115 00bc C4F20003 		movt	r3, 16384
 116 00c0 1B78     		ldrb	r3, [r3, #0]
 117 00c2 DBB2     		uxtb	r3, r3
 118 00c4 022B     		cmp	r3, #2
 119 00c6 36D1     		bne	.L11
 119:.\Generated_Source\PSoC5/USBFS_std.c ****                     pTmp = USBFS_GetConfigTablePtr(CY_GET_REG8(USBFS_wValueLo));
 120              		.loc 1 119 0
 121 00c8 46F20203 		movw	r3, #24578
 122 00cc C4F20003 		movt	r3, 16384
 123 00d0 1B78     		ldrb	r3, [r3, #0]
 124 00d2 DBB2     		uxtb	r3, r3
 125 00d4 1846     		mov	r0, r3
 126 00d6 FFF7FEFF 		bl	USBFS_GetConfigTablePtr
 127 00da B860     		str	r0, [r7, #8]
 120:.\Generated_Source\PSoC5/USBFS_std.c ****                     if( pTmp != NULL )  /* Verify that requested descriptor exists */
 128              		.loc 1 120 0
 129 00dc BB68     		ldr	r3, [r7, #8]
 130 00de 002B     		cmp	r3, #0
 131 00e0 00F07D82 		beq	.L56
 122:.\Generated_Source\PSoC5/USBFS_std.c ****                         USBFS_currentTD.pData = (volatile uint8 *)pTmp->p_list;
 132              		.loc 1 122 0
 133 00e4 BB68     		ldr	r3, [r7, #8]
 134 00e6 5A68     		ldr	r2, [r3, #4]
 135 00e8 40F20003 		movw	r3, #:lower16:USBFS_currentTD
 136 00ec C0F20003 		movt	r3, #:upper16:USBFS_currentTD
 137 00f0 5A60     		str	r2, [r3, #4]
 123:.\Generated_Source\PSoC5/USBFS_std.c ****                         USBFS_currentTD.count = ((uint16)(USBFS_currentTD.pData)[ \
 138              		.loc 1 123 0
 139 00f2 40F20003 		movw	r3, #:lower16:USBFS_currentTD
 140 00f6 C0F20003 		movt	r3, #:upper16:USBFS_currentTD
 141 00fa 5B68     		ldr	r3, [r3, #4]
 142 00fc 03F10303 		add	r3, r3, #3
 143 0100 1B78     		ldrb	r3, [r3, #0]
 144 0102 DBB2     		uxtb	r3, r3
 124:.\Generated_Source\PSoC5/USBFS_std.c ****                                           USBFS_CONFIG_DESCR_TOTAL_LENGTH_HI] << 8u) | \
 145              		.loc 1 124 0
 146 0104 4FEA0323 		lsl	r3, r3, #8
 123:.\Generated_Source\PSoC5/USBFS_std.c ****                         USBFS_currentTD.count = ((uint16)(USBFS_currentTD.pData)[ \
ARM GAS  C:\Users\VICTOR~1\AppData\Local\Temp\ccl24Kua.s 			page 7


 147              		.loc 1 123 0
 148 0108 9AB2     		uxth	r2, r3
 125:.\Generated_Source\PSoC5/USBFS_std.c ****                                          (USBFS_currentTD.pData)[USBFS_CONFIG_DESCR_TOTAL_LENGTH_LO
 149              		.loc 1 125 0
 150 010a 40F20003 		movw	r3, #:lower16:USBFS_currentTD
 151 010e C0F20003 		movt	r3, #:upper16:USBFS_currentTD
 152 0112 5B68     		ldr	r3, [r3, #4]
 153 0114 03F10203 		add	r3, r3, #2
 154 0118 1B78     		ldrb	r3, [r3, #0]
 155 011a DBB2     		uxtb	r3, r3
 123:.\Generated_Source\PSoC5/USBFS_std.c ****                         USBFS_currentTD.count = ((uint16)(USBFS_currentTD.pData)[ \
 156              		.loc 1 123 0
 157 011c 1343     		orrs	r3, r3, r2
 158 011e 9BB2     		uxth	r3, r3
 159 0120 9AB2     		uxth	r2, r3
 160 0122 40F20003 		movw	r3, #:lower16:USBFS_currentTD
 161 0126 C0F20003 		movt	r3, #:upper16:USBFS_currentTD
 162 012a 1A80     		strh	r2, [r3, #0]	@ movhi
 126:.\Generated_Source\PSoC5/USBFS_std.c ****                         requestHandled  = USBFS_InitControlRead();
 163              		.loc 1 126 0
 164 012c FFF7FEFF 		bl	USBFS_InitControlRead
 165 0130 0346     		mov	r3, r0
 166 0132 FB75     		strb	r3, [r7, #23]
 167              		.loc 1 189 0
 168 0134 53E2     		b	.L56
 169              	.L11:
 130:.\Generated_Source\PSoC5/USBFS_std.c ****                 else if (CY_GET_REG8(USBFS_wValueHi) == USBFS_DESCR_STRING)
 170              		.loc 1 130 0
 171 0136 46F20303 		movw	r3, #24579
 172 013a C4F20003 		movt	r3, 16384
 173 013e 1B78     		ldrb	r3, [r3, #0]
 174 0140 DBB2     		uxtb	r3, r3
 175 0142 032B     		cmp	r3, #3
 176 0144 3BD1     		bne	.L12
 134:.\Generated_Source\PSoC5/USBFS_std.c ****                         nStr = 0u;
 177              		.loc 1 134 0
 178 0146 4FF00003 		mov	r3, #0
 179 014a FB73     		strb	r3, [r7, #15]
 135:.\Generated_Source\PSoC5/USBFS_std.c ****                         pStr = (volatile uint8 *)&USBFS_STRING_DESCRIPTORS[0u];
 180              		.loc 1 135 0
 181 014c 40F20003 		movw	r3, #:lower16:USBFS_STRING_DESCRIPTORS
 182 0150 C0F20003 		movt	r3, #:upper16:USBFS_STRING_DESCRIPTORS
 183 0154 3B61     		str	r3, [r7, #16]
 136:.\Generated_Source\PSoC5/USBFS_std.c ****                         while ( (CY_GET_REG8(USBFS_wValueLo) > nStr) && (*pStr != 0u) )
 184              		.loc 1 136 0
 185 0156 0AE0     		b	.L13
 186              	.L15:
 139:.\Generated_Source\PSoC5/USBFS_std.c ****                             descrLength = *pStr;
 187              		.loc 1 139 0
 188 0158 3B69     		ldr	r3, [r7, #16]
 189 015a 1B78     		ldrb	r3, [r3, #0]
 190 015c FB71     		strb	r3, [r7, #7]
 141:.\Generated_Source\PSoC5/USBFS_std.c ****                             pStr = &pStr[descrLength];
 191              		.loc 1 141 0
 192 015e FB79     		ldrb	r3, [r7, #7]	@ zero_extendqisi2
 193 0160 3A69     		ldr	r2, [r7, #16]
 194 0162 D318     		adds	r3, r2, r3
ARM GAS  C:\Users\VICTOR~1\AppData\Local\Temp\ccl24Kua.s 			page 8


 195 0164 3B61     		str	r3, [r7, #16]
 142:.\Generated_Source\PSoC5/USBFS_std.c ****                             nStr++;
 196              		.loc 1 142 0
 197 0166 FB7B     		ldrb	r3, [r7, #15]
 198 0168 03F10103 		add	r3, r3, #1
 199 016c FB73     		strb	r3, [r7, #15]
 200              	.L13:
 136:.\Generated_Source\PSoC5/USBFS_std.c ****                         while ( (CY_GET_REG8(USBFS_wValueLo) > nStr) && (*pStr != 0u) )
 201              		.loc 1 136 0 discriminator 1
 202 016e 46F20203 		movw	r3, #24578
 203 0172 C4F20003 		movt	r3, 16384
 204 0176 1B78     		ldrb	r3, [r3, #0]
 205 0178 DBB2     		uxtb	r3, r3
 206 017a FA7B     		ldrb	r2, [r7, #15]	@ zero_extendqisi2
 207 017c 9A42     		cmp	r2, r3
 208 017e 04D2     		bcs	.L14
 136:.\Generated_Source\PSoC5/USBFS_std.c ****                         while ( (CY_GET_REG8(USBFS_wValueLo) > nStr) && (*pStr != 0u) )
 209              		.loc 1 136 0 is_stmt 0 discriminator 2
 210 0180 3B69     		ldr	r3, [r7, #16]
 211 0182 1B78     		ldrb	r3, [r3, #0]
 212 0184 DBB2     		uxtb	r3, r3
 213 0186 002B     		cmp	r3, #0
 214 0188 E6D1     		bne	.L15
 215              	.L14:
 177:.\Generated_Source\PSoC5/USBFS_std.c ****                     if (*pStr != 0u)
 216              		.loc 1 177 0 is_stmt 1
 217 018a 3B69     		ldr	r3, [r7, #16]
 218 018c 1B78     		ldrb	r3, [r3, #0]
 219 018e DBB2     		uxtb	r3, r3
 220 0190 002B     		cmp	r3, #0
 221 0192 00F02482 		beq	.L56
 179:.\Generated_Source\PSoC5/USBFS_std.c ****                         USBFS_currentTD.count = *pStr;
 222              		.loc 1 179 0
 223 0196 3B69     		ldr	r3, [r7, #16]
 224 0198 1B78     		ldrb	r3, [r3, #0]
 225 019a DBB2     		uxtb	r3, r3
 226 019c 1A46     		mov	r2, r3
 227 019e 40F20003 		movw	r3, #:lower16:USBFS_currentTD
 228 01a2 C0F20003 		movt	r3, #:upper16:USBFS_currentTD
 229 01a6 1A80     		strh	r2, [r3, #0]	@ movhi
 180:.\Generated_Source\PSoC5/USBFS_std.c ****                         USBFS_currentTD.pData = pStr;
 230              		.loc 1 180 0
 231 01a8 40F20003 		movw	r3, #:lower16:USBFS_currentTD
 232 01ac C0F20003 		movt	r3, #:upper16:USBFS_currentTD
 233 01b0 3A69     		ldr	r2, [r7, #16]
 234 01b2 5A60     		str	r2, [r3, #4]
 181:.\Generated_Source\PSoC5/USBFS_std.c ****                         requestHandled  = USBFS_InitControlRead();
 235              		.loc 1 181 0
 236 01b4 FFF7FEFF 		bl	USBFS_InitControlRead
 237 01b8 0346     		mov	r3, r0
 238 01ba FB75     		strb	r3, [r7, #23]
 239              		.loc 1 189 0
 240 01bc 0FE2     		b	.L56
 241              	.L12:
 187:.\Generated_Source\PSoC5/USBFS_std.c ****                     requestHandled = USBFS_DispatchClassRqst();
 242              		.loc 1 187 0
 243 01be FFF7FEFF 		bl	USBFS_DispatchClassRqst
ARM GAS  C:\Users\VICTOR~1\AppData\Local\Temp\ccl24Kua.s 			page 9


 244 01c2 0346     		mov	r3, r0
 245 01c4 FB75     		strb	r3, [r7, #23]
 246              		.loc 1 189 0
 247 01c6 0AE2     		b	.L56
 248              	.L4:
 190:.\Generated_Source\PSoC5/USBFS_std.c ****             case USBFS_GET_STATUS:
 191:.\Generated_Source\PSoC5/USBFS_std.c ****                 switch ((CY_GET_REG8(USBFS_bmRequestType) & USBFS_RQST_RCPT_MASK))
 249              		.loc 1 191 0
 250 01c8 4FF4C043 		mov	r3, #24576
 251 01cc C4F20003 		movt	r3, 16384
 252 01d0 1B78     		ldrb	r3, [r3, #0]
 253 01d2 DBB2     		uxtb	r3, r3
 254 01d4 03F00303 		and	r3, r3, #3
 255 01d8 002B     		cmp	r3, #0
 256 01da 37D0     		beq	.L18
 257 01dc 022B     		cmp	r3, #2
 258 01de 5CD1     		bne	.L52
 259              	.L19:
 192:.\Generated_Source\PSoC5/USBFS_std.c ****                 {
 193:.\Generated_Source\PSoC5/USBFS_std.c ****                     case USBFS_RQST_RCPT_EP:
 194:.\Generated_Source\PSoC5/USBFS_std.c ****                         USBFS_currentTD.count = USBFS_EP_STATUS_LENGTH;
 260              		.loc 1 194 0
 261 01e0 40F20003 		movw	r3, #:lower16:USBFS_currentTD
 262 01e4 C0F20003 		movt	r3, #:upper16:USBFS_currentTD
 263 01e8 4FF00202 		mov	r2, #2
 264 01ec 1A80     		strh	r2, [r3, #0]	@ movhi
 195:.\Generated_Source\PSoC5/USBFS_std.c ****                         USBFS_tBuffer[0u] = USBFS_EP[ \
 196:.\Generated_Source\PSoC5/USBFS_std.c ****                                         CY_GET_REG8(USBFS_wIndexLo) & USBFS_DIR_UNUSED].hwEpState;
 265              		.loc 1 196 0
 266 01ee 46F20403 		movw	r3, #24580
 267 01f2 C4F20003 		movt	r3, 16384
 268 01f6 1B78     		ldrb	r3, [r3, #0]
 269 01f8 DBB2     		uxtb	r3, r3
 270 01fa 03F07F01 		and	r1, r3, #127
 271 01fe 40F20002 		movw	r2, #:lower16:USBFS_EP
 272 0202 C0F20002 		movt	r2, #:upper16:USBFS_EP
 273 0206 0B46     		mov	r3, r1
 274 0208 4FEA4303 		lsl	r3, r3, #1
 275 020c 5B18     		adds	r3, r3, r1
 276 020e 4FEA8303 		lsl	r3, r3, #2
 277 0212 D318     		adds	r3, r2, r3
 278 0214 9B78     		ldrb	r3, [r3, #2]
 279 0216 DAB2     		uxtb	r2, r3
 195:.\Generated_Source\PSoC5/USBFS_std.c ****                         USBFS_tBuffer[0u] = USBFS_EP[ \
 280              		.loc 1 195 0
 281 0218 40F20003 		movw	r3, #:lower16:USBFS_tBuffer.4976
 282 021c C0F20003 		movt	r3, #:upper16:USBFS_tBuffer.4976
 283 0220 1A70     		strb	r2, [r3, #0]
 197:.\Generated_Source\PSoC5/USBFS_std.c ****                         USBFS_tBuffer[1u] = 0u;
 284              		.loc 1 197 0
 285 0222 40F20003 		movw	r3, #:lower16:USBFS_tBuffer.4976
 286 0226 C0F20003 		movt	r3, #:upper16:USBFS_tBuffer.4976
 287 022a 4FF00002 		mov	r2, #0
 288 022e 5A70     		strb	r2, [r3, #1]
 198:.\Generated_Source\PSoC5/USBFS_std.c ****                         USBFS_currentTD.pData = &USBFS_tBuffer[0u];
 289              		.loc 1 198 0
 290 0230 40F20003 		movw	r3, #:lower16:USBFS_currentTD
ARM GAS  C:\Users\VICTOR~1\AppData\Local\Temp\ccl24Kua.s 			page 10


 291 0234 C0F20003 		movt	r3, #:upper16:USBFS_currentTD
 292 0238 40F20002 		movw	r2, #:lower16:USBFS_tBuffer.4976
 293 023c C0F20002 		movt	r2, #:upper16:USBFS_tBuffer.4976
 294 0240 5A60     		str	r2, [r3, #4]
 199:.\Generated_Source\PSoC5/USBFS_std.c ****                         requestHandled  = USBFS_InitControlRead();
 295              		.loc 1 199 0
 296 0242 FFF7FEFF 		bl	USBFS_InitControlRead
 297 0246 0346     		mov	r3, r0
 298 0248 FB75     		strb	r3, [r7, #23]
 200:.\Generated_Source\PSoC5/USBFS_std.c ****                         break;
 299              		.loc 1 200 0
 300 024a 27E0     		b	.L20
 301              	.L18:
 201:.\Generated_Source\PSoC5/USBFS_std.c ****                     case USBFS_RQST_RCPT_DEV:
 202:.\Generated_Source\PSoC5/USBFS_std.c ****                         USBFS_currentTD.count = USBFS_DEVICE_STATUS_LENGTH;
 302              		.loc 1 202 0
 303 024c 40F20003 		movw	r3, #:lower16:USBFS_currentTD
 304 0250 C0F20003 		movt	r3, #:upper16:USBFS_currentTD
 305 0254 4FF00202 		mov	r2, #2
 306 0258 1A80     		strh	r2, [r3, #0]	@ movhi
 203:.\Generated_Source\PSoC5/USBFS_std.c ****                         USBFS_tBuffer[0u] = USBFS_deviceStatus;
 307              		.loc 1 203 0
 308 025a 40F20003 		movw	r3, #:lower16:USBFS_deviceStatus
 309 025e C0F20003 		movt	r3, #:upper16:USBFS_deviceStatus
 310 0262 1B78     		ldrb	r3, [r3, #0]
 311 0264 DAB2     		uxtb	r2, r3
 312 0266 40F20003 		movw	r3, #:lower16:USBFS_tBuffer.4976
 313 026a C0F20003 		movt	r3, #:upper16:USBFS_tBuffer.4976
 314 026e 1A70     		strb	r2, [r3, #0]
 204:.\Generated_Source\PSoC5/USBFS_std.c ****                         USBFS_tBuffer[1u] = 0u;
 315              		.loc 1 204 0
 316 0270 40F20003 		movw	r3, #:lower16:USBFS_tBuffer.4976
 317 0274 C0F20003 		movt	r3, #:upper16:USBFS_tBuffer.4976
 318 0278 4FF00002 		mov	r2, #0
 319 027c 5A70     		strb	r2, [r3, #1]
 205:.\Generated_Source\PSoC5/USBFS_std.c ****                         USBFS_currentTD.pData = &USBFS_tBuffer[0u];
 320              		.loc 1 205 0
 321 027e 40F20003 		movw	r3, #:lower16:USBFS_currentTD
 322 0282 C0F20003 		movt	r3, #:upper16:USBFS_currentTD
 323 0286 40F20002 		movw	r2, #:lower16:USBFS_tBuffer.4976
 324 028a C0F20002 		movt	r2, #:upper16:USBFS_tBuffer.4976
 325 028e 5A60     		str	r2, [r3, #4]
 206:.\Generated_Source\PSoC5/USBFS_std.c ****                         requestHandled  = USBFS_InitControlRead();
 326              		.loc 1 206 0
 327 0290 FFF7FEFF 		bl	USBFS_InitControlRead
 328 0294 0346     		mov	r3, r0
 329 0296 FB75     		strb	r3, [r7, #23]
 207:.\Generated_Source\PSoC5/USBFS_std.c ****                         break;
 330              		.loc 1 207 0
 331 0298 00E0     		b	.L20
 332              	.L52:
 208:.\Generated_Source\PSoC5/USBFS_std.c ****                     default:    /* requestHandled is initialized as FALSE by default */
 209:.\Generated_Source\PSoC5/USBFS_std.c ****                         break;
 333              		.loc 1 209 0
 334 029a 00BF     		nop
 335              	.L20:
 210:.\Generated_Source\PSoC5/USBFS_std.c ****                 }
ARM GAS  C:\Users\VICTOR~1\AppData\Local\Temp\ccl24Kua.s 			page 11


 211:.\Generated_Source\PSoC5/USBFS_std.c ****                 break;
 336              		.loc 1 211 0
 337 029c A6E1     		b	.L21
 338              	.L6:
 212:.\Generated_Source\PSoC5/USBFS_std.c ****             case USBFS_GET_CONFIGURATION:
 213:.\Generated_Source\PSoC5/USBFS_std.c ****                 USBFS_currentTD.count = 1u;
 339              		.loc 1 213 0
 340 029e 40F20003 		movw	r3, #:lower16:USBFS_currentTD
 341 02a2 C0F20003 		movt	r3, #:upper16:USBFS_currentTD
 342 02a6 4FF00102 		mov	r2, #1
 343 02aa 1A80     		strh	r2, [r3, #0]	@ movhi
 214:.\Generated_Source\PSoC5/USBFS_std.c ****                 USBFS_currentTD.pData = (volatile uint8 *)&USBFS_configuration;
 344              		.loc 1 214 0
 345 02ac 40F20003 		movw	r3, #:lower16:USBFS_currentTD
 346 02b0 C0F20003 		movt	r3, #:upper16:USBFS_currentTD
 347 02b4 40F20002 		movw	r2, #:lower16:USBFS_configuration
 348 02b8 C0F20002 		movt	r2, #:upper16:USBFS_configuration
 349 02bc 5A60     		str	r2, [r3, #4]
 215:.\Generated_Source\PSoC5/USBFS_std.c ****                 requestHandled  = USBFS_InitControlRead();
 350              		.loc 1 215 0
 351 02be FFF7FEFF 		bl	USBFS_InitControlRead
 352 02c2 0346     		mov	r3, r0
 353 02c4 FB75     		strb	r3, [r7, #23]
 216:.\Generated_Source\PSoC5/USBFS_std.c ****                 break;
 354              		.loc 1 216 0
 355 02c6 91E1     		b	.L21
 356              	.L7:
 217:.\Generated_Source\PSoC5/USBFS_std.c ****             case USBFS_GET_INTERFACE:
 218:.\Generated_Source\PSoC5/USBFS_std.c ****                 USBFS_currentTD.count = 1u;
 357              		.loc 1 218 0
 358 02c8 40F20003 		movw	r3, #:lower16:USBFS_currentTD
 359 02cc C0F20003 		movt	r3, #:upper16:USBFS_currentTD
 360 02d0 4FF00102 		mov	r2, #1
 361 02d4 1A80     		strh	r2, [r3, #0]	@ movhi
 219:.\Generated_Source\PSoC5/USBFS_std.c ****                 USBFS_currentTD.pData = (volatile uint8 *)&USBFS_interfaceSetting[ \
 220:.\Generated_Source\PSoC5/USBFS_std.c ****                                                                             CY_GET_REG8(USBFS_wInde
 362              		.loc 1 220 0
 363 02d6 46F20403 		movw	r3, #24580
 364 02da C4F20003 		movt	r3, 16384
 365 02de 1B78     		ldrb	r3, [r3, #0]
 366 02e0 DBB2     		uxtb	r3, r3
 219:.\Generated_Source\PSoC5/USBFS_std.c ****                 USBFS_currentTD.pData = (volatile uint8 *)&USBFS_interfaceSetting[ \
 367              		.loc 1 219 0
 368 02e2 1A46     		mov	r2, r3
 369 02e4 40F20003 		movw	r3, #:lower16:USBFS_interfaceSetting
 370 02e8 C0F20003 		movt	r3, #:upper16:USBFS_interfaceSetting
 371 02ec D218     		adds	r2, r2, r3
 372 02ee 40F20003 		movw	r3, #:lower16:USBFS_currentTD
 373 02f2 C0F20003 		movt	r3, #:upper16:USBFS_currentTD
 374 02f6 5A60     		str	r2, [r3, #4]
 221:.\Generated_Source\PSoC5/USBFS_std.c ****                 requestHandled  = USBFS_InitControlRead();
 375              		.loc 1 221 0
 376 02f8 FFF7FEFF 		bl	USBFS_InitControlRead
 377 02fc 0346     		mov	r3, r0
 378 02fe FB75     		strb	r3, [r7, #23]
 222:.\Generated_Source\PSoC5/USBFS_std.c ****                 break;
 379              		.loc 1 222 0
ARM GAS  C:\Users\VICTOR~1\AppData\Local\Temp\ccl24Kua.s 			page 12


 380 0300 00BF     		nop
 381 0302 73E1     		b	.L21
 382              	.L2:
 223:.\Generated_Source\PSoC5/USBFS_std.c ****             default: /* requestHandled is initialized as FALSE by default */
 224:.\Generated_Source\PSoC5/USBFS_std.c ****                 break;
 225:.\Generated_Source\PSoC5/USBFS_std.c ****         }
 226:.\Generated_Source\PSoC5/USBFS_std.c ****     }
 227:.\Generated_Source\PSoC5/USBFS_std.c ****     else {
 228:.\Generated_Source\PSoC5/USBFS_std.c ****         /* Control Write */
 229:.\Generated_Source\PSoC5/USBFS_std.c ****         switch (CY_GET_REG8(USBFS_bRequest))
 383              		.loc 1 229 0
 384 0304 46F20103 		movw	r3, #24577
 385 0308 C4F20003 		movt	r3, 16384
 386 030c 1B78     		ldrb	r3, [r3, #0]
 387 030e DBB2     		uxtb	r3, r3
 388 0310 03F1FF33 		add	r3, r3, #-1
 389 0314 0A2B     		cmp	r3, #10
 390 0316 00F26481 		bhi	.L57
 391 031a 01A2     		adr	r2, .L28
 392 031c 52F823F0 		ldr	pc, [r2, r3, lsl #2]
 393              		.align	2
 394              	.L28:
 395 0320 3B040000 		.word	.L23+1
 396 0324 E3050000 		.word	.L57+1
 397 0328 0B050000 		.word	.L24+1
 398 032c E3050000 		.word	.L57+1
 399 0330 4D030000 		.word	.L25+1
 400 0334 E3050000 		.word	.L57+1
 401 0338 E3050000 		.word	.L57+1
 402 033c E3050000 		.word	.L57+1
 403 0340 6D030000 		.word	.L26+1
 404 0344 E3050000 		.word	.L57+1
 405 0348 E1030000 		.word	.L27+1
 406              	.L25:
 230:.\Generated_Source\PSoC5/USBFS_std.c ****         {
 231:.\Generated_Source\PSoC5/USBFS_std.c ****             case USBFS_SET_ADDRESS:
 232:.\Generated_Source\PSoC5/USBFS_std.c ****                 USBFS_deviceAddress = CY_GET_REG8(USBFS_wValueLo);
 407              		.loc 1 232 0
 408 034c 46F20203 		movw	r3, #24578
 409 0350 C4F20003 		movt	r3, 16384
 410 0354 1B78     		ldrb	r3, [r3, #0]
 411 0356 DAB2     		uxtb	r2, r3
 412 0358 40F20003 		movw	r3, #:lower16:USBFS_deviceAddress
 413 035c C0F20003 		movt	r3, #:upper16:USBFS_deviceAddress
 414 0360 1A70     		strb	r2, [r3, #0]
 233:.\Generated_Source\PSoC5/USBFS_std.c ****                 requestHandled = USBFS_InitNoDataControlTransfer();
 415              		.loc 1 233 0
 416 0362 FFF7FEFF 		bl	USBFS_InitNoDataControlTransfer
 417 0366 0346     		mov	r3, r0
 418 0368 FB75     		strb	r3, [r7, #23]
 234:.\Generated_Source\PSoC5/USBFS_std.c ****                 break;
 419              		.loc 1 234 0
 420 036a 3FE1     		b	.L21
 421              	.L26:
 235:.\Generated_Source\PSoC5/USBFS_std.c ****             case USBFS_SET_CONFIGURATION:
 236:.\Generated_Source\PSoC5/USBFS_std.c ****                 configurationN = CY_GET_REG8(USBFS_wValueLo);
 422              		.loc 1 236 0
ARM GAS  C:\Users\VICTOR~1\AppData\Local\Temp\ccl24Kua.s 			page 13


 423 036c 46F20203 		movw	r3, #24578
 424 0370 C4F20003 		movt	r3, 16384
 425 0374 1B78     		ldrb	r3, [r3, #0]
 426 0376 BB71     		strb	r3, [r7, #6]
 237:.\Generated_Source\PSoC5/USBFS_std.c ****                 if(configurationN > 0)
 427              		.loc 1 237 0
 428 0378 BB79     		ldrb	r3, [r7, #6]	@ zero_extendqisi2
 429 037a 002B     		cmp	r3, #0
 430 037c 07D0     		beq	.L29
 238:.\Generated_Source\PSoC5/USBFS_std.c ****                 {   /* Verify that configuration descriptor exists */
 239:.\Generated_Source\PSoC5/USBFS_std.c ****                     pTmp = USBFS_GetConfigTablePtr(configurationN - 1u);
 431              		.loc 1 239 0
 432 037e BB79     		ldrb	r3, [r7, #6]
 433 0380 03F1FF33 		add	r3, r3, #-1
 434 0384 DBB2     		uxtb	r3, r3
 435 0386 1846     		mov	r0, r3
 436 0388 FFF7FEFF 		bl	USBFS_GetConfigTablePtr
 437 038c B860     		str	r0, [r7, #8]
 438              	.L29:
 240:.\Generated_Source\PSoC5/USBFS_std.c ****                 }
 241:.\Generated_Source\PSoC5/USBFS_std.c ****                 /* Responds with a Request Error when configuration number is invalid */
 242:.\Generated_Source\PSoC5/USBFS_std.c ****                 if (((configurationN > 0) && (pTmp != NULL)) || (configurationN == 0u))
 439              		.loc 1 242 0
 440 038e BB79     		ldrb	r3, [r7, #6]	@ zero_extendqisi2
 441 0390 002B     		cmp	r3, #0
 442 0392 02D0     		beq	.L30
 443              		.loc 1 242 0 is_stmt 0 discriminator 1
 444 0394 BB68     		ldr	r3, [r7, #8]
 445 0396 002B     		cmp	r3, #0
 446 0398 03D1     		bne	.L31
 447              	.L30:
 448              		.loc 1 242 0 discriminator 2
 449 039a BB79     		ldrb	r3, [r7, #6]	@ zero_extendqisi2
 450 039c 002B     		cmp	r3, #0
 451 039e 40F02281 		bne	.L58
 452              	.L31:
 243:.\Generated_Source\PSoC5/USBFS_std.c ****                 {
 244:.\Generated_Source\PSoC5/USBFS_std.c ****                     /* Set new configuration if it has been changed */
 245:.\Generated_Source\PSoC5/USBFS_std.c ****                     if(configurationN != USBFS_configuration)        
 453              		.loc 1 245 0 is_stmt 1
 454 03a2 40F20003 		movw	r3, #:lower16:USBFS_configuration
 455 03a6 C0F20003 		movt	r3, #:upper16:USBFS_configuration
 456 03aa 1B78     		ldrb	r3, [r3, #0]
 457 03ac DBB2     		uxtb	r3, r3
 458 03ae BA79     		ldrb	r2, [r7, #6]	@ zero_extendqisi2
 459 03b0 9A42     		cmp	r2, r3
 460 03b2 10D0     		beq	.L33
 246:.\Generated_Source\PSoC5/USBFS_std.c ****                     {
 247:.\Generated_Source\PSoC5/USBFS_std.c ****                         USBFS_configuration = configurationN;
 461              		.loc 1 247 0
 462 03b4 40F20003 		movw	r3, #:lower16:USBFS_configuration
 463 03b8 C0F20003 		movt	r3, #:upper16:USBFS_configuration
 464 03bc BA79     		ldrb	r2, [r7, #6]
 465 03be 1A70     		strb	r2, [r3, #0]
 248:.\Generated_Source\PSoC5/USBFS_std.c ****                         USBFS_configurationChanged = USBFS_TRUE;
 466              		.loc 1 248 0
 467 03c0 40F20003 		movw	r3, #:lower16:USBFS_configurationChanged
ARM GAS  C:\Users\VICTOR~1\AppData\Local\Temp\ccl24Kua.s 			page 14


 468 03c4 C0F20003 		movt	r3, #:upper16:USBFS_configurationChanged
 469 03c8 4FF00102 		mov	r2, #1
 470 03cc 1A70     		strb	r2, [r3, #0]
 249:.\Generated_Source\PSoC5/USBFS_std.c ****                         USBFS_Config(USBFS_TRUE);
 471              		.loc 1 249 0
 472 03ce 4FF00100 		mov	r0, #1
 473 03d2 FFF7FEFF 		bl	USBFS_Config
 474              	.L33:
 250:.\Generated_Source\PSoC5/USBFS_std.c ****                     }
 251:.\Generated_Source\PSoC5/USBFS_std.c ****                     requestHandled = USBFS_InitNoDataControlTransfer();
 475              		.loc 1 251 0
 476 03d6 FFF7FEFF 		bl	USBFS_InitNoDataControlTransfer
 477 03da 0346     		mov	r3, r0
 478 03dc FB75     		strb	r3, [r7, #23]
 252:.\Generated_Source\PSoC5/USBFS_std.c ****                 }
 253:.\Generated_Source\PSoC5/USBFS_std.c ****                 break;
 479              		.loc 1 253 0
 480 03de 02E1     		b	.L58
 481              	.L27:
 254:.\Generated_Source\PSoC5/USBFS_std.c ****             case USBFS_SET_INTERFACE:
 255:.\Generated_Source\PSoC5/USBFS_std.c ****                 if (USBFS_ValidateAlternateSetting() != 0u)
 482              		.loc 1 255 0
 483 03e0 FFF7FEFF 		bl	USBFS_ValidateAlternateSetting
 484 03e4 0346     		mov	r3, r0
 485 03e6 002B     		cmp	r3, #0
 486 03e8 00F0FF80 		beq	.L59
 256:.\Generated_Source\PSoC5/USBFS_std.c ****                 {
 257:.\Generated_Source\PSoC5/USBFS_std.c ****                     interfaceNumber = CY_GET_REG8(USBFS_wIndexLo);
 487              		.loc 1 257 0
 488 03ec 46F20403 		movw	r3, #24580
 489 03f0 C4F20003 		movt	r3, 16384
 490 03f4 1B78     		ldrb	r3, [r3, #0]
 491 03f6 7B71     		strb	r3, [r7, #5]
 258:.\Generated_Source\PSoC5/USBFS_std.c ****                     USBFS_interfaceNumber = interfaceNumber;
 492              		.loc 1 258 0
 493 03f8 40F20003 		movw	r3, #:lower16:USBFS_interfaceNumber
 494 03fc C0F20003 		movt	r3, #:upper16:USBFS_interfaceNumber
 495 0400 7A79     		ldrb	r2, [r7, #5]
 496 0402 1A70     		strb	r2, [r3, #0]
 259:.\Generated_Source\PSoC5/USBFS_std.c ****                     USBFS_configurationChanged = USBFS_TRUE;
 497              		.loc 1 259 0
 498 0404 40F20003 		movw	r3, #:lower16:USBFS_configurationChanged
 499 0408 C0F20003 		movt	r3, #:upper16:USBFS_configurationChanged
 500 040c 4FF00102 		mov	r2, #1
 501 0410 1A70     		strb	r2, [r3, #0]
 260:.\Generated_Source\PSoC5/USBFS_std.c ****                     #if ((USBFS_EP_MA == USBFS__MA_DYNAMIC) && \
 261:.\Generated_Source\PSoC5/USBFS_std.c ****                          (USBFS_EP_MM == USBFS__EP_MANUAL) )
 262:.\Generated_Source\PSoC5/USBFS_std.c ****                         USBFS_Config(USBFS_FALSE);
 263:.\Generated_Source\PSoC5/USBFS_std.c ****                     #else
 264:.\Generated_Source\PSoC5/USBFS_std.c ****                         USBFS_ConfigAltChanged();
 502              		.loc 1 264 0
 503 0412 FFF7FEFF 		bl	USBFS_ConfigAltChanged
 265:.\Generated_Source\PSoC5/USBFS_std.c ****                     #endif /*  (USBFS_EP_MA == USBFS__MA_DYNAMIC) */
 266:.\Generated_Source\PSoC5/USBFS_std.c ****                     /* Update handled Alt setting changes status */
 267:.\Generated_Source\PSoC5/USBFS_std.c ****                     USBFS_interfaceSetting_last[interfaceNumber] =
 504              		.loc 1 267 0
 505 0416 7A79     		ldrb	r2, [r7, #5]	@ zero_extendqisi2
ARM GAS  C:\Users\VICTOR~1\AppData\Local\Temp\ccl24Kua.s 			page 15


 268:.\Generated_Source\PSoC5/USBFS_std.c ****                          USBFS_interfaceSetting[interfaceNumber];
 506              		.loc 1 268 0
 507 0418 7979     		ldrb	r1, [r7, #5]	@ zero_extendqisi2
 508 041a 40F20003 		movw	r3, #:lower16:USBFS_interfaceSetting
 509 041e C0F20003 		movt	r3, #:upper16:USBFS_interfaceSetting
 510 0422 5B5C     		ldrb	r3, [r3, r1]
 511 0424 D9B2     		uxtb	r1, r3
 267:.\Generated_Source\PSoC5/USBFS_std.c ****                     USBFS_interfaceSetting_last[interfaceNumber] =
 512              		.loc 1 267 0
 513 0426 40F20003 		movw	r3, #:lower16:USBFS_interfaceSetting_last
 514 042a C0F20003 		movt	r3, #:upper16:USBFS_interfaceSetting_last
 515 042e 9954     		strb	r1, [r3, r2]
 269:.\Generated_Source\PSoC5/USBFS_std.c ****                     requestHandled = USBFS_InitNoDataControlTransfer();
 516              		.loc 1 269 0
 517 0430 FFF7FEFF 		bl	USBFS_InitNoDataControlTransfer
 518 0434 0346     		mov	r3, r0
 519 0436 FB75     		strb	r3, [r7, #23]
 270:.\Generated_Source\PSoC5/USBFS_std.c ****                 }
 271:.\Generated_Source\PSoC5/USBFS_std.c ****                 break;
 520              		.loc 1 271 0
 521 0438 D7E0     		b	.L59
 522              	.L23:
 272:.\Generated_Source\PSoC5/USBFS_std.c ****             case USBFS_CLEAR_FEATURE:
 273:.\Generated_Source\PSoC5/USBFS_std.c ****                 switch (CY_GET_REG8(USBFS_bmRequestType) & USBFS_RQST_RCPT_MASK)
 523              		.loc 1 273 0
 524 043a 4FF4C043 		mov	r3, #24576
 525 043e C4F20003 		movt	r3, 16384
 526 0442 1B78     		ldrb	r3, [r3, #0]
 527 0444 DBB2     		uxtb	r3, r3
 528 0446 03F00303 		and	r3, r3, #3
 529 044a 012B     		cmp	r3, #1
 530 044c 2BD0     		beq	.L37
 531 044e 012B     		cmp	r3, #1
 532 0450 0ED3     		bcc	.L36
 533 0452 022B     		cmp	r3, #2
 534 0454 52D1     		bne	.L53
 535              	.L38:
 274:.\Generated_Source\PSoC5/USBFS_std.c ****                 {
 275:.\Generated_Source\PSoC5/USBFS_std.c ****                     case USBFS_RQST_RCPT_EP:
 276:.\Generated_Source\PSoC5/USBFS_std.c ****                         if (CY_GET_REG8(USBFS_wValueLo) == USBFS_ENDPOINT_HALT)
 536              		.loc 1 276 0
 537 0456 46F20203 		movw	r3, #24578
 538 045a C4F20003 		movt	r3, 16384
 539 045e 1B78     		ldrb	r3, [r3, #0]
 540 0460 DBB2     		uxtb	r3, r3
 541 0462 002B     		cmp	r3, #0
 542 0464 4BD1     		bne	.L60
 277:.\Generated_Source\PSoC5/USBFS_std.c ****                         {
 278:.\Generated_Source\PSoC5/USBFS_std.c ****                             requestHandled = USBFS_ClearEndpointHalt();
 543              		.loc 1 278 0
 544 0466 FFF7FEFF 		bl	USBFS_ClearEndpointHalt
 545 046a 0346     		mov	r3, r0
 546 046c FB75     		strb	r3, [r7, #23]
 279:.\Generated_Source\PSoC5/USBFS_std.c ****                         }
 280:.\Generated_Source\PSoC5/USBFS_std.c ****                         break;
 547              		.loc 1 280 0
 548 046e 46E0     		b	.L60
ARM GAS  C:\Users\VICTOR~1\AppData\Local\Temp\ccl24Kua.s 			page 16


 549              	.L36:
 281:.\Generated_Source\PSoC5/USBFS_std.c ****                     case USBFS_RQST_RCPT_DEV:
 282:.\Generated_Source\PSoC5/USBFS_std.c ****                         /* Clear device REMOTE_WAKEUP */
 283:.\Generated_Source\PSoC5/USBFS_std.c ****                         if (CY_GET_REG8(USBFS_wValueLo) == USBFS_DEVICE_REMOTE_WAKEUP)
 550              		.loc 1 283 0
 551 0470 46F20203 		movw	r3, #24578
 552 0474 C4F20003 		movt	r3, 16384
 553 0478 1B78     		ldrb	r3, [r3, #0]
 554 047a DBB2     		uxtb	r3, r3
 555 047c 012B     		cmp	r3, #1
 556 047e 40D1     		bne	.L61
 284:.\Generated_Source\PSoC5/USBFS_std.c ****                         {
 285:.\Generated_Source\PSoC5/USBFS_std.c ****                             USBFS_deviceStatus &= (uint8)~USBFS_DEVICE_STATUS_REMOTE_WAKEUP;
 557              		.loc 1 285 0
 558 0480 40F20003 		movw	r3, #:lower16:USBFS_deviceStatus
 559 0484 C0F20003 		movt	r3, #:upper16:USBFS_deviceStatus
 560 0488 1B78     		ldrb	r3, [r3, #0]
 561 048a DBB2     		uxtb	r3, r3
 562 048c 23F00203 		bic	r3, r3, #2
 563 0490 DAB2     		uxtb	r2, r3
 564 0492 40F20003 		movw	r3, #:lower16:USBFS_deviceStatus
 565 0496 C0F20003 		movt	r3, #:upper16:USBFS_deviceStatus
 566 049a 1A70     		strb	r2, [r3, #0]
 286:.\Generated_Source\PSoC5/USBFS_std.c ****                             requestHandled = USBFS_InitNoDataControlTransfer();
 567              		.loc 1 286 0
 568 049c FFF7FEFF 		bl	USBFS_InitNoDataControlTransfer
 569 04a0 0346     		mov	r3, r0
 570 04a2 FB75     		strb	r3, [r7, #23]
 287:.\Generated_Source\PSoC5/USBFS_std.c ****                         }
 288:.\Generated_Source\PSoC5/USBFS_std.c ****                         break;
 571              		.loc 1 288 0
 572 04a4 2DE0     		b	.L61
 573              	.L37:
 289:.\Generated_Source\PSoC5/USBFS_std.c ****                     case USBFS_RQST_RCPT_IFC:
 290:.\Generated_Source\PSoC5/USBFS_std.c ****                         /* Validate interfaceNumber */
 291:.\Generated_Source\PSoC5/USBFS_std.c ****                         if (CY_GET_REG8(USBFS_wIndexLo) < USBFS_MAX_INTERFACES_NUMBER)
 574              		.loc 1 291 0
 575 04a6 46F20403 		movw	r3, #24580
 576 04aa C4F20003 		movt	r3, 16384
 577 04ae 1B78     		ldrb	r3, [r3, #0]
 578 04b0 DBB2     		uxtb	r3, r3
 579 04b2 002B     		cmp	r3, #0
 580 04b4 27D1     		bne	.L62
 292:.\Generated_Source\PSoC5/USBFS_std.c ****                         {
 293:.\Generated_Source\PSoC5/USBFS_std.c ****                             USBFS_interfaceStatus[CY_GET_REG8(USBFS_wIndexLo)] &=
 581              		.loc 1 293 0
 582 04b6 46F20403 		movw	r3, #24580
 583 04ba C4F20003 		movt	r3, 16384
 584 04be 1B78     		ldrb	r3, [r3, #0]
 585 04c0 DBB2     		uxtb	r3, r3
 586 04c2 1A46     		mov	r2, r3
 587 04c4 1946     		mov	r1, r3
 588 04c6 40F20003 		movw	r3, #:lower16:USBFS_interfaceStatus
 589 04ca C0F20003 		movt	r3, #:upper16:USBFS_interfaceStatus
 590 04ce 5B5C     		ldrb	r3, [r3, r1]
 591 04d0 D9B2     		uxtb	r1, r3
 294:.\Generated_Source\PSoC5/USBFS_std.c ****                                                                 (uint8)~(CY_GET_REG8(USBFS_wValueLo
ARM GAS  C:\Users\VICTOR~1\AppData\Local\Temp\ccl24Kua.s 			page 17


 592              		.loc 1 294 0
 593 04d2 46F20203 		movw	r3, #24578
 594 04d6 C4F20003 		movt	r3, 16384
 595 04da 1B78     		ldrb	r3, [r3, #0]
 596 04dc DBB2     		uxtb	r3, r3
 597 04de 6FEA0303 		mvn	r3, r3
 598 04e2 DBB2     		uxtb	r3, r3
 293:.\Generated_Source\PSoC5/USBFS_std.c ****                             USBFS_interfaceStatus[CY_GET_REG8(USBFS_wIndexLo)] &=
 599              		.loc 1 293 0
 600 04e4 0B40     		ands	r3, r3, r1
 601 04e6 D9B2     		uxtb	r1, r3
 602 04e8 40F20003 		movw	r3, #:lower16:USBFS_interfaceStatus
 603 04ec C0F20003 		movt	r3, #:upper16:USBFS_interfaceStatus
 604 04f0 9954     		strb	r1, [r3, r2]
 295:.\Generated_Source\PSoC5/USBFS_std.c ****                             requestHandled = USBFS_InitNoDataControlTransfer();
 605              		.loc 1 295 0
 606 04f2 FFF7FEFF 		bl	USBFS_InitNoDataControlTransfer
 607 04f6 0346     		mov	r3, r0
 608 04f8 FB75     		strb	r3, [r7, #23]
 296:.\Generated_Source\PSoC5/USBFS_std.c ****                         }
 297:.\Generated_Source\PSoC5/USBFS_std.c ****                         break;
 609              		.loc 1 297 0
 610 04fa 04E0     		b	.L62
 611              	.L53:
 298:.\Generated_Source\PSoC5/USBFS_std.c ****                     default:    /* requestHandled is initialized as FALSE by default */
 299:.\Generated_Source\PSoC5/USBFS_std.c ****                         break;
 612              		.loc 1 299 0
 613 04fc 04E0     		b	.L40
 614              	.L60:
 280:.\Generated_Source\PSoC5/USBFS_std.c ****                         break;
 615              		.loc 1 280 0
 616 04fe 00BF     		nop
 617 0500 02E0     		b	.L40
 618              	.L61:
 288:.\Generated_Source\PSoC5/USBFS_std.c ****                         break;
 619              		.loc 1 288 0
 620 0502 00BF     		nop
 621 0504 00E0     		b	.L40
 622              	.L62:
 297:.\Generated_Source\PSoC5/USBFS_std.c ****                         break;
 623              		.loc 1 297 0
 624 0506 00BF     		nop
 625              	.L40:
 300:.\Generated_Source\PSoC5/USBFS_std.c ****                 }
 301:.\Generated_Source\PSoC5/USBFS_std.c ****                 break;
 626              		.loc 1 301 0
 627 0508 70E0     		b	.L21
 628              	.L24:
 302:.\Generated_Source\PSoC5/USBFS_std.c ****             case USBFS_SET_FEATURE:
 303:.\Generated_Source\PSoC5/USBFS_std.c ****                 switch (CY_GET_REG8(USBFS_bmRequestType) & USBFS_RQST_RCPT_MASK)
 629              		.loc 1 303 0
 630 050a 4FF4C043 		mov	r3, #24576
 631 050e C4F20003 		movt	r3, 16384
 632 0512 1B78     		ldrb	r3, [r3, #0]
 633 0514 DBB2     		uxtb	r3, r3
 634 0516 03F00303 		and	r3, r3, #3
 635 051a 012B     		cmp	r3, #1
ARM GAS  C:\Users\VICTOR~1\AppData\Local\Temp\ccl24Kua.s 			page 18


 636 051c 2BD0     		beq	.L45
 637 051e 012B     		cmp	r3, #1
 638 0520 0ED3     		bcc	.L44
 639 0522 022B     		cmp	r3, #2
 640 0524 52D1     		bne	.L54
 641              	.L46:
 304:.\Generated_Source\PSoC5/USBFS_std.c ****                 {
 305:.\Generated_Source\PSoC5/USBFS_std.c ****                     case USBFS_RQST_RCPT_EP:
 306:.\Generated_Source\PSoC5/USBFS_std.c ****                         if (CY_GET_REG8(USBFS_wValueLo) == USBFS_ENDPOINT_HALT)
 642              		.loc 1 306 0
 643 0526 46F20203 		movw	r3, #24578
 644 052a C4F20003 		movt	r3, 16384
 645 052e 1B78     		ldrb	r3, [r3, #0]
 646 0530 DBB2     		uxtb	r3, r3
 647 0532 002B     		cmp	r3, #0
 648 0534 4BD1     		bne	.L63
 307:.\Generated_Source\PSoC5/USBFS_std.c ****                         {
 308:.\Generated_Source\PSoC5/USBFS_std.c ****                             requestHandled = USBFS_SetEndpointHalt();
 649              		.loc 1 308 0
 650 0536 FFF7FEFF 		bl	USBFS_SetEndpointHalt
 651 053a 0346     		mov	r3, r0
 652 053c FB75     		strb	r3, [r7, #23]
 309:.\Generated_Source\PSoC5/USBFS_std.c ****                         }
 310:.\Generated_Source\PSoC5/USBFS_std.c ****                         break;
 653              		.loc 1 310 0
 654 053e 46E0     		b	.L63
 655              	.L44:
 311:.\Generated_Source\PSoC5/USBFS_std.c ****                     case USBFS_RQST_RCPT_DEV:
 312:.\Generated_Source\PSoC5/USBFS_std.c ****                         /* Set device REMOTE_WAKEUP */
 313:.\Generated_Source\PSoC5/USBFS_std.c ****                         if (CY_GET_REG8(USBFS_wValueLo) == USBFS_DEVICE_REMOTE_WAKEUP)
 656              		.loc 1 313 0
 657 0540 46F20203 		movw	r3, #24578
 658 0544 C4F20003 		movt	r3, 16384
 659 0548 1B78     		ldrb	r3, [r3, #0]
 660 054a DBB2     		uxtb	r3, r3
 661 054c 012B     		cmp	r3, #1
 662 054e 40D1     		bne	.L64
 314:.\Generated_Source\PSoC5/USBFS_std.c ****                         {
 315:.\Generated_Source\PSoC5/USBFS_std.c ****                             USBFS_deviceStatus |= USBFS_DEVICE_STATUS_REMOTE_WAKEUP;
 663              		.loc 1 315 0
 664 0550 40F20003 		movw	r3, #:lower16:USBFS_deviceStatus
 665 0554 C0F20003 		movt	r3, #:upper16:USBFS_deviceStatus
 666 0558 1B78     		ldrb	r3, [r3, #0]
 667 055a DBB2     		uxtb	r3, r3
 668 055c 43F00203 		orr	r3, r3, #2
 669 0560 DAB2     		uxtb	r2, r3
 670 0562 40F20003 		movw	r3, #:lower16:USBFS_deviceStatus
 671 0566 C0F20003 		movt	r3, #:upper16:USBFS_deviceStatus
 672 056a 1A70     		strb	r2, [r3, #0]
 316:.\Generated_Source\PSoC5/USBFS_std.c ****                             requestHandled = USBFS_InitNoDataControlTransfer();
 673              		.loc 1 316 0
 674 056c FFF7FEFF 		bl	USBFS_InitNoDataControlTransfer
 675 0570 0346     		mov	r3, r0
 676 0572 FB75     		strb	r3, [r7, #23]
 317:.\Generated_Source\PSoC5/USBFS_std.c ****                         }
 318:.\Generated_Source\PSoC5/USBFS_std.c ****                         break;
 677              		.loc 1 318 0
ARM GAS  C:\Users\VICTOR~1\AppData\Local\Temp\ccl24Kua.s 			page 19


 678 0574 2DE0     		b	.L64
 679              	.L45:
 319:.\Generated_Source\PSoC5/USBFS_std.c ****                     case USBFS_RQST_RCPT_IFC:
 320:.\Generated_Source\PSoC5/USBFS_std.c ****                         /* Validate interfaceNumber */
 321:.\Generated_Source\PSoC5/USBFS_std.c ****                         if (CY_GET_REG8(USBFS_wIndexLo) < USBFS_MAX_INTERFACES_NUMBER)
 680              		.loc 1 321 0
 681 0576 46F20403 		movw	r3, #24580
 682 057a C4F20003 		movt	r3, 16384
 683 057e 1B78     		ldrb	r3, [r3, #0]
 684 0580 DBB2     		uxtb	r3, r3
 685 0582 002B     		cmp	r3, #0
 686 0584 27D1     		bne	.L65
 322:.\Generated_Source\PSoC5/USBFS_std.c ****                         {
 323:.\Generated_Source\PSoC5/USBFS_std.c ****                             USBFS_interfaceStatus[CY_GET_REG8(USBFS_wIndexLo)] &=
 687              		.loc 1 323 0
 688 0586 46F20403 		movw	r3, #24580
 689 058a C4F20003 		movt	r3, 16384
 690 058e 1B78     		ldrb	r3, [r3, #0]
 691 0590 DBB2     		uxtb	r3, r3
 692 0592 1A46     		mov	r2, r3
 693 0594 1946     		mov	r1, r3
 694 0596 40F20003 		movw	r3, #:lower16:USBFS_interfaceStatus
 695 059a C0F20003 		movt	r3, #:upper16:USBFS_interfaceStatus
 696 059e 5B5C     		ldrb	r3, [r3, r1]
 697 05a0 D9B2     		uxtb	r1, r3
 324:.\Generated_Source\PSoC5/USBFS_std.c ****                                                                 (uint8)~(CY_GET_REG8(USBFS_wValueLo
 698              		.loc 1 324 0
 699 05a2 46F20203 		movw	r3, #24578
 700 05a6 C4F20003 		movt	r3, 16384
 701 05aa 1B78     		ldrb	r3, [r3, #0]
 702 05ac DBB2     		uxtb	r3, r3
 703 05ae 6FEA0303 		mvn	r3, r3
 704 05b2 DBB2     		uxtb	r3, r3
 323:.\Generated_Source\PSoC5/USBFS_std.c ****                             USBFS_interfaceStatus[CY_GET_REG8(USBFS_wIndexLo)] &=
 705              		.loc 1 323 0
 706 05b4 0B40     		ands	r3, r3, r1
 707 05b6 D9B2     		uxtb	r1, r3
 708 05b8 40F20003 		movw	r3, #:lower16:USBFS_interfaceStatus
 709 05bc C0F20003 		movt	r3, #:upper16:USBFS_interfaceStatus
 710 05c0 9954     		strb	r1, [r3, r2]
 325:.\Generated_Source\PSoC5/USBFS_std.c ****                             requestHandled = USBFS_InitNoDataControlTransfer();
 711              		.loc 1 325 0
 712 05c2 FFF7FEFF 		bl	USBFS_InitNoDataControlTransfer
 713 05c6 0346     		mov	r3, r0
 714 05c8 FB75     		strb	r3, [r7, #23]
 326:.\Generated_Source\PSoC5/USBFS_std.c ****                         }
 327:.\Generated_Source\PSoC5/USBFS_std.c ****                         break;
 715              		.loc 1 327 0
 716 05ca 04E0     		b	.L65
 717              	.L54:
 328:.\Generated_Source\PSoC5/USBFS_std.c ****                     default:    /* requestHandled is initialized as FALSE by default */
 329:.\Generated_Source\PSoC5/USBFS_std.c ****                         break;
 718              		.loc 1 329 0
 719 05cc 04E0     		b	.L48
 720              	.L63:
 310:.\Generated_Source\PSoC5/USBFS_std.c ****                         break;
 721              		.loc 1 310 0
ARM GAS  C:\Users\VICTOR~1\AppData\Local\Temp\ccl24Kua.s 			page 20


 722 05ce 00BF     		nop
 723 05d0 02E0     		b	.L48
 724              	.L64:
 318:.\Generated_Source\PSoC5/USBFS_std.c ****                         break;
 725              		.loc 1 318 0
 726 05d2 00BF     		nop
 727 05d4 00E0     		b	.L48
 728              	.L65:
 327:.\Generated_Source\PSoC5/USBFS_std.c ****                         break;
 729              		.loc 1 327 0
 730 05d6 00BF     		nop
 731              	.L48:
 330:.\Generated_Source\PSoC5/USBFS_std.c ****                 }
 331:.\Generated_Source\PSoC5/USBFS_std.c ****                 break;
 732              		.loc 1 331 0
 733 05d8 08E0     		b	.L21
 734              	.L55:
 224:.\Generated_Source\PSoC5/USBFS_std.c ****                 break;
 735              		.loc 1 224 0
 736 05da 00BF     		nop
 737 05dc 06E0     		b	.L21
 738              	.L56:
 189:.\Generated_Source\PSoC5/USBFS_std.c ****                 break;
 739              		.loc 1 189 0
 740 05de 00BF     		nop
 741 05e0 04E0     		b	.L21
 742              	.L57:
 332:.\Generated_Source\PSoC5/USBFS_std.c ****             default:    /* requestHandled is initialized as FALSE by default */
 333:.\Generated_Source\PSoC5/USBFS_std.c ****                 break;
 743              		.loc 1 333 0
 744 05e2 00BF     		nop
 745 05e4 02E0     		b	.L21
 746              	.L58:
 253:.\Generated_Source\PSoC5/USBFS_std.c ****                 break;
 747              		.loc 1 253 0
 748 05e6 00BF     		nop
 749 05e8 00E0     		b	.L21
 750              	.L59:
 271:.\Generated_Source\PSoC5/USBFS_std.c ****                 break;
 751              		.loc 1 271 0
 752 05ea 00BF     		nop
 753              	.L21:
 334:.\Generated_Source\PSoC5/USBFS_std.c ****         }
 335:.\Generated_Source\PSoC5/USBFS_std.c ****     }
 336:.\Generated_Source\PSoC5/USBFS_std.c ****     return(requestHandled);
 754              		.loc 1 336 0
 755 05ec FB7D     		ldrb	r3, [r7, #23]	@ zero_extendqisi2
 337:.\Generated_Source\PSoC5/USBFS_std.c **** }
 756              		.loc 1 337 0
 757 05ee 1846     		mov	r0, r3
 758 05f0 07F11807 		add	r7, r7, #24
 759 05f4 BD46     		mov	sp, r7
 760 05f6 80BD     		pop	{r7, pc}
 761              		.cfi_endproc
 762              	.LFE0:
 763              		.size	USBFS_HandleStandardRqst, .-USBFS_HandleStandardRqst
 764              		.section	.text.USBFS_ConfigReg,"ax",%progbits
ARM GAS  C:\Users\VICTOR~1\AppData\Local\Temp\ccl24Kua.s 			page 21


 765              		.align	2
 766              		.global	USBFS_ConfigReg
 767              		.thumb
 768              		.thumb_func
 769              		.type	USBFS_ConfigReg, %function
 770              	USBFS_ConfigReg:
 771              	.LFB1:
 338:.\Generated_Source\PSoC5/USBFS_std.c **** 
 339:.\Generated_Source\PSoC5/USBFS_std.c **** 
 340:.\Generated_Source\PSoC5/USBFS_std.c **** #if defined(USBFS_ENABLE_IDSN_STRING)
 341:.\Generated_Source\PSoC5/USBFS_std.c **** 
 342:.\Generated_Source\PSoC5/USBFS_std.c ****     /***************************************************************************
 343:.\Generated_Source\PSoC5/USBFS_std.c ****     * Function Name: USBFS_ReadDieID
 344:.\Generated_Source\PSoC5/USBFS_std.c ****     ****************************************************************************
 345:.\Generated_Source\PSoC5/USBFS_std.c ****     *
 346:.\Generated_Source\PSoC5/USBFS_std.c ****     * Summary:
 347:.\Generated_Source\PSoC5/USBFS_std.c ****     *  This routine read Die ID and generate Serial Number string descriptor.
 348:.\Generated_Source\PSoC5/USBFS_std.c ****     *
 349:.\Generated_Source\PSoC5/USBFS_std.c ****     * Parameters:
 350:.\Generated_Source\PSoC5/USBFS_std.c ****     *  descr:  pointer on string descriptor.
 351:.\Generated_Source\PSoC5/USBFS_std.c ****     *
 352:.\Generated_Source\PSoC5/USBFS_std.c ****     * Return:
 353:.\Generated_Source\PSoC5/USBFS_std.c ****     *  None.
 354:.\Generated_Source\PSoC5/USBFS_std.c ****     *
 355:.\Generated_Source\PSoC5/USBFS_std.c ****     * Reentrant:
 356:.\Generated_Source\PSoC5/USBFS_std.c ****     *  No.
 357:.\Generated_Source\PSoC5/USBFS_std.c ****     *
 358:.\Generated_Source\PSoC5/USBFS_std.c ****     ***************************************************************************/
 359:.\Generated_Source\PSoC5/USBFS_std.c ****     void USBFS_ReadDieID(uint8 descr[]) 
 360:.\Generated_Source\PSoC5/USBFS_std.c ****     {
 361:.\Generated_Source\PSoC5/USBFS_std.c ****         uint8 i;
 362:.\Generated_Source\PSoC5/USBFS_std.c ****         uint8 j = 0u;
 363:.\Generated_Source\PSoC5/USBFS_std.c ****         uint8 value;
 364:.\Generated_Source\PSoC5/USBFS_std.c ****         const char8 CYCODE hex[16u] = "0123456789ABCDEF";
 365:.\Generated_Source\PSoC5/USBFS_std.c **** 
 366:.\Generated_Source\PSoC5/USBFS_std.c ****         /* Check descriptor validation */
 367:.\Generated_Source\PSoC5/USBFS_std.c ****         if( descr != NULL)
 368:.\Generated_Source\PSoC5/USBFS_std.c ****         {
 369:.\Generated_Source\PSoC5/USBFS_std.c ****             descr[0u] = USBFS_IDSN_DESCR_LENGTH;
 370:.\Generated_Source\PSoC5/USBFS_std.c ****             descr[1u] = USBFS_DESCR_STRING;
 371:.\Generated_Source\PSoC5/USBFS_std.c **** 
 372:.\Generated_Source\PSoC5/USBFS_std.c ****             /* fill descriptor */
 373:.\Generated_Source\PSoC5/USBFS_std.c ****             for(i = 2u; i < USBFS_IDSN_DESCR_LENGTH; i += 4u)
 374:.\Generated_Source\PSoC5/USBFS_std.c ****             {
 375:.\Generated_Source\PSoC5/USBFS_std.c ****                 value = CY_GET_XTND_REG8((void CYFAR *)(USBFS_DIE_ID + j));
 376:.\Generated_Source\PSoC5/USBFS_std.c ****                 j++;
 377:.\Generated_Source\PSoC5/USBFS_std.c ****                 descr[i] = (uint8)hex[value >> 4u];
 378:.\Generated_Source\PSoC5/USBFS_std.c ****                 descr[i + 2u] = (uint8)hex[value & 0x0Fu];
 379:.\Generated_Source\PSoC5/USBFS_std.c ****             }
 380:.\Generated_Source\PSoC5/USBFS_std.c ****         }
 381:.\Generated_Source\PSoC5/USBFS_std.c ****     }
 382:.\Generated_Source\PSoC5/USBFS_std.c **** 
 383:.\Generated_Source\PSoC5/USBFS_std.c **** #endif /*  USBFS_ENABLE_IDSN_STRING */
 384:.\Generated_Source\PSoC5/USBFS_std.c **** 
 385:.\Generated_Source\PSoC5/USBFS_std.c **** 
 386:.\Generated_Source\PSoC5/USBFS_std.c **** /*******************************************************************************
 387:.\Generated_Source\PSoC5/USBFS_std.c **** * Function Name: USBFS_ConfigReg
ARM GAS  C:\Users\VICTOR~1\AppData\Local\Temp\ccl24Kua.s 			page 22


 388:.\Generated_Source\PSoC5/USBFS_std.c **** ********************************************************************************
 389:.\Generated_Source\PSoC5/USBFS_std.c **** *
 390:.\Generated_Source\PSoC5/USBFS_std.c **** * Summary:
 391:.\Generated_Source\PSoC5/USBFS_std.c **** *  This routine configures hardware registers from the variables.
 392:.\Generated_Source\PSoC5/USBFS_std.c **** *  It is called from USBFS_Config() function and from RestoreConfig
 393:.\Generated_Source\PSoC5/USBFS_std.c **** *  after Wakeup.
 394:.\Generated_Source\PSoC5/USBFS_std.c **** *
 395:.\Generated_Source\PSoC5/USBFS_std.c **** * Parameters:
 396:.\Generated_Source\PSoC5/USBFS_std.c **** *  None.
 397:.\Generated_Source\PSoC5/USBFS_std.c **** *
 398:.\Generated_Source\PSoC5/USBFS_std.c **** * Return:
 399:.\Generated_Source\PSoC5/USBFS_std.c **** *  None.
 400:.\Generated_Source\PSoC5/USBFS_std.c **** *
 401:.\Generated_Source\PSoC5/USBFS_std.c **** *******************************************************************************/
 402:.\Generated_Source\PSoC5/USBFS_std.c **** void USBFS_ConfigReg(void) 
 403:.\Generated_Source\PSoC5/USBFS_std.c **** {
 772              		.loc 1 403 0
 773              		.cfi_startproc
 774              		@ args = 0, pretend = 0, frame = 8
 775              		@ frame_needed = 1, uses_anonymous_args = 0
 776              		@ link register save eliminated.
 777 0000 80B4     		push	{r7}
 778              	.LCFI3:
 779              		.cfi_def_cfa_offset 4
 780              		.cfi_offset 7, -4
 781 0002 83B0     		sub	sp, sp, #12
 782              	.LCFI4:
 783              		.cfi_def_cfa_offset 16
 784 0004 00AF     		add	r7, sp, #0
 785              	.LCFI5:
 786              		.cfi_def_cfa_register 7
 404:.\Generated_Source\PSoC5/USBFS_std.c ****     uint8 ep;
 405:.\Generated_Source\PSoC5/USBFS_std.c ****     uint8 i;
 406:.\Generated_Source\PSoC5/USBFS_std.c ****     #if(USBFS_EP_MM == USBFS__EP_DMAAUTO)
 407:.\Generated_Source\PSoC5/USBFS_std.c ****         uint8 epType = 0u;
 408:.\Generated_Source\PSoC5/USBFS_std.c ****     #endif /*  USBFS_EP_MM == USBFS__EP_DMAAUTO */
 409:.\Generated_Source\PSoC5/USBFS_std.c **** 
 410:.\Generated_Source\PSoC5/USBFS_std.c ****     /* Set the endpoint buffer addresses */
 411:.\Generated_Source\PSoC5/USBFS_std.c ****     ep = USBFS_EP1;
 787              		.loc 1 411 0
 788 0006 4FF00103 		mov	r3, #1
 789 000a FB71     		strb	r3, [r7, #7]
 412:.\Generated_Source\PSoC5/USBFS_std.c ****     for (i = 0u; i < 0x80u; i+= 0x10u)
 790              		.loc 1 412 0
 791 000c 4FF00003 		mov	r3, #0
 792 0010 BB71     		strb	r3, [r7, #6]
 793 0012 E5E0     		b	.L67
 794              	.L71:
 413:.\Generated_Source\PSoC5/USBFS_std.c ****     {
 414:.\Generated_Source\PSoC5/USBFS_std.c ****         CY_SET_REG8((reg8 *)(USBFS_ARB_EP1_CFG_IND + i), USBFS_ARB_EPX_CFG_DEFAULT);
 795              		.loc 1 414 0
 796 0014 BB79     		ldrb	r3, [r7, #6]	@ zero_extendqisi2
 797 0016 03F18043 		add	r3, r3, #1073741824
 798 001a 03F5C143 		add	r3, r3, #24704
 799 001e 4FF00C02 		mov	r2, #12
 800 0022 1A70     		strb	r2, [r3, #0]
 415:.\Generated_Source\PSoC5/USBFS_std.c ****         #if(USBFS_EP_MM != USBFS__EP_MANUAL)
ARM GAS  C:\Users\VICTOR~1\AppData\Local\Temp\ccl24Kua.s 			page 23


 416:.\Generated_Source\PSoC5/USBFS_std.c ****             /* Enable all Arbiter EP Interrupts : err, buf under, buf over, dma gnt(mode2 only), in
 417:.\Generated_Source\PSoC5/USBFS_std.c ****             CY_SET_REG8((reg8 *)(USBFS_ARB_EP1_INT_EN_IND + i), USBFS_ARB_EPX_INT_MASK);
 418:.\Generated_Source\PSoC5/USBFS_std.c ****         #endif   /*  USBFS_EP_MM != USBFS__EP_MANUAL */
 419:.\Generated_Source\PSoC5/USBFS_std.c **** 
 420:.\Generated_Source\PSoC5/USBFS_std.c ****         if(USBFS_EP[ep].epMode != USBFS_MODE_DISABLE)
 801              		.loc 1 420 0
 802 0024 F979     		ldrb	r1, [r7, #7]	@ zero_extendqisi2
 803 0026 40F20002 		movw	r2, #:lower16:USBFS_EP
 804 002a C0F20002 		movt	r2, #:upper16:USBFS_EP
 805 002e 0B46     		mov	r3, r1
 806 0030 4FEA4303 		lsl	r3, r3, #1
 807 0034 5B18     		adds	r3, r3, r1
 808 0036 4FEA8303 		lsl	r3, r3, #2
 809 003a D318     		adds	r3, r2, r3
 810 003c 5B79     		ldrb	r3, [r3, #5]
 811 003e DBB2     		uxtb	r3, r3
 812 0040 002B     		cmp	r3, #0
 813 0042 25D0     		beq	.L68
 421:.\Generated_Source\PSoC5/USBFS_std.c ****         {
 422:.\Generated_Source\PSoC5/USBFS_std.c ****             if((USBFS_EP[ep].addr & USBFS_DIR_IN) != 0u )
 814              		.loc 1 422 0
 815 0044 F979     		ldrb	r1, [r7, #7]	@ zero_extendqisi2
 816 0046 40F20002 		movw	r2, #:lower16:USBFS_EP
 817 004a C0F20002 		movt	r2, #:upper16:USBFS_EP
 818 004e 0B46     		mov	r3, r1
 819 0050 4FEA4303 		lsl	r3, r3, #1
 820 0054 5B18     		adds	r3, r3, r1
 821 0056 4FEA8303 		lsl	r3, r3, #2
 822 005a D318     		adds	r3, r2, r3
 823 005c 1B79     		ldrb	r3, [r3, #4]
 824 005e DBB2     		uxtb	r3, r3
 825 0060 DBB2     		uxtb	r3, r3
 826 0062 5BB2     		sxtb	r3, r3
 827 0064 002B     		cmp	r3, #0
 828 0066 09DA     		bge	.L69
 423:.\Generated_Source\PSoC5/USBFS_std.c ****             {
 424:.\Generated_Source\PSoC5/USBFS_std.c ****                 CY_SET_REG8((reg8 *)(USBFS_SIE_EP1_CR0_IND + i), USBFS_MODE_NAK_IN);
 829              		.loc 1 424 0
 830 0068 BA79     		ldrb	r2, [r7, #6]	@ zero_extendqisi2
 831 006a 46F20E03 		movw	r3, #24590
 832 006e C4F20003 		movt	r3, 16384
 833 0072 D318     		adds	r3, r2, r3
 834 0074 4FF00C02 		mov	r2, #12
 835 0078 1A70     		strb	r2, [r3, #0]
 836 007a 12E0     		b	.L70
 837              	.L69:
 425:.\Generated_Source\PSoC5/USBFS_std.c ****             }
 426:.\Generated_Source\PSoC5/USBFS_std.c ****             else
 427:.\Generated_Source\PSoC5/USBFS_std.c ****             {
 428:.\Generated_Source\PSoC5/USBFS_std.c ****                 CY_SET_REG8((reg8 *)(USBFS_SIE_EP1_CR0_IND + i), USBFS_MODE_NAK_OUT);
 838              		.loc 1 428 0
 839 007c BA79     		ldrb	r2, [r7, #6]	@ zero_extendqisi2
 840 007e 46F20E03 		movw	r3, #24590
 841 0082 C4F20003 		movt	r3, 16384
 842 0086 D318     		adds	r3, r2, r3
 843 0088 4FF00802 		mov	r2, #8
 844 008c 1A70     		strb	r2, [r3, #0]
ARM GAS  C:\Users\VICTOR~1\AppData\Local\Temp\ccl24Kua.s 			page 24


 845 008e 08E0     		b	.L70
 846              	.L68:
 429:.\Generated_Source\PSoC5/USBFS_std.c ****                 /* Prepare EP type mask for automatic memory allocation */
 430:.\Generated_Source\PSoC5/USBFS_std.c ****                 #if(USBFS_EP_MM == USBFS__EP_DMAAUTO)
 431:.\Generated_Source\PSoC5/USBFS_std.c ****                     epType |= (uint8)(0x01u << (ep - USBFS_EP1));
 432:.\Generated_Source\PSoC5/USBFS_std.c ****                 #endif /*  USBFS_EP_MM == USBFS__EP_DMAAUTO */
 433:.\Generated_Source\PSoC5/USBFS_std.c ****             }
 434:.\Generated_Source\PSoC5/USBFS_std.c ****         }
 435:.\Generated_Source\PSoC5/USBFS_std.c ****         else
 436:.\Generated_Source\PSoC5/USBFS_std.c ****         {
 437:.\Generated_Source\PSoC5/USBFS_std.c ****             CY_SET_REG8((reg8 *)(USBFS_SIE_EP1_CR0_IND + i), USBFS_MODE_STALL_DATA_EP);
 847              		.loc 1 437 0
 848 0090 BA79     		ldrb	r2, [r7, #6]	@ zero_extendqisi2
 849 0092 46F20E03 		movw	r3, #24590
 850 0096 C4F20003 		movt	r3, 16384
 851 009a D318     		adds	r3, r2, r3
 852 009c 4FF08002 		mov	r2, #128
 853 00a0 1A70     		strb	r2, [r3, #0]
 854              	.L70:
 438:.\Generated_Source\PSoC5/USBFS_std.c ****         }
 439:.\Generated_Source\PSoC5/USBFS_std.c **** 
 440:.\Generated_Source\PSoC5/USBFS_std.c ****         #if(USBFS_EP_MM != USBFS__EP_DMAAUTO)
 441:.\Generated_Source\PSoC5/USBFS_std.c ****             CY_SET_REG8((reg8 *)(USBFS_SIE_EP1_CNT0_IND + i),   USBFS_EP[ep].bufferSize >> 8u);
 855              		.loc 1 441 0
 856 00a2 BA79     		ldrb	r2, [r7, #6]	@ zero_extendqisi2
 857 00a4 46F20C03 		movw	r3, #24588
 858 00a8 C4F20003 		movt	r3, 16384
 859 00ac D318     		adds	r3, r2, r3
 860 00ae 1846     		mov	r0, r3
 861 00b0 F979     		ldrb	r1, [r7, #7]	@ zero_extendqisi2
 862 00b2 40F20002 		movw	r2, #:lower16:USBFS_EP
 863 00b6 C0F20002 		movt	r2, #:upper16:USBFS_EP
 864 00ba 0B46     		mov	r3, r1
 865 00bc 4FEA4303 		lsl	r3, r3, #1
 866 00c0 5B18     		adds	r3, r3, r1
 867 00c2 4FEA8303 		lsl	r3, r3, #2
 868 00c6 D318     		adds	r3, r2, r3
 869 00c8 03F10803 		add	r3, r3, #8
 870 00cc 1B88     		ldrh	r3, [r3, #0]	@ movhi
 871 00ce 9BB2     		uxth	r3, r3
 872 00d0 4FEA1323 		lsr	r3, r3, #8
 873 00d4 9BB2     		uxth	r3, r3
 874 00d6 DBB2     		uxtb	r3, r3
 875 00d8 0370     		strb	r3, [r0, #0]
 442:.\Generated_Source\PSoC5/USBFS_std.c ****             CY_SET_REG8((reg8 *)(USBFS_SIE_EP1_CNT1_IND + i),   USBFS_EP[ep].bufferSize & 0xFFu);
 876              		.loc 1 442 0
 877 00da BA79     		ldrb	r2, [r7, #6]	@ zero_extendqisi2
 878 00dc 46F20D03 		movw	r3, #24589
 879 00e0 C4F20003 		movt	r3, 16384
 880 00e4 D318     		adds	r3, r2, r3
 881 00e6 1846     		mov	r0, r3
 882 00e8 F979     		ldrb	r1, [r7, #7]	@ zero_extendqisi2
 883 00ea 40F20002 		movw	r2, #:lower16:USBFS_EP
 884 00ee C0F20002 		movt	r2, #:upper16:USBFS_EP
 885 00f2 0B46     		mov	r3, r1
 886 00f4 4FEA4303 		lsl	r3, r3, #1
 887 00f8 5B18     		adds	r3, r3, r1
ARM GAS  C:\Users\VICTOR~1\AppData\Local\Temp\ccl24Kua.s 			page 25


 888 00fa 4FEA8303 		lsl	r3, r3, #2
 889 00fe D318     		adds	r3, r2, r3
 890 0100 03F10803 		add	r3, r3, #8
 891 0104 1B88     		ldrh	r3, [r3, #0]	@ movhi
 892 0106 9BB2     		uxth	r3, r3
 893 0108 DBB2     		uxtb	r3, r3
 894 010a 0370     		strb	r3, [r0, #0]
 443:.\Generated_Source\PSoC5/USBFS_std.c **** 
 444:.\Generated_Source\PSoC5/USBFS_std.c ****             CY_SET_REG8((reg8 *)(USBFS_ARB_RW1_RA_IND + i),     USBFS_EP[ep].buffOffset & 0xFFu);
 895              		.loc 1 444 0
 896 010c BA79     		ldrb	r2, [r7, #6]	@ zero_extendqisi2
 897 010e 46F28603 		movw	r3, #24710
 898 0112 C4F20003 		movt	r3, 16384
 899 0116 D318     		adds	r3, r2, r3
 900 0118 1846     		mov	r0, r3
 901 011a F979     		ldrb	r1, [r7, #7]	@ zero_extendqisi2
 902 011c 40F20002 		movw	r2, #:lower16:USBFS_EP
 903 0120 C0F20002 		movt	r2, #:upper16:USBFS_EP
 904 0124 0B46     		mov	r3, r1
 905 0126 4FEA4303 		lsl	r3, r3, #1
 906 012a 5B18     		adds	r3, r3, r1
 907 012c 4FEA8303 		lsl	r3, r3, #2
 908 0130 D318     		adds	r3, r2, r3
 909 0132 DB88     		ldrh	r3, [r3, #6]	@ movhi
 910 0134 9BB2     		uxth	r3, r3
 911 0136 DBB2     		uxtb	r3, r3
 912 0138 0370     		strb	r3, [r0, #0]
 445:.\Generated_Source\PSoC5/USBFS_std.c ****             CY_SET_REG8((reg8 *)(USBFS_ARB_RW1_RA_MSB_IND + i), USBFS_EP[ep].buffOffset >> 8u);
 913              		.loc 1 445 0
 914 013a BA79     		ldrb	r2, [r7, #6]	@ zero_extendqisi2
 915 013c 46F28703 		movw	r3, #24711
 916 0140 C4F20003 		movt	r3, 16384
 917 0144 D318     		adds	r3, r2, r3
 918 0146 1846     		mov	r0, r3
 919 0148 F979     		ldrb	r1, [r7, #7]	@ zero_extendqisi2
 920 014a 40F20002 		movw	r2, #:lower16:USBFS_EP
 921 014e C0F20002 		movt	r2, #:upper16:USBFS_EP
 922 0152 0B46     		mov	r3, r1
 923 0154 4FEA4303 		lsl	r3, r3, #1
 924 0158 5B18     		adds	r3, r3, r1
 925 015a 4FEA8303 		lsl	r3, r3, #2
 926 015e D318     		adds	r3, r2, r3
 927 0160 DB88     		ldrh	r3, [r3, #6]	@ movhi
 928 0162 9BB2     		uxth	r3, r3
 929 0164 4FEA1323 		lsr	r3, r3, #8
 930 0168 9BB2     		uxth	r3, r3
 931 016a DBB2     		uxtb	r3, r3
 932 016c 0370     		strb	r3, [r0, #0]
 446:.\Generated_Source\PSoC5/USBFS_std.c ****             CY_SET_REG8((reg8 *)(USBFS_ARB_RW1_WA_IND + i),     USBFS_EP[ep].buffOffset & 0xFFu);
 933              		.loc 1 446 0
 934 016e BA79     		ldrb	r2, [r7, #6]	@ zero_extendqisi2
 935 0170 46F28403 		movw	r3, #24708
 936 0174 C4F20003 		movt	r3, 16384
 937 0178 D318     		adds	r3, r2, r3
 938 017a 1846     		mov	r0, r3
 939 017c F979     		ldrb	r1, [r7, #7]	@ zero_extendqisi2
 940 017e 40F20002 		movw	r2, #:lower16:USBFS_EP
ARM GAS  C:\Users\VICTOR~1\AppData\Local\Temp\ccl24Kua.s 			page 26


 941 0182 C0F20002 		movt	r2, #:upper16:USBFS_EP
 942 0186 0B46     		mov	r3, r1
 943 0188 4FEA4303 		lsl	r3, r3, #1
 944 018c 5B18     		adds	r3, r3, r1
 945 018e 4FEA8303 		lsl	r3, r3, #2
 946 0192 D318     		adds	r3, r2, r3
 947 0194 DB88     		ldrh	r3, [r3, #6]	@ movhi
 948 0196 9BB2     		uxth	r3, r3
 949 0198 DBB2     		uxtb	r3, r3
 950 019a 0370     		strb	r3, [r0, #0]
 447:.\Generated_Source\PSoC5/USBFS_std.c ****             CY_SET_REG8((reg8 *)(USBFS_ARB_RW1_WA_MSB_IND + i), USBFS_EP[ep].buffOffset >> 8u);
 951              		.loc 1 447 0
 952 019c BA79     		ldrb	r2, [r7, #6]	@ zero_extendqisi2
 953 019e 46F28503 		movw	r3, #24709
 954 01a2 C4F20003 		movt	r3, 16384
 955 01a6 D318     		adds	r3, r2, r3
 956 01a8 1846     		mov	r0, r3
 957 01aa F979     		ldrb	r1, [r7, #7]	@ zero_extendqisi2
 958 01ac 40F20002 		movw	r2, #:lower16:USBFS_EP
 959 01b0 C0F20002 		movt	r2, #:upper16:USBFS_EP
 960 01b4 0B46     		mov	r3, r1
 961 01b6 4FEA4303 		lsl	r3, r3, #1
 962 01ba 5B18     		adds	r3, r3, r1
 963 01bc 4FEA8303 		lsl	r3, r3, #2
 964 01c0 D318     		adds	r3, r2, r3
 965 01c2 DB88     		ldrh	r3, [r3, #6]	@ movhi
 966 01c4 9BB2     		uxth	r3, r3
 967 01c6 4FEA1323 		lsr	r3, r3, #8
 968 01ca 9BB2     		uxth	r3, r3
 969 01cc DBB2     		uxtb	r3, r3
 970 01ce 0370     		strb	r3, [r0, #0]
 448:.\Generated_Source\PSoC5/USBFS_std.c ****         #endif /*  USBFS_EP_MM != USBFS__EP_DMAAUTO */
 449:.\Generated_Source\PSoC5/USBFS_std.c **** 
 450:.\Generated_Source\PSoC5/USBFS_std.c ****         ep++;
 971              		.loc 1 450 0
 972 01d0 FB79     		ldrb	r3, [r7, #7]
 973 01d2 03F10103 		add	r3, r3, #1
 974 01d6 FB71     		strb	r3, [r7, #7]
 412:.\Generated_Source\PSoC5/USBFS_std.c ****     for (i = 0u; i < 0x80u; i+= 0x10u)
 975              		.loc 1 412 0
 976 01d8 BB79     		ldrb	r3, [r7, #6]
 977 01da 03F11003 		add	r3, r3, #16
 978 01de BB71     		strb	r3, [r7, #6]
 979              	.L67:
 412:.\Generated_Source\PSoC5/USBFS_std.c ****     for (i = 0u; i < 0x80u; i+= 0x10u)
 980              		.loc 1 412 0 is_stmt 0 discriminator 1
 981 01e0 BB79     		ldrb	r3, [r7, #6]	@ zero_extendqisi2
 982 01e2 5BB2     		sxtb	r3, r3
 983 01e4 002B     		cmp	r3, #0
 984 01e6 BFF615AF 		bge	.L71
 451:.\Generated_Source\PSoC5/USBFS_std.c ****     }
 452:.\Generated_Source\PSoC5/USBFS_std.c **** 
 453:.\Generated_Source\PSoC5/USBFS_std.c ****     #if(USBFS_EP_MM == USBFS__EP_DMAAUTO)
 454:.\Generated_Source\PSoC5/USBFS_std.c ****          /* BUF_SIZE depend on DMA_THRESS value: 55-32 bytes  44-16 bytes 33-8 bytes 22-4 bytes 11-
 455:.\Generated_Source\PSoC5/USBFS_std.c ****         USBFS_BUF_SIZE_REG = USBFS_DMA_BUF_SIZE;
 456:.\Generated_Source\PSoC5/USBFS_std.c ****         USBFS_DMA_THRES_REG = USBFS_DMA_BYTES_PER_BURST;   /* DMA burst threshold */
 457:.\Generated_Source\PSoC5/USBFS_std.c ****         USBFS_DMA_THRES_MSB_REG = 0u;
ARM GAS  C:\Users\VICTOR~1\AppData\Local\Temp\ccl24Kua.s 			page 27


 458:.\Generated_Source\PSoC5/USBFS_std.c ****         USBFS_EP_ACTIVE_REG = USBFS_ARB_INT_MASK;
 459:.\Generated_Source\PSoC5/USBFS_std.c ****         USBFS_EP_TYPE_REG = epType;
 460:.\Generated_Source\PSoC5/USBFS_std.c ****         /* Cfg_cmp bit set to 1 once configuration is complete. */
 461:.\Generated_Source\PSoC5/USBFS_std.c ****         USBFS_ARB_CFG_REG = USBFS_ARB_CFG_AUTO_DMA | USBFS_ARB_CFG_AUTO_MEM |
 462:.\Generated_Source\PSoC5/USBFS_std.c ****                                        USBFS_ARB_CFG_CFG_CPM;
 463:.\Generated_Source\PSoC5/USBFS_std.c ****         /* Cfg_cmp bit set to 0 during configuration of PFSUSB Registers. */
 464:.\Generated_Source\PSoC5/USBFS_std.c ****         USBFS_ARB_CFG_REG = USBFS_ARB_CFG_AUTO_DMA | USBFS_ARB_CFG_AUTO_MEM;
 465:.\Generated_Source\PSoC5/USBFS_std.c ****     #endif /*  USBFS_EP_MM == USBFS__EP_DMAAUTO */
 466:.\Generated_Source\PSoC5/USBFS_std.c **** 
 467:.\Generated_Source\PSoC5/USBFS_std.c ****     CY_SET_REG8(USBFS_SIE_EP_INT_EN_PTR, 0xFFu);
 985              		.loc 1 467 0 is_stmt 1
 986 01ea 46F20A03 		movw	r3, #24586
 987 01ee C4F20003 		movt	r3, 16384
 988 01f2 4FF0FF02 		mov	r2, #255
 989 01f6 1A70     		strb	r2, [r3, #0]
 468:.\Generated_Source\PSoC5/USBFS_std.c **** }
 990              		.loc 1 468 0
 991 01f8 07F10C07 		add	r7, r7, #12
 992 01fc BD46     		mov	sp, r7
 993 01fe 80BC     		pop	{r7}
 994 0200 7047     		bx	lr
 995              		.cfi_endproc
 996              	.LFE1:
 997              		.size	USBFS_ConfigReg, .-USBFS_ConfigReg
 998 0202 00BF     		.section	.text.USBFS_Config,"ax",%progbits
 999              		.align	2
 1000              		.global	USBFS_Config
 1001              		.thumb
 1002              		.thumb_func
 1003              		.type	USBFS_Config, %function
 1004              	USBFS_Config:
 1005              	.LFB2:
 469:.\Generated_Source\PSoC5/USBFS_std.c **** 
 470:.\Generated_Source\PSoC5/USBFS_std.c **** 
 471:.\Generated_Source\PSoC5/USBFS_std.c **** /*******************************************************************************
 472:.\Generated_Source\PSoC5/USBFS_std.c **** * Function Name: USBFS_Config
 473:.\Generated_Source\PSoC5/USBFS_std.c **** ********************************************************************************
 474:.\Generated_Source\PSoC5/USBFS_std.c **** *
 475:.\Generated_Source\PSoC5/USBFS_std.c **** * Summary:
 476:.\Generated_Source\PSoC5/USBFS_std.c **** *  This routine configures endpoints for the entire configuration by scanning
 477:.\Generated_Source\PSoC5/USBFS_std.c **** *  the configuration descriptor.
 478:.\Generated_Source\PSoC5/USBFS_std.c **** *
 479:.\Generated_Source\PSoC5/USBFS_std.c **** * Parameters:
 480:.\Generated_Source\PSoC5/USBFS_std.c **** *  clearAltSetting: It configures the bAlternateSetting 0 for each interface.
 481:.\Generated_Source\PSoC5/USBFS_std.c **** *
 482:.\Generated_Source\PSoC5/USBFS_std.c **** * Return:
 483:.\Generated_Source\PSoC5/USBFS_std.c **** *  None.
 484:.\Generated_Source\PSoC5/USBFS_std.c **** *
 485:.\Generated_Source\PSoC5/USBFS_std.c **** * USBFS_interfaceClass - Initialized class array for each interface.
 486:.\Generated_Source\PSoC5/USBFS_std.c **** *   It is used for handling Class specific requests depend on interface class.
 487:.\Generated_Source\PSoC5/USBFS_std.c **** *   Different classes in multiple Alternate settings does not supported.
 488:.\Generated_Source\PSoC5/USBFS_std.c **** *
 489:.\Generated_Source\PSoC5/USBFS_std.c **** * Reentrant:
 490:.\Generated_Source\PSoC5/USBFS_std.c **** *  No.
 491:.\Generated_Source\PSoC5/USBFS_std.c **** *
 492:.\Generated_Source\PSoC5/USBFS_std.c **** *******************************************************************************/
 493:.\Generated_Source\PSoC5/USBFS_std.c **** void USBFS_Config(uint8 clearAltSetting) 
ARM GAS  C:\Users\VICTOR~1\AppData\Local\Temp\ccl24Kua.s 			page 28


 494:.\Generated_Source\PSoC5/USBFS_std.c **** {
 1006              		.loc 1 494 0
 1007              		.cfi_startproc
 1008              		@ args = 0, pretend = 0, frame = 32
 1009              		@ frame_needed = 1, uses_anonymous_args = 0
 1010 0000 80B5     		push	{r7, lr}
 1011              	.LCFI6:
 1012              		.cfi_def_cfa_offset 8
 1013              		.cfi_offset 7, -8
 1014              		.cfi_offset 14, -4
 1015 0002 88B0     		sub	sp, sp, #32
 1016              	.LCFI7:
 1017              		.cfi_def_cfa_offset 40
 1018 0004 00AF     		add	r7, sp, #0
 1019              	.LCFI8:
 1020              		.cfi_def_cfa_register 7
 1021 0006 0346     		mov	r3, r0
 1022 0008 FB71     		strb	r3, [r7, #7]
 495:.\Generated_Source\PSoC5/USBFS_std.c ****     uint8 ep;
 496:.\Generated_Source\PSoC5/USBFS_std.c ****     uint8 cur_ep;
 497:.\Generated_Source\PSoC5/USBFS_std.c ****     uint8 i;
 498:.\Generated_Source\PSoC5/USBFS_std.c ****     uint8 epType;
 499:.\Generated_Source\PSoC5/USBFS_std.c ****     const uint8 *pDescr;
 500:.\Generated_Source\PSoC5/USBFS_std.c ****     #if(USBFS_EP_MM != USBFS__EP_DMAAUTO)
 501:.\Generated_Source\PSoC5/USBFS_std.c ****         uint16 buffCount = 0u;
 1023              		.loc 1 501 0
 1024 000a 4FF00003 		mov	r3, #0
 1025 000e 7B83     		strh	r3, [r7, #26]	@ movhi
 502:.\Generated_Source\PSoC5/USBFS_std.c ****     #endif /*  USBFS_EP_MM != USBFS__EP_DMAAUTO */
 503:.\Generated_Source\PSoC5/USBFS_std.c **** 
 504:.\Generated_Source\PSoC5/USBFS_std.c ****     const T_USBFS_LUT CYCODE *pTmp;
 505:.\Generated_Source\PSoC5/USBFS_std.c ****     const T_USBFS_EP_SETTINGS_BLOCK CYCODE *pEP;
 506:.\Generated_Source\PSoC5/USBFS_std.c **** 
 507:.\Generated_Source\PSoC5/USBFS_std.c ****     /* Clear all of the endpoints */
 508:.\Generated_Source\PSoC5/USBFS_std.c ****     for (ep = 0u; ep < USBFS_MAX_EP; ep++)
 1026              		.loc 1 508 0
 1027 0010 4FF00003 		mov	r3, #0
 1028 0014 FB77     		strb	r3, [r7, #31]
 1029 0016 70E0     		b	.L73
 1030              	.L74:
 509:.\Generated_Source\PSoC5/USBFS_std.c ****     {
 510:.\Generated_Source\PSoC5/USBFS_std.c ****         USBFS_EP[ep].attrib = 0u;
 1031              		.loc 1 510 0 discriminator 2
 1032 0018 F97F     		ldrb	r1, [r7, #31]	@ zero_extendqisi2
 1033 001a 40F20002 		movw	r2, #:lower16:USBFS_EP
 1034 001e C0F20002 		movt	r2, #:upper16:USBFS_EP
 1035 0022 0B46     		mov	r3, r1
 1036 0024 4FEA4303 		lsl	r3, r3, #1
 1037 0028 5B18     		adds	r3, r3, r1
 1038 002a 4FEA8303 		lsl	r3, r3, #2
 1039 002e D318     		adds	r3, r2, r3
 1040 0030 4FF00002 		mov	r2, #0
 1041 0034 1A70     		strb	r2, [r3, #0]
 511:.\Generated_Source\PSoC5/USBFS_std.c ****         USBFS_EP[ep].hwEpState = 0u;
 1042              		.loc 1 511 0 discriminator 2
 1043 0036 F97F     		ldrb	r1, [r7, #31]	@ zero_extendqisi2
 1044 0038 40F20002 		movw	r2, #:lower16:USBFS_EP
ARM GAS  C:\Users\VICTOR~1\AppData\Local\Temp\ccl24Kua.s 			page 29


 1045 003c C0F20002 		movt	r2, #:upper16:USBFS_EP
 1046 0040 0B46     		mov	r3, r1
 1047 0042 4FEA4303 		lsl	r3, r3, #1
 1048 0046 5B18     		adds	r3, r3, r1
 1049 0048 4FEA8303 		lsl	r3, r3, #2
 1050 004c D318     		adds	r3, r2, r3
 1051 004e 4FF00002 		mov	r2, #0
 1052 0052 9A70     		strb	r2, [r3, #2]
 512:.\Generated_Source\PSoC5/USBFS_std.c ****         USBFS_EP[ep].apiEpState = USBFS_NO_EVENT_PENDING;
 1053              		.loc 1 512 0 discriminator 2
 1054 0054 F97F     		ldrb	r1, [r7, #31]	@ zero_extendqisi2
 1055 0056 40F20002 		movw	r2, #:lower16:USBFS_EP
 1056 005a C0F20002 		movt	r2, #:upper16:USBFS_EP
 1057 005e 0B46     		mov	r3, r1
 1058 0060 4FEA4303 		lsl	r3, r3, #1
 1059 0064 5B18     		adds	r3, r3, r1
 1060 0066 4FEA8303 		lsl	r3, r3, #2
 1061 006a D318     		adds	r3, r2, r3
 1062 006c 4FF00002 		mov	r2, #0
 1063 0070 5A70     		strb	r2, [r3, #1]
 513:.\Generated_Source\PSoC5/USBFS_std.c ****         USBFS_EP[ep].epToggle = 0u;
 1064              		.loc 1 513 0 discriminator 2
 1065 0072 F97F     		ldrb	r1, [r7, #31]	@ zero_extendqisi2
 1066 0074 40F20002 		movw	r2, #:lower16:USBFS_EP
 1067 0078 C0F20002 		movt	r2, #:upper16:USBFS_EP
 1068 007c 0B46     		mov	r3, r1
 1069 007e 4FEA4303 		lsl	r3, r3, #1
 1070 0082 5B18     		adds	r3, r3, r1
 1071 0084 4FEA8303 		lsl	r3, r3, #2
 1072 0088 D318     		adds	r3, r2, r3
 1073 008a 4FF00002 		mov	r2, #0
 1074 008e DA70     		strb	r2, [r3, #3]
 514:.\Generated_Source\PSoC5/USBFS_std.c ****         USBFS_EP[ep].epMode = USBFS_MODE_DISABLE;
 1075              		.loc 1 514 0 discriminator 2
 1076 0090 F97F     		ldrb	r1, [r7, #31]	@ zero_extendqisi2
 1077 0092 40F20002 		movw	r2, #:lower16:USBFS_EP
 1078 0096 C0F20002 		movt	r2, #:upper16:USBFS_EP
 1079 009a 0B46     		mov	r3, r1
 1080 009c 4FEA4303 		lsl	r3, r3, #1
 1081 00a0 5B18     		adds	r3, r3, r1
 1082 00a2 4FEA8303 		lsl	r3, r3, #2
 1083 00a6 D318     		adds	r3, r2, r3
 1084 00a8 4FF00002 		mov	r2, #0
 1085 00ac 5A71     		strb	r2, [r3, #5]
 515:.\Generated_Source\PSoC5/USBFS_std.c ****         USBFS_EP[ep].bufferSize = 0u;
 1086              		.loc 1 515 0 discriminator 2
 1087 00ae F97F     		ldrb	r1, [r7, #31]	@ zero_extendqisi2
 1088 00b0 40F20002 		movw	r2, #:lower16:USBFS_EP
 1089 00b4 C0F20002 		movt	r2, #:upper16:USBFS_EP
 1090 00b8 0B46     		mov	r3, r1
 1091 00ba 4FEA4303 		lsl	r3, r3, #1
 1092 00be 5B18     		adds	r3, r3, r1
 1093 00c0 4FEA8303 		lsl	r3, r3, #2
 1094 00c4 D318     		adds	r3, r2, r3
 1095 00c6 03F10803 		add	r3, r3, #8
 1096 00ca 4FF00002 		mov	r2, #0
 1097 00ce 1A80     		strh	r2, [r3, #0]	@ movhi
ARM GAS  C:\Users\VICTOR~1\AppData\Local\Temp\ccl24Kua.s 			page 30


 516:.\Generated_Source\PSoC5/USBFS_std.c ****         USBFS_EP[ep].interface = 0u;
 1098              		.loc 1 516 0 discriminator 2
 1099 00d0 F97F     		ldrb	r1, [r7, #31]	@ zero_extendqisi2
 1100 00d2 40F20002 		movw	r2, #:lower16:USBFS_EP
 1101 00d6 C0F20002 		movt	r2, #:upper16:USBFS_EP
 1102 00da 0B46     		mov	r3, r1
 1103 00dc 4FEA4303 		lsl	r3, r3, #1
 1104 00e0 5B18     		adds	r3, r3, r1
 1105 00e2 4FEA8303 		lsl	r3, r3, #2
 1106 00e6 D318     		adds	r3, r2, r3
 1107 00e8 03F10803 		add	r3, r3, #8
 1108 00ec 4FF00002 		mov	r2, #0
 1109 00f0 9A70     		strb	r2, [r3, #2]
 508:.\Generated_Source\PSoC5/USBFS_std.c ****     for (ep = 0u; ep < USBFS_MAX_EP; ep++)
 1110              		.loc 1 508 0 discriminator 2
 1111 00f2 FB7F     		ldrb	r3, [r7, #31]
 1112 00f4 03F10103 		add	r3, r3, #1
 1113 00f8 FB77     		strb	r3, [r7, #31]
 1114              	.L73:
 508:.\Generated_Source\PSoC5/USBFS_std.c ****     for (ep = 0u; ep < USBFS_MAX_EP; ep++)
 1115              		.loc 1 508 0 is_stmt 0 discriminator 1
 1116 00fa FB7F     		ldrb	r3, [r7, #31]	@ zero_extendqisi2
 1117 00fc 082B     		cmp	r3, #8
 1118 00fe 8BD9     		bls	.L74
 517:.\Generated_Source\PSoC5/USBFS_std.c **** 
 518:.\Generated_Source\PSoC5/USBFS_std.c ****     }
 519:.\Generated_Source\PSoC5/USBFS_std.c **** 
 520:.\Generated_Source\PSoC5/USBFS_std.c ****     /* Clear Alternate settings for all interfaces */
 521:.\Generated_Source\PSoC5/USBFS_std.c ****     if(clearAltSetting != 0u)
 1119              		.loc 1 521 0 is_stmt 1
 1120 0100 FB79     		ldrb	r3, [r7, #7]	@ zero_extendqisi2
 1121 0102 002B     		cmp	r3, #0
 1122 0104 1AD0     		beq	.L75
 522:.\Generated_Source\PSoC5/USBFS_std.c ****     {
 523:.\Generated_Source\PSoC5/USBFS_std.c ****         for (i = 0u; i < USBFS_MAX_INTERFACES_NUMBER; i++)
 1123              		.loc 1 523 0
 1124 0106 4FF00003 		mov	r3, #0
 1125 010a 7B77     		strb	r3, [r7, #29]
 1126 010c 13E0     		b	.L76
 1127              	.L77:
 524:.\Generated_Source\PSoC5/USBFS_std.c ****         {
 525:.\Generated_Source\PSoC5/USBFS_std.c ****             USBFS_interfaceSetting[i] = 0x00u;
 1128              		.loc 1 525 0 discriminator 2
 1129 010e 7A7F     		ldrb	r2, [r7, #29]	@ zero_extendqisi2
 1130 0110 40F20003 		movw	r3, #:lower16:USBFS_interfaceSetting
 1131 0114 C0F20003 		movt	r3, #:upper16:USBFS_interfaceSetting
 1132 0118 4FF00001 		mov	r1, #0
 1133 011c 9954     		strb	r1, [r3, r2]
 526:.\Generated_Source\PSoC5/USBFS_std.c ****             USBFS_interfaceSetting_last[i] = 0x00u;
 1134              		.loc 1 526 0 discriminator 2
 1135 011e 7A7F     		ldrb	r2, [r7, #29]	@ zero_extendqisi2
 1136 0120 40F20003 		movw	r3, #:lower16:USBFS_interfaceSetting_last
 1137 0124 C0F20003 		movt	r3, #:upper16:USBFS_interfaceSetting_last
 1138 0128 4FF00001 		mov	r1, #0
 1139 012c 9954     		strb	r1, [r3, r2]
 523:.\Generated_Source\PSoC5/USBFS_std.c ****         for (i = 0u; i < USBFS_MAX_INTERFACES_NUMBER; i++)
 1140              		.loc 1 523 0 discriminator 2
ARM GAS  C:\Users\VICTOR~1\AppData\Local\Temp\ccl24Kua.s 			page 31


 1141 012e 7B7F     		ldrb	r3, [r7, #29]
 1142 0130 03F10103 		add	r3, r3, #1
 1143 0134 7B77     		strb	r3, [r7, #29]
 1144              	.L76:
 523:.\Generated_Source\PSoC5/USBFS_std.c ****         for (i = 0u; i < USBFS_MAX_INTERFACES_NUMBER; i++)
 1145              		.loc 1 523 0 is_stmt 0 discriminator 1
 1146 0136 7B7F     		ldrb	r3, [r7, #29]	@ zero_extendqisi2
 1147 0138 002B     		cmp	r3, #0
 1148 013a E8D0     		beq	.L77
 1149              	.L75:
 527:.\Generated_Source\PSoC5/USBFS_std.c ****         }
 528:.\Generated_Source\PSoC5/USBFS_std.c ****     }
 529:.\Generated_Source\PSoC5/USBFS_std.c **** 
 530:.\Generated_Source\PSoC5/USBFS_std.c ****     /* Init Endpoints and Device Status if configured */
 531:.\Generated_Source\PSoC5/USBFS_std.c ****     if(USBFS_configuration > 0u)
 1150              		.loc 1 531 0 is_stmt 1
 1151 013c 40F20003 		movw	r3, #:lower16:USBFS_configuration
 1152 0140 C0F20003 		movt	r3, #:upper16:USBFS_configuration
 1153 0144 1B78     		ldrb	r3, [r3, #0]
 1154 0146 DBB2     		uxtb	r3, r3
 1155 0148 002B     		cmp	r3, #0
 1156 014a 00F06B81 		beq	.L72
 532:.\Generated_Source\PSoC5/USBFS_std.c ****     {
 533:.\Generated_Source\PSoC5/USBFS_std.c ****         pTmp = USBFS_GetConfigTablePtr(USBFS_configuration - 1u);
 1157              		.loc 1 533 0
 1158 014e 40F20003 		movw	r3, #:lower16:USBFS_configuration
 1159 0152 C0F20003 		movt	r3, #:upper16:USBFS_configuration
 1160 0156 1B78     		ldrb	r3, [r3, #0]
 1161 0158 DBB2     		uxtb	r3, r3
 1162 015a 03F1FF33 		add	r3, r3, #-1
 1163 015e DBB2     		uxtb	r3, r3
 1164 0160 1846     		mov	r0, r3
 1165 0162 FFF7FEFF 		bl	USBFS_GetConfigTablePtr
 1166 0166 3861     		str	r0, [r7, #16]
 534:.\Generated_Source\PSoC5/USBFS_std.c ****         /* Set Power status for current configuration */
 535:.\Generated_Source\PSoC5/USBFS_std.c ****         pDescr = (const uint8 *)pTmp->p_list;
 1167              		.loc 1 535 0
 1168 0168 3B69     		ldr	r3, [r7, #16]
 1169 016a 5B68     		ldr	r3, [r3, #4]
 1170 016c FB60     		str	r3, [r7, #12]
 536:.\Generated_Source\PSoC5/USBFS_std.c ****         if((pDescr[USBFS_CONFIG_DESCR_ATTRIB] & USBFS_CONFIG_DESCR_ATTRIB_SELF_POWERED) != 0u)
 1171              		.loc 1 536 0
 1172 016e FB68     		ldr	r3, [r7, #12]
 1173 0170 03F10703 		add	r3, r3, #7
 1174 0174 1B78     		ldrb	r3, [r3, #0]	@ zero_extendqisi2
 1175 0176 03F04003 		and	r3, r3, #64
 1176 017a 002B     		cmp	r3, #0
 1177 017c 0ED0     		beq	.L79
 537:.\Generated_Source\PSoC5/USBFS_std.c ****         {
 538:.\Generated_Source\PSoC5/USBFS_std.c ****             USBFS_deviceStatus |=  USBFS_DEVICE_STATUS_SELF_POWERED;
 1178              		.loc 1 538 0
 1179 017e 40F20003 		movw	r3, #:lower16:USBFS_deviceStatus
 1180 0182 C0F20003 		movt	r3, #:upper16:USBFS_deviceStatus
 1181 0186 1B78     		ldrb	r3, [r3, #0]
 1182 0188 DBB2     		uxtb	r3, r3
 1183 018a 43F00103 		orr	r3, r3, #1
 1184 018e DAB2     		uxtb	r2, r3
ARM GAS  C:\Users\VICTOR~1\AppData\Local\Temp\ccl24Kua.s 			page 32


 1185 0190 40F20003 		movw	r3, #:lower16:USBFS_deviceStatus
 1186 0194 C0F20003 		movt	r3, #:upper16:USBFS_deviceStatus
 1187 0198 1A70     		strb	r2, [r3, #0]
 1188 019a 0DE0     		b	.L80
 1189              	.L79:
 539:.\Generated_Source\PSoC5/USBFS_std.c ****         }
 540:.\Generated_Source\PSoC5/USBFS_std.c ****         else
 541:.\Generated_Source\PSoC5/USBFS_std.c ****         {
 542:.\Generated_Source\PSoC5/USBFS_std.c ****             USBFS_deviceStatus &=  (uint8)~USBFS_DEVICE_STATUS_SELF_POWERED;
 1190              		.loc 1 542 0
 1191 019c 40F20003 		movw	r3, #:lower16:USBFS_deviceStatus
 1192 01a0 C0F20003 		movt	r3, #:upper16:USBFS_deviceStatus
 1193 01a4 1B78     		ldrb	r3, [r3, #0]
 1194 01a6 DBB2     		uxtb	r3, r3
 1195 01a8 23F00103 		bic	r3, r3, #1
 1196 01ac DAB2     		uxtb	r2, r3
 1197 01ae 40F20003 		movw	r3, #:lower16:USBFS_deviceStatus
 1198 01b2 C0F20003 		movt	r3, #:upper16:USBFS_deviceStatus
 1199 01b6 1A70     		strb	r2, [r3, #0]
 1200              	.L80:
 543:.\Generated_Source\PSoC5/USBFS_std.c ****         }
 544:.\Generated_Source\PSoC5/USBFS_std.c ****         /* Move to next element */
 545:.\Generated_Source\PSoC5/USBFS_std.c ****         pTmp = &pTmp[1u];
 1201              		.loc 1 545 0
 1202 01b8 3B69     		ldr	r3, [r7, #16]
 1203 01ba 03F10803 		add	r3, r3, #8
 1204 01be 3B61     		str	r3, [r7, #16]
 546:.\Generated_Source\PSoC5/USBFS_std.c ****         ep = pTmp->c;  /* For this table, c is the number of endpoints configurations  */
 1205              		.loc 1 546 0
 1206 01c0 3B69     		ldr	r3, [r7, #16]
 1207 01c2 1B78     		ldrb	r3, [r3, #0]
 1208 01c4 FB77     		strb	r3, [r7, #31]
 547:.\Generated_Source\PSoC5/USBFS_std.c **** 
 548:.\Generated_Source\PSoC5/USBFS_std.c ****         #if ((USBFS_EP_MA == USBFS__MA_DYNAMIC) && \
 549:.\Generated_Source\PSoC5/USBFS_std.c ****              (USBFS_EP_MM == USBFS__EP_MANUAL) )
 550:.\Generated_Source\PSoC5/USBFS_std.c ****             /* Configure for dynamic EP memory allocation */
 551:.\Generated_Source\PSoC5/USBFS_std.c ****             /* p_list points the endpoint setting table. */
 552:.\Generated_Source\PSoC5/USBFS_std.c ****             pEP = (T_USBFS_EP_SETTINGS_BLOCK *) pTmp->p_list;
 553:.\Generated_Source\PSoC5/USBFS_std.c ****             for (i = 0u; i < ep; i++)
 554:.\Generated_Source\PSoC5/USBFS_std.c ****             {
 555:.\Generated_Source\PSoC5/USBFS_std.c ****                 /* Compare current Alternate setting with EP Alt */
 556:.\Generated_Source\PSoC5/USBFS_std.c ****                 if(USBFS_interfaceSetting[pEP->interface] == pEP->altSetting)
 557:.\Generated_Source\PSoC5/USBFS_std.c ****                 {
 558:.\Generated_Source\PSoC5/USBFS_std.c ****                     cur_ep = pEP->addr & USBFS_DIR_UNUSED;
 559:.\Generated_Source\PSoC5/USBFS_std.c ****                     epType = pEP->attributes & USBFS_EP_TYPE_MASK;
 560:.\Generated_Source\PSoC5/USBFS_std.c ****                     if (pEP->addr & USBFS_DIR_IN)
 561:.\Generated_Source\PSoC5/USBFS_std.c ****                     {
 562:.\Generated_Source\PSoC5/USBFS_std.c ****                         /* IN Endpoint */
 563:.\Generated_Source\PSoC5/USBFS_std.c ****                         USBFS_EP[cur_ep].apiEpState = USBFS_EVENT_PENDING;
 564:.\Generated_Source\PSoC5/USBFS_std.c ****                         USBFS_EP[cur_ep].epMode = (epType == USBFS_EP_TYPE_ISOC) ?
 565:.\Generated_Source\PSoC5/USBFS_std.c ****                                                         USBFS_MODE_ISO_IN : USBFS_MODE_ACK_IN;
 566:.\Generated_Source\PSoC5/USBFS_std.c ****                         #if defined(USBFS_ENABLE_CDC_CLASS)
 567:.\Generated_Source\PSoC5/USBFS_std.c ****                             if(((pEP->bMisc == USBFS_CLASS_CDC_DATA) ||
 568:.\Generated_Source\PSoC5/USBFS_std.c ****                                 (pEP->bMisc == USBFS_CLASS_CDC)) &&
 569:.\Generated_Source\PSoC5/USBFS_std.c ****                                 (epType != USBFS_EP_TYPE_INT))
 570:.\Generated_Source\PSoC5/USBFS_std.c ****                             {
 571:.\Generated_Source\PSoC5/USBFS_std.c ****                                 USBFS_cdc_data_in_ep = cur_ep;
ARM GAS  C:\Users\VICTOR~1\AppData\Local\Temp\ccl24Kua.s 			page 33


 572:.\Generated_Source\PSoC5/USBFS_std.c ****                             }
 573:.\Generated_Source\PSoC5/USBFS_std.c ****                         #endif  /*  USBFS_ENABLE_CDC_CLASS*/
 574:.\Generated_Source\PSoC5/USBFS_std.c ****                         #if ( defined(USBFS_ENABLE_MIDI_STREAMING) && \
 575:.\Generated_Source\PSoC5/USBFS_std.c ****                                              (USBFS_MIDI_IN_BUFF_SIZE > 0) )
 576:.\Generated_Source\PSoC5/USBFS_std.c ****                             if((pEP->bMisc == USBFS_CLASS_AUDIO) &&
 577:.\Generated_Source\PSoC5/USBFS_std.c ****                                (epType == USBFS_EP_TYPE_BULK))
 578:.\Generated_Source\PSoC5/USBFS_std.c ****                             {
 579:.\Generated_Source\PSoC5/USBFS_std.c ****                                 USBFS_midi_in_ep = cur_ep;
 580:.\Generated_Source\PSoC5/USBFS_std.c ****                             }
 581:.\Generated_Source\PSoC5/USBFS_std.c ****                         #endif  /*  USBFS_ENABLE_MIDI_STREAMING*/
 582:.\Generated_Source\PSoC5/USBFS_std.c ****                     }
 583:.\Generated_Source\PSoC5/USBFS_std.c ****                     else
 584:.\Generated_Source\PSoC5/USBFS_std.c ****                     {
 585:.\Generated_Source\PSoC5/USBFS_std.c ****                         /* OUT Endpoint */
 586:.\Generated_Source\PSoC5/USBFS_std.c ****                         USBFS_EP[cur_ep].apiEpState = USBFS_NO_EVENT_PENDING;
 587:.\Generated_Source\PSoC5/USBFS_std.c ****                         USBFS_EP[cur_ep].epMode = (epType == USBFS_EP_TYPE_ISOC) ?
 588:.\Generated_Source\PSoC5/USBFS_std.c ****                                                     USBFS_MODE_ISO_OUT : USBFS_MODE_ACK_OUT;
 589:.\Generated_Source\PSoC5/USBFS_std.c ****                         #if defined(USBFS_ENABLE_CDC_CLASS)
 590:.\Generated_Source\PSoC5/USBFS_std.c ****                             if(((pEP->bMisc == USBFS_CLASS_CDC_DATA) ||
 591:.\Generated_Source\PSoC5/USBFS_std.c ****                                 (pEP->bMisc == USBFS_CLASS_CDC)) &&
 592:.\Generated_Source\PSoC5/USBFS_std.c ****                                 (epType != USBFS_EP_TYPE_INT))
 593:.\Generated_Source\PSoC5/USBFS_std.c ****                             {
 594:.\Generated_Source\PSoC5/USBFS_std.c ****                                 USBFS_cdc_data_out_ep = cur_ep;
 595:.\Generated_Source\PSoC5/USBFS_std.c ****                             }
 596:.\Generated_Source\PSoC5/USBFS_std.c ****                         #endif  /*  USBFS_ENABLE_CDC_CLASS*/
 597:.\Generated_Source\PSoC5/USBFS_std.c ****                         #if ( defined(USBFS_ENABLE_MIDI_STREAMING) && \
 598:.\Generated_Source\PSoC5/USBFS_std.c ****                                      (USBFS_MIDI_OUT_BUFF_SIZE > 0) )
 599:.\Generated_Source\PSoC5/USBFS_std.c ****                             if((pEP->bMisc == USBFS_CLASS_AUDIO) &&
 600:.\Generated_Source\PSoC5/USBFS_std.c ****                                (epType == USBFS_EP_TYPE_BULK))
 601:.\Generated_Source\PSoC5/USBFS_std.c ****                             {
 602:.\Generated_Source\PSoC5/USBFS_std.c ****                                 USBFS_midi_out_ep = cur_ep;
 603:.\Generated_Source\PSoC5/USBFS_std.c ****                             }
 604:.\Generated_Source\PSoC5/USBFS_std.c ****                         #endif  /*  USBFS_ENABLE_MIDI_STREAMING*/
 605:.\Generated_Source\PSoC5/USBFS_std.c ****                     }
 606:.\Generated_Source\PSoC5/USBFS_std.c ****                     USBFS_EP[cur_ep].bufferSize = pEP->bufferSize;
 607:.\Generated_Source\PSoC5/USBFS_std.c ****                     USBFS_EP[cur_ep].addr = pEP->addr;
 608:.\Generated_Source\PSoC5/USBFS_std.c ****                     USBFS_EP[cur_ep].attrib = pEP->attributes;
 609:.\Generated_Source\PSoC5/USBFS_std.c ****                 }
 610:.\Generated_Source\PSoC5/USBFS_std.c ****                 pEP = &pEP[1u];
 611:.\Generated_Source\PSoC5/USBFS_std.c ****             }
 612:.\Generated_Source\PSoC5/USBFS_std.c ****         #else /* Configure for static EP memory allocation  */
 613:.\Generated_Source\PSoC5/USBFS_std.c ****             for (i = USBFS_EP1; i < USBFS_MAX_EP; i++)
 1209              		.loc 1 613 0
 1210 01c6 4FF00103 		mov	r3, #1
 1211 01ca 7B77     		strb	r3, [r7, #29]
 1212 01cc C8E0     		b	.L81
 1213              	.L92:
 614:.\Generated_Source\PSoC5/USBFS_std.c ****             {
 615:.\Generated_Source\PSoC5/USBFS_std.c ****                 /* p_list points the endpoint setting table. */
 616:.\Generated_Source\PSoC5/USBFS_std.c ****                 pEP = (const T_USBFS_EP_SETTINGS_BLOCK CYCODE *) pTmp->p_list;
 1214              		.loc 1 616 0
 1215 01ce 3B69     		ldr	r3, [r7, #16]
 1216 01d0 5B68     		ldr	r3, [r3, #4]
 1217 01d2 7B61     		str	r3, [r7, #20]
 617:.\Generated_Source\PSoC5/USBFS_std.c ****                 /* Find max length for each EP and select it (length could be different in differen
 618:.\Generated_Source\PSoC5/USBFS_std.c ****                 /* but other settings should be correct with regards to Interface alt Setting */
 619:.\Generated_Source\PSoC5/USBFS_std.c ****                 for (cur_ep = 0u; cur_ep < ep; cur_ep++)
ARM GAS  C:\Users\VICTOR~1\AppData\Local\Temp\ccl24Kua.s 			page 34


 1218              		.loc 1 619 0
 1219 01d4 4FF00003 		mov	r3, #0
 1220 01d8 BB77     		strb	r3, [r7, #30]
 1221 01da B8E0     		b	.L82
 1222              	.L91:
 620:.\Generated_Source\PSoC5/USBFS_std.c ****                 {
 621:.\Generated_Source\PSoC5/USBFS_std.c ****                     /* EP count is equal to EP # in table and we found larger EP length than have b
 622:.\Generated_Source\PSoC5/USBFS_std.c ****                     if(i == (pEP->addr & USBFS_DIR_UNUSED))
 1223              		.loc 1 622 0
 1224 01dc 7A7F     		ldrb	r2, [r7, #29]	@ zero_extendqisi2
 1225 01de 7B69     		ldr	r3, [r7, #20]
 1226 01e0 9B78     		ldrb	r3, [r3, #2]	@ zero_extendqisi2
 1227 01e2 03F07F03 		and	r3, r3, #127
 1228 01e6 9A42     		cmp	r2, r3
 1229 01e8 40F0A980 		bne	.L83
 623:.\Generated_Source\PSoC5/USBFS_std.c ****                     {
 624:.\Generated_Source\PSoC5/USBFS_std.c ****                         if(USBFS_EP[i].bufferSize < pEP->bufferSize)
 1230              		.loc 1 624 0
 1231 01ec 797F     		ldrb	r1, [r7, #29]	@ zero_extendqisi2
 1232 01ee 40F20002 		movw	r2, #:lower16:USBFS_EP
 1233 01f2 C0F20002 		movt	r2, #:upper16:USBFS_EP
 1234 01f6 0B46     		mov	r3, r1
 1235 01f8 4FEA4303 		lsl	r3, r3, #1
 1236 01fc 5B18     		adds	r3, r3, r1
 1237 01fe 4FEA8303 		lsl	r3, r3, #2
 1238 0202 D318     		adds	r3, r2, r3
 1239 0204 03F10803 		add	r3, r3, #8
 1240 0208 1B88     		ldrh	r3, [r3, #0]	@ movhi
 1241 020a 9AB2     		uxth	r2, r3
 1242 020c 7B69     		ldr	r3, [r7, #20]
 1243 020e 9B88     		ldrh	r3, [r3, #4]
 1244 0210 9A42     		cmp	r2, r3
 1245 0212 11D2     		bcs	.L84
 625:.\Generated_Source\PSoC5/USBFS_std.c ****                         {
 626:.\Generated_Source\PSoC5/USBFS_std.c ****                             USBFS_EP[i].bufferSize = pEP->bufferSize;
 1246              		.loc 1 626 0
 1247 0214 797F     		ldrb	r1, [r7, #29]	@ zero_extendqisi2
 1248 0216 7B69     		ldr	r3, [r7, #20]
 1249 0218 9888     		ldrh	r0, [r3, #4]
 1250 021a 40F20002 		movw	r2, #:lower16:USBFS_EP
 1251 021e C0F20002 		movt	r2, #:upper16:USBFS_EP
 1252 0222 0B46     		mov	r3, r1
 1253 0224 4FEA4303 		lsl	r3, r3, #1
 1254 0228 5B18     		adds	r3, r3, r1
 1255 022a 4FEA8303 		lsl	r3, r3, #2
 1256 022e D318     		adds	r3, r2, r3
 1257 0230 03F10803 		add	r3, r3, #8
 1258 0234 0246     		mov	r2, r0	@ movhi
 1259 0236 1A80     		strh	r2, [r3, #0]	@ movhi
 1260              	.L84:
 627:.\Generated_Source\PSoC5/USBFS_std.c ****                         }
 628:.\Generated_Source\PSoC5/USBFS_std.c ****                         /* Compare current Alternate setting with EP Alt*/
 629:.\Generated_Source\PSoC5/USBFS_std.c ****                         if(USBFS_interfaceSetting[pEP->interface] == pEP->altSetting)
 1261              		.loc 1 629 0
 1262 0238 7B69     		ldr	r3, [r7, #20]
 1263 023a 1B78     		ldrb	r3, [r3, #0]	@ zero_extendqisi2
 1264 023c 1A46     		mov	r2, r3
ARM GAS  C:\Users\VICTOR~1\AppData\Local\Temp\ccl24Kua.s 			page 35


 1265 023e 40F20003 		movw	r3, #:lower16:USBFS_interfaceSetting
 1266 0242 C0F20003 		movt	r3, #:upper16:USBFS_interfaceSetting
 1267 0246 9B5C     		ldrb	r3, [r3, r2]
 1268 0248 DAB2     		uxtb	r2, r3
 1269 024a 7B69     		ldr	r3, [r7, #20]
 1270 024c 5B78     		ldrb	r3, [r3, #1]	@ zero_extendqisi2
 1271 024e 9A42     		cmp	r2, r3
 1272 0250 75D1     		bne	.L83
 630:.\Generated_Source\PSoC5/USBFS_std.c ****                         {
 631:.\Generated_Source\PSoC5/USBFS_std.c ****                             epType = pEP->attributes & USBFS_EP_TYPE_MASK;
 1273              		.loc 1 631 0
 1274 0252 7B69     		ldr	r3, [r7, #20]
 1275 0254 DB78     		ldrb	r3, [r3, #3]	@ zero_extendqisi2
 1276 0256 03F00303 		and	r3, r3, #3
 1277 025a FB72     		strb	r3, [r7, #11]
 632:.\Generated_Source\PSoC5/USBFS_std.c ****                             if ((pEP->addr & USBFS_DIR_IN) != 0u)
 1278              		.loc 1 632 0
 1279 025c 7B69     		ldr	r3, [r7, #20]
 1280 025e 9B78     		ldrb	r3, [r3, #2]	@ zero_extendqisi2
 1281 0260 DBB2     		uxtb	r3, r3
 1282 0262 5BB2     		sxtb	r3, r3
 1283 0264 002B     		cmp	r3, #0
 1284 0266 25DA     		bge	.L85
 633:.\Generated_Source\PSoC5/USBFS_std.c ****                             {
 634:.\Generated_Source\PSoC5/USBFS_std.c ****                                 /* IN Endpoint */
 635:.\Generated_Source\PSoC5/USBFS_std.c ****                                 USBFS_EP[i].apiEpState = USBFS_EVENT_PENDING;
 1285              		.loc 1 635 0
 1286 0268 797F     		ldrb	r1, [r7, #29]	@ zero_extendqisi2
 1287 026a 40F20002 		movw	r2, #:lower16:USBFS_EP
 1288 026e C0F20002 		movt	r2, #:upper16:USBFS_EP
 1289 0272 0B46     		mov	r3, r1
 1290 0274 4FEA4303 		lsl	r3, r3, #1
 1291 0278 5B18     		adds	r3, r3, r1
 1292 027a 4FEA8303 		lsl	r3, r3, #2
 1293 027e D318     		adds	r3, r2, r3
 1294 0280 4FF00102 		mov	r2, #1
 1295 0284 5A70     		strb	r2, [r3, #1]
 636:.\Generated_Source\PSoC5/USBFS_std.c ****                                 USBFS_EP[i].epMode = (epType == USBFS_EP_TYPE_ISOC) ?
 1296              		.loc 1 636 0
 1297 0286 787F     		ldrb	r0, [r7, #29]	@ zero_extendqisi2
 1298 0288 FB7A     		ldrb	r3, [r7, #11]	@ zero_extendqisi2
 1299 028a 012B     		cmp	r3, #1
 1300 028c 02D1     		bne	.L86
 1301              		.loc 1 636 0 is_stmt 0 discriminator 1
 1302 028e 4FF00701 		mov	r1, #7
 1303 0292 01E0     		b	.L87
 1304              	.L86:
 1305              		.loc 1 636 0 discriminator 2
 1306 0294 4FF00D01 		mov	r1, #13
 1307              	.L87:
 1308              		.loc 1 636 0 discriminator 3
 1309 0298 40F20002 		movw	r2, #:lower16:USBFS_EP
 1310 029c C0F20002 		movt	r2, #:upper16:USBFS_EP
 1311 02a0 0346     		mov	r3, r0
 1312 02a2 4FEA4303 		lsl	r3, r3, #1
 1313 02a6 1B18     		adds	r3, r3, r0
 1314 02a8 4FEA8303 		lsl	r3, r3, #2
ARM GAS  C:\Users\VICTOR~1\AppData\Local\Temp\ccl24Kua.s 			page 36


 1315 02ac D318     		adds	r3, r2, r3
 1316 02ae 0A46     		mov	r2, r1
 1317 02b0 5A71     		strb	r2, [r3, #5]
 1318 02b2 24E0     		b	.L88
 1319              	.L85:
 637:.\Generated_Source\PSoC5/USBFS_std.c ****                                                         USBFS_MODE_ISO_IN : USBFS_MODE_ACK_IN;
 638:.\Generated_Source\PSoC5/USBFS_std.c ****                                 /* Find and initialize CDC IN endpoint number */
 639:.\Generated_Source\PSoC5/USBFS_std.c ****                                 #if defined(USBFS_ENABLE_CDC_CLASS)
 640:.\Generated_Source\PSoC5/USBFS_std.c ****                                     if(((pEP->bMisc == USBFS_CLASS_CDC_DATA) ||
 641:.\Generated_Source\PSoC5/USBFS_std.c ****                                         (pEP->bMisc == USBFS_CLASS_CDC)) &&
 642:.\Generated_Source\PSoC5/USBFS_std.c ****                                         (epType != USBFS_EP_TYPE_INT))
 643:.\Generated_Source\PSoC5/USBFS_std.c ****                                     {
 644:.\Generated_Source\PSoC5/USBFS_std.c ****                                         USBFS_cdc_data_in_ep = i;
 645:.\Generated_Source\PSoC5/USBFS_std.c ****                                     }
 646:.\Generated_Source\PSoC5/USBFS_std.c ****                                 #endif  /*  USBFS_ENABLE_CDC_CLASS*/
 647:.\Generated_Source\PSoC5/USBFS_std.c ****                                 #if ( defined(USBFS_ENABLE_MIDI_STREAMING) && \
 648:.\Generated_Source\PSoC5/USBFS_std.c ****                                              (USBFS_MIDI_IN_BUFF_SIZE > 0) )
 649:.\Generated_Source\PSoC5/USBFS_std.c ****                                     if((pEP->bMisc == USBFS_CLASS_AUDIO) &&
 650:.\Generated_Source\PSoC5/USBFS_std.c ****                                        (epType == USBFS_EP_TYPE_BULK))
 651:.\Generated_Source\PSoC5/USBFS_std.c ****                                     {
 652:.\Generated_Source\PSoC5/USBFS_std.c ****                                         USBFS_midi_in_ep = i;
 653:.\Generated_Source\PSoC5/USBFS_std.c ****                                     }
 654:.\Generated_Source\PSoC5/USBFS_std.c ****                                 #endif  /*  USBFS_ENABLE_MIDI_STREAMING*/
 655:.\Generated_Source\PSoC5/USBFS_std.c ****                             }
 656:.\Generated_Source\PSoC5/USBFS_std.c ****                             else
 657:.\Generated_Source\PSoC5/USBFS_std.c ****                             {
 658:.\Generated_Source\PSoC5/USBFS_std.c ****                                 /* OUT Endpoint */
 659:.\Generated_Source\PSoC5/USBFS_std.c ****                                 USBFS_EP[i].apiEpState = USBFS_NO_EVENT_PENDING;
 1320              		.loc 1 659 0 is_stmt 1
 1321 02b4 797F     		ldrb	r1, [r7, #29]	@ zero_extendqisi2
 1322 02b6 40F20002 		movw	r2, #:lower16:USBFS_EP
 1323 02ba C0F20002 		movt	r2, #:upper16:USBFS_EP
 1324 02be 0B46     		mov	r3, r1
 1325 02c0 4FEA4303 		lsl	r3, r3, #1
 1326 02c4 5B18     		adds	r3, r3, r1
 1327 02c6 4FEA8303 		lsl	r3, r3, #2
 1328 02ca D318     		adds	r3, r2, r3
 1329 02cc 4FF00002 		mov	r2, #0
 1330 02d0 5A70     		strb	r2, [r3, #1]
 660:.\Generated_Source\PSoC5/USBFS_std.c ****                                 USBFS_EP[i].epMode = (epType == USBFS_EP_TYPE_ISOC) ?
 1331              		.loc 1 660 0
 1332 02d2 787F     		ldrb	r0, [r7, #29]	@ zero_extendqisi2
 1333 02d4 FB7A     		ldrb	r3, [r7, #11]	@ zero_extendqisi2
 1334 02d6 012B     		cmp	r3, #1
 1335 02d8 02D1     		bne	.L89
 1336              		.loc 1 660 0 is_stmt 0 discriminator 1
 1337 02da 4FF00501 		mov	r1, #5
 1338 02de 01E0     		b	.L90
 1339              	.L89:
 1340              		.loc 1 660 0 discriminator 2
 1341 02e0 4FF00901 		mov	r1, #9
 1342              	.L90:
 1343              		.loc 1 660 0 discriminator 3
 1344 02e4 40F20002 		movw	r2, #:lower16:USBFS_EP
 1345 02e8 C0F20002 		movt	r2, #:upper16:USBFS_EP
 1346 02ec 0346     		mov	r3, r0
 1347 02ee 4FEA4303 		lsl	r3, r3, #1
ARM GAS  C:\Users\VICTOR~1\AppData\Local\Temp\ccl24Kua.s 			page 37


 1348 02f2 1B18     		adds	r3, r3, r0
 1349 02f4 4FEA8303 		lsl	r3, r3, #2
 1350 02f8 D318     		adds	r3, r2, r3
 1351 02fa 0A46     		mov	r2, r1
 1352 02fc 5A71     		strb	r2, [r3, #5]
 1353              	.L88:
 661:.\Generated_Source\PSoC5/USBFS_std.c ****                                                     USBFS_MODE_ISO_OUT : USBFS_MODE_ACK_OUT;
 662:.\Generated_Source\PSoC5/USBFS_std.c ****                                 /* Find and initialize CDC IN endpoint number */
 663:.\Generated_Source\PSoC5/USBFS_std.c ****                                 #if defined(USBFS_ENABLE_CDC_CLASS)
 664:.\Generated_Source\PSoC5/USBFS_std.c ****                                     if(((pEP->bMisc == USBFS_CLASS_CDC_DATA) ||
 665:.\Generated_Source\PSoC5/USBFS_std.c ****                                         (pEP->bMisc == USBFS_CLASS_CDC)) &&
 666:.\Generated_Source\PSoC5/USBFS_std.c ****                                         (epType != USBFS_EP_TYPE_INT))
 667:.\Generated_Source\PSoC5/USBFS_std.c ****                                     {
 668:.\Generated_Source\PSoC5/USBFS_std.c ****                                         USBFS_cdc_data_out_ep = i;
 669:.\Generated_Source\PSoC5/USBFS_std.c ****                                     }
 670:.\Generated_Source\PSoC5/USBFS_std.c ****                                 #endif  /*  USBFS_ENABLE_CDC_CLASS*/
 671:.\Generated_Source\PSoC5/USBFS_std.c ****                                 #if ( defined(USBFS_ENABLE_MIDI_STREAMING) && \
 672:.\Generated_Source\PSoC5/USBFS_std.c ****                                              (USBFS_MIDI_OUT_BUFF_SIZE > 0) )
 673:.\Generated_Source\PSoC5/USBFS_std.c ****                                     if((pEP->bMisc == USBFS_CLASS_AUDIO) &&
 674:.\Generated_Source\PSoC5/USBFS_std.c ****                                        (epType == USBFS_EP_TYPE_BULK))
 675:.\Generated_Source\PSoC5/USBFS_std.c ****                                     {
 676:.\Generated_Source\PSoC5/USBFS_std.c ****                                         USBFS_midi_out_ep = i;
 677:.\Generated_Source\PSoC5/USBFS_std.c ****                                     }
 678:.\Generated_Source\PSoC5/USBFS_std.c ****                                 #endif  /*  USBFS_ENABLE_MIDI_STREAMING*/
 679:.\Generated_Source\PSoC5/USBFS_std.c ****                             }
 680:.\Generated_Source\PSoC5/USBFS_std.c ****                             USBFS_EP[i].addr = pEP->addr;
 1354              		.loc 1 680 0 is_stmt 1
 1355 02fe 797F     		ldrb	r1, [r7, #29]	@ zero_extendqisi2
 1356 0300 7B69     		ldr	r3, [r7, #20]
 1357 0302 9878     		ldrb	r0, [r3, #2]	@ zero_extendqisi2
 1358 0304 40F20002 		movw	r2, #:lower16:USBFS_EP
 1359 0308 C0F20002 		movt	r2, #:upper16:USBFS_EP
 1360 030c 0B46     		mov	r3, r1
 1361 030e 4FEA4303 		lsl	r3, r3, #1
 1362 0312 5B18     		adds	r3, r3, r1
 1363 0314 4FEA8303 		lsl	r3, r3, #2
 1364 0318 D318     		adds	r3, r2, r3
 1365 031a 0246     		mov	r2, r0
 1366 031c 1A71     		strb	r2, [r3, #4]
 681:.\Generated_Source\PSoC5/USBFS_std.c ****                             USBFS_EP[i].attrib = pEP->attributes;
 1367              		.loc 1 681 0
 1368 031e 797F     		ldrb	r1, [r7, #29]	@ zero_extendqisi2
 1369 0320 7B69     		ldr	r3, [r7, #20]
 1370 0322 D878     		ldrb	r0, [r3, #3]	@ zero_extendqisi2
 1371 0324 40F20002 		movw	r2, #:lower16:USBFS_EP
 1372 0328 C0F20002 		movt	r2, #:upper16:USBFS_EP
 1373 032c 0B46     		mov	r3, r1
 1374 032e 4FEA4303 		lsl	r3, r3, #1
 1375 0332 5B18     		adds	r3, r3, r1
 1376 0334 4FEA8303 		lsl	r3, r3, #2
 1377 0338 D318     		adds	r3, r2, r3
 1378 033a 0246     		mov	r2, r0
 1379 033c 1A70     		strb	r2, [r3, #0]
 1380              	.L83:
 682:.\Generated_Source\PSoC5/USBFS_std.c **** 
 683:.\Generated_Source\PSoC5/USBFS_std.c ****                             #if(USBFS_EP_MM == USBFS__EP_DMAAUTO)
 684:.\Generated_Source\PSoC5/USBFS_std.c ****                                 break;      /* use first EP setting in Auto memory managment */
ARM GAS  C:\Users\VICTOR~1\AppData\Local\Temp\ccl24Kua.s 			page 38


 685:.\Generated_Source\PSoC5/USBFS_std.c ****                             #endif /*  USBFS_EP_MM == USBFS__EP_DMAAUTO */
 686:.\Generated_Source\PSoC5/USBFS_std.c ****                         }
 687:.\Generated_Source\PSoC5/USBFS_std.c ****                     }
 688:.\Generated_Source\PSoC5/USBFS_std.c ****                     pEP = &pEP[1u];
 1381              		.loc 1 688 0
 1382 033e 7B69     		ldr	r3, [r7, #20]
 1383 0340 03F10803 		add	r3, r3, #8
 1384 0344 7B61     		str	r3, [r7, #20]
 619:.\Generated_Source\PSoC5/USBFS_std.c ****                 for (cur_ep = 0u; cur_ep < ep; cur_ep++)
 1385              		.loc 1 619 0
 1386 0346 BB7F     		ldrb	r3, [r7, #30]
 1387 0348 03F10103 		add	r3, r3, #1
 1388 034c BB77     		strb	r3, [r7, #30]
 1389              	.L82:
 619:.\Generated_Source\PSoC5/USBFS_std.c ****                 for (cur_ep = 0u; cur_ep < ep; cur_ep++)
 1390              		.loc 1 619 0 is_stmt 0 discriminator 1
 1391 034e BA7F     		ldrb	r2, [r7, #30]	@ zero_extendqisi2
 1392 0350 FB7F     		ldrb	r3, [r7, #31]	@ zero_extendqisi2
 1393 0352 9A42     		cmp	r2, r3
 1394 0354 FFF442AF 		bcc	.L91
 613:.\Generated_Source\PSoC5/USBFS_std.c ****             for (i = USBFS_EP1; i < USBFS_MAX_EP; i++)
 1395              		.loc 1 613 0 is_stmt 1
 1396 0358 7B7F     		ldrb	r3, [r7, #29]
 1397 035a 03F10103 		add	r3, r3, #1
 1398 035e 7B77     		strb	r3, [r7, #29]
 1399              	.L81:
 613:.\Generated_Source\PSoC5/USBFS_std.c ****             for (i = USBFS_EP1; i < USBFS_MAX_EP; i++)
 1400              		.loc 1 613 0 is_stmt 0 discriminator 1
 1401 0360 7B7F     		ldrb	r3, [r7, #29]	@ zero_extendqisi2
 1402 0362 082B     		cmp	r3, #8
 1403 0364 7FF633AF 		bls	.L92
 689:.\Generated_Source\PSoC5/USBFS_std.c ****                 }
 690:.\Generated_Source\PSoC5/USBFS_std.c ****             }
 691:.\Generated_Source\PSoC5/USBFS_std.c ****         #endif /*  (USBFS_EP_MA == USBFS__MA_DYNAMIC) */
 692:.\Generated_Source\PSoC5/USBFS_std.c **** 
 693:.\Generated_Source\PSoC5/USBFS_std.c ****         /* Init class array for each interface and interface number for each EP.
 694:.\Generated_Source\PSoC5/USBFS_std.c ****         *  It is used for handling Class specific requests directed to either an
 695:.\Generated_Source\PSoC5/USBFS_std.c ****         *  interface or the endpoint.
 696:.\Generated_Source\PSoC5/USBFS_std.c ****         */
 697:.\Generated_Source\PSoC5/USBFS_std.c ****         /* p_list points the endpoint setting table. */
 698:.\Generated_Source\PSoC5/USBFS_std.c ****         pEP = (const T_USBFS_EP_SETTINGS_BLOCK CYCODE *) pTmp->p_list;
 1404              		.loc 1 698 0 is_stmt 1
 1405 0368 3B69     		ldr	r3, [r7, #16]
 1406 036a 5B68     		ldr	r3, [r3, #4]
 1407 036c 7B61     		str	r3, [r7, #20]
 699:.\Generated_Source\PSoC5/USBFS_std.c ****         for (i = 0u; i < ep; i++)
 1408              		.loc 1 699 0
 1409 036e 4FF00003 		mov	r3, #0
 1410 0372 7B77     		strb	r3, [r7, #29]
 1411 0374 1CE0     		b	.L93
 1412              	.L94:
 700:.\Generated_Source\PSoC5/USBFS_std.c ****         {
 701:.\Generated_Source\PSoC5/USBFS_std.c ****             /* Configure interface number for each EP*/
 702:.\Generated_Source\PSoC5/USBFS_std.c ****             USBFS_EP[pEP->addr & USBFS_DIR_UNUSED].interface = pEP->interface;
 1413              		.loc 1 702 0 discriminator 2
 1414 0376 7B69     		ldr	r3, [r7, #20]
 1415 0378 9B78     		ldrb	r3, [r3, #2]	@ zero_extendqisi2
ARM GAS  C:\Users\VICTOR~1\AppData\Local\Temp\ccl24Kua.s 			page 39


 1416 037a 03F07F01 		and	r1, r3, #127
 1417 037e 7B69     		ldr	r3, [r7, #20]
 1418 0380 1878     		ldrb	r0, [r3, #0]	@ zero_extendqisi2
 1419 0382 40F20002 		movw	r2, #:lower16:USBFS_EP
 1420 0386 C0F20002 		movt	r2, #:upper16:USBFS_EP
 1421 038a 0B46     		mov	r3, r1
 1422 038c 4FEA4303 		lsl	r3, r3, #1
 1423 0390 5B18     		adds	r3, r3, r1
 1424 0392 4FEA8303 		lsl	r3, r3, #2
 1425 0396 D318     		adds	r3, r2, r3
 1426 0398 03F10803 		add	r3, r3, #8
 1427 039c 0246     		mov	r2, r0
 1428 039e 9A70     		strb	r2, [r3, #2]
 703:.\Generated_Source\PSoC5/USBFS_std.c ****             pEP = &pEP[1u];
 1429              		.loc 1 703 0 discriminator 2
 1430 03a0 7B69     		ldr	r3, [r7, #20]
 1431 03a2 03F10803 		add	r3, r3, #8
 1432 03a6 7B61     		str	r3, [r7, #20]
 699:.\Generated_Source\PSoC5/USBFS_std.c ****         for (i = 0u; i < ep; i++)
 1433              		.loc 1 699 0 discriminator 2
 1434 03a8 7B7F     		ldrb	r3, [r7, #29]
 1435 03aa 03F10103 		add	r3, r3, #1
 1436 03ae 7B77     		strb	r3, [r7, #29]
 1437              	.L93:
 699:.\Generated_Source\PSoC5/USBFS_std.c ****         for (i = 0u; i < ep; i++)
 1438              		.loc 1 699 0 is_stmt 0 discriminator 1
 1439 03b0 7A7F     		ldrb	r2, [r7, #29]	@ zero_extendqisi2
 1440 03b2 FB7F     		ldrb	r3, [r7, #31]	@ zero_extendqisi2
 1441 03b4 9A42     		cmp	r2, r3
 1442 03b6 DED3     		bcc	.L94
 704:.\Generated_Source\PSoC5/USBFS_std.c ****         }
 705:.\Generated_Source\PSoC5/USBFS_std.c ****         /* Init pointer on interface class table*/
 706:.\Generated_Source\PSoC5/USBFS_std.c ****         USBFS_interfaceClass = USBFS_GetInterfaceClassTablePtr();
 1443              		.loc 1 706 0 is_stmt 1
 1444 03b8 FFF7FEFF 		bl	USBFS_GetInterfaceClassTablePtr
 1445 03bc 0246     		mov	r2, r0
 1446 03be 40F20003 		movw	r3, #:lower16:USBFS_interfaceClass
 1447 03c2 C0F20003 		movt	r3, #:upper16:USBFS_interfaceClass
 1448 03c6 1A60     		str	r2, [r3, #0]
 707:.\Generated_Source\PSoC5/USBFS_std.c ****         /* Set the endpoint buffer addresses */
 708:.\Generated_Source\PSoC5/USBFS_std.c **** 
 709:.\Generated_Source\PSoC5/USBFS_std.c ****         #if(USBFS_EP_MM != USBFS__EP_DMAAUTO)
 710:.\Generated_Source\PSoC5/USBFS_std.c ****             for (ep = USBFS_EP1; ep < USBFS_MAX_EP; ep++)
 1449              		.loc 1 710 0
 1450 03c8 4FF00103 		mov	r3, #1
 1451 03cc FB77     		strb	r3, [r7, #31]
 1452 03ce 24E0     		b	.L95
 1453              	.L96:
 711:.\Generated_Source\PSoC5/USBFS_std.c ****             {
 712:.\Generated_Source\PSoC5/USBFS_std.c ****                 USBFS_EP[ep].buffOffset = buffCount;
 1454              		.loc 1 712 0 discriminator 2
 1455 03d0 F97F     		ldrb	r1, [r7, #31]	@ zero_extendqisi2
 1456 03d2 40F20002 		movw	r2, #:lower16:USBFS_EP
 1457 03d6 C0F20002 		movt	r2, #:upper16:USBFS_EP
 1458 03da 0B46     		mov	r3, r1
 1459 03dc 4FEA4303 		lsl	r3, r3, #1
 1460 03e0 5B18     		adds	r3, r3, r1
ARM GAS  C:\Users\VICTOR~1\AppData\Local\Temp\ccl24Kua.s 			page 40


 1461 03e2 4FEA8303 		lsl	r3, r3, #2
 1462 03e6 D318     		adds	r3, r2, r3
 1463 03e8 7A8B     		ldrh	r2, [r7, #26]	@ movhi
 1464 03ea DA80     		strh	r2, [r3, #6]	@ movhi
 713:.\Generated_Source\PSoC5/USBFS_std.c ****                  buffCount += USBFS_EP[ep].bufferSize;
 1465              		.loc 1 713 0 discriminator 2
 1466 03ec F97F     		ldrb	r1, [r7, #31]	@ zero_extendqisi2
 1467 03ee 40F20002 		movw	r2, #:lower16:USBFS_EP
 1468 03f2 C0F20002 		movt	r2, #:upper16:USBFS_EP
 1469 03f6 0B46     		mov	r3, r1
 1470 03f8 4FEA4303 		lsl	r3, r3, #1
 1471 03fc 5B18     		adds	r3, r3, r1
 1472 03fe 4FEA8303 		lsl	r3, r3, #2
 1473 0402 D318     		adds	r3, r2, r3
 1474 0404 03F10803 		add	r3, r3, #8
 1475 0408 1B88     		ldrh	r3, [r3, #0]	@ movhi
 1476 040a 9AB2     		uxth	r2, r3
 1477 040c 7B8B     		ldrh	r3, [r7, #26]	@ movhi
 1478 040e D318     		adds	r3, r2, r3
 1479 0410 7B83     		strh	r3, [r7, #26]	@ movhi
 710:.\Generated_Source\PSoC5/USBFS_std.c ****             for (ep = USBFS_EP1; ep < USBFS_MAX_EP; ep++)
 1480              		.loc 1 710 0 discriminator 2
 1481 0412 FB7F     		ldrb	r3, [r7, #31]
 1482 0414 03F10103 		add	r3, r3, #1
 1483 0418 FB77     		strb	r3, [r7, #31]
 1484              	.L95:
 710:.\Generated_Source\PSoC5/USBFS_std.c ****             for (ep = USBFS_EP1; ep < USBFS_MAX_EP; ep++)
 1485              		.loc 1 710 0 is_stmt 0 discriminator 1
 1486 041a FB7F     		ldrb	r3, [r7, #31]	@ zero_extendqisi2
 1487 041c 082B     		cmp	r3, #8
 1488 041e D7D9     		bls	.L96
 714:.\Generated_Source\PSoC5/USBFS_std.c ****             }
 715:.\Generated_Source\PSoC5/USBFS_std.c ****         #endif /*  USBFS_EP_MM != USBFS__EP_DMAAUTO */
 716:.\Generated_Source\PSoC5/USBFS_std.c **** 
 717:.\Generated_Source\PSoC5/USBFS_std.c ****         /* Configure hardware registers */
 718:.\Generated_Source\PSoC5/USBFS_std.c ****         USBFS_ConfigReg();
 1489              		.loc 1 718 0 is_stmt 1
 1490 0420 FFF7FEFF 		bl	USBFS_ConfigReg
 1491              	.L72:
 719:.\Generated_Source\PSoC5/USBFS_std.c ****     } /* USBFS_configuration > 0 */
 720:.\Generated_Source\PSoC5/USBFS_std.c **** }
 1492              		.loc 1 720 0
 1493 0424 07F12007 		add	r7, r7, #32
 1494 0428 BD46     		mov	sp, r7
 1495 042a 80BD     		pop	{r7, pc}
 1496              		.cfi_endproc
 1497              	.LFE2:
 1498              		.size	USBFS_Config, .-USBFS_Config
 1499              		.section	.text.USBFS_ConfigAltChanged,"ax",%progbits
 1500              		.align	2
 1501              		.global	USBFS_ConfigAltChanged
 1502              		.thumb
 1503              		.thumb_func
 1504              		.type	USBFS_ConfigAltChanged, %function
 1505              	USBFS_ConfigAltChanged:
 1506              	.LFB3:
 721:.\Generated_Source\PSoC5/USBFS_std.c **** 
ARM GAS  C:\Users\VICTOR~1\AppData\Local\Temp\ccl24Kua.s 			page 41


 722:.\Generated_Source\PSoC5/USBFS_std.c **** 
 723:.\Generated_Source\PSoC5/USBFS_std.c **** /*******************************************************************************
 724:.\Generated_Source\PSoC5/USBFS_std.c **** * Function Name: USBFS_ConfigAltChanged
 725:.\Generated_Source\PSoC5/USBFS_std.c **** ********************************************************************************
 726:.\Generated_Source\PSoC5/USBFS_std.c **** *
 727:.\Generated_Source\PSoC5/USBFS_std.c **** * Summary:
 728:.\Generated_Source\PSoC5/USBFS_std.c **** *  This routine update configuration for the required endpoints only.
 729:.\Generated_Source\PSoC5/USBFS_std.c **** *  It is called after SET_INTERFACE request when Static memory allocation used.
 730:.\Generated_Source\PSoC5/USBFS_std.c **** *
 731:.\Generated_Source\PSoC5/USBFS_std.c **** * Parameters:
 732:.\Generated_Source\PSoC5/USBFS_std.c **** *  None.
 733:.\Generated_Source\PSoC5/USBFS_std.c **** *
 734:.\Generated_Source\PSoC5/USBFS_std.c **** * Return:
 735:.\Generated_Source\PSoC5/USBFS_std.c **** *  None.
 736:.\Generated_Source\PSoC5/USBFS_std.c **** *
 737:.\Generated_Source\PSoC5/USBFS_std.c **** * Reentrant:
 738:.\Generated_Source\PSoC5/USBFS_std.c **** *  No.
 739:.\Generated_Source\PSoC5/USBFS_std.c **** *
 740:.\Generated_Source\PSoC5/USBFS_std.c **** *******************************************************************************/
 741:.\Generated_Source\PSoC5/USBFS_std.c **** void USBFS_ConfigAltChanged(void) 
 742:.\Generated_Source\PSoC5/USBFS_std.c **** {
 1507              		.loc 1 742 0
 1508              		.cfi_startproc
 1509              		@ args = 0, pretend = 0, frame = 16
 1510              		@ frame_needed = 1, uses_anonymous_args = 0
 1511 0000 80B5     		push	{r7, lr}
 1512              	.LCFI9:
 1513              		.cfi_def_cfa_offset 8
 1514              		.cfi_offset 7, -8
 1515              		.cfi_offset 14, -4
 1516 0002 84B0     		sub	sp, sp, #16
 1517              	.LCFI10:
 1518              		.cfi_def_cfa_offset 24
 1519 0004 00AF     		add	r7, sp, #0
 1520              	.LCFI11:
 1521              		.cfi_def_cfa_register 7
 743:.\Generated_Source\PSoC5/USBFS_std.c ****     uint8 ep;
 744:.\Generated_Source\PSoC5/USBFS_std.c ****     uint8 cur_ep;
 745:.\Generated_Source\PSoC5/USBFS_std.c ****     uint8 i;
 746:.\Generated_Source\PSoC5/USBFS_std.c ****     uint8 epType;
 747:.\Generated_Source\PSoC5/USBFS_std.c ****     uint8 ri;
 748:.\Generated_Source\PSoC5/USBFS_std.c **** 
 749:.\Generated_Source\PSoC5/USBFS_std.c ****     const T_USBFS_LUT CYCODE *pTmp;
 750:.\Generated_Source\PSoC5/USBFS_std.c ****     const T_USBFS_EP_SETTINGS_BLOCK CYCODE *pEP;
 751:.\Generated_Source\PSoC5/USBFS_std.c **** 
 752:.\Generated_Source\PSoC5/USBFS_std.c **** 
 753:.\Generated_Source\PSoC5/USBFS_std.c ****     /* Init Endpoints and Device Status if configured */
 754:.\Generated_Source\PSoC5/USBFS_std.c ****     if(USBFS_configuration > 0u)
 1522              		.loc 1 754 0
 1523 0006 40F20003 		movw	r3, #:lower16:USBFS_configuration
 1524 000a C0F20003 		movt	r3, #:upper16:USBFS_configuration
 1525 000e 1B78     		ldrb	r3, [r3, #0]
 1526 0010 DBB2     		uxtb	r3, r3
 1527 0012 002B     		cmp	r3, #0
 1528 0014 00F09981 		beq	.L97
 755:.\Generated_Source\PSoC5/USBFS_std.c ****     {
 756:.\Generated_Source\PSoC5/USBFS_std.c ****         pTmp = USBFS_GetConfigTablePtr(USBFS_configuration - 1u);
ARM GAS  C:\Users\VICTOR~1\AppData\Local\Temp\ccl24Kua.s 			page 42


 1529              		.loc 1 756 0
 1530 0018 40F20003 		movw	r3, #:lower16:USBFS_configuration
 1531 001c C0F20003 		movt	r3, #:upper16:USBFS_configuration
 1532 0020 1B78     		ldrb	r3, [r3, #0]
 1533 0022 DBB2     		uxtb	r3, r3
 1534 0024 03F1FF33 		add	r3, r3, #-1
 1535 0028 DBB2     		uxtb	r3, r3
 1536 002a 1846     		mov	r0, r3
 1537 002c FFF7FEFF 		bl	USBFS_GetConfigTablePtr
 1538 0030 7860     		str	r0, [r7, #4]
 757:.\Generated_Source\PSoC5/USBFS_std.c ****         pTmp = &pTmp[1u];
 1539              		.loc 1 757 0
 1540 0032 7B68     		ldr	r3, [r7, #4]
 1541 0034 03F10803 		add	r3, r3, #8
 1542 0038 7B60     		str	r3, [r7, #4]
 758:.\Generated_Source\PSoC5/USBFS_std.c ****         ep = pTmp->c;  /* For this table, c is the number of endpoints configurations  */
 1543              		.loc 1 758 0
 1544 003a 7B68     		ldr	r3, [r7, #4]
 1545 003c 1B78     		ldrb	r3, [r3, #0]
 1546 003e FB70     		strb	r3, [r7, #3]
 759:.\Generated_Source\PSoC5/USBFS_std.c **** 
 760:.\Generated_Source\PSoC5/USBFS_std.c ****         /* Do not touch EP which doesn't need reconfiguration */
 761:.\Generated_Source\PSoC5/USBFS_std.c ****         /* When Alt setting changed, the only required endpoints need to be reconfigured */
 762:.\Generated_Source\PSoC5/USBFS_std.c ****         /* p_list points the endpoint setting table. */
 763:.\Generated_Source\PSoC5/USBFS_std.c ****         pEP = (const T_USBFS_EP_SETTINGS_BLOCK CYCODE *) pTmp->p_list;
 1547              		.loc 1 763 0
 1548 0040 7B68     		ldr	r3, [r7, #4]
 1549 0042 5B68     		ldr	r3, [r3, #4]
 1550 0044 BB60     		str	r3, [r7, #8]
 764:.\Generated_Source\PSoC5/USBFS_std.c ****         for (i = 0u; i < ep; i++)
 1551              		.loc 1 764 0
 1552 0046 4FF00003 		mov	r3, #0
 1553 004a FB73     		strb	r3, [r7, #15]
 1554 004c 78E1     		b	.L99
 1555              	.L107:
 765:.\Generated_Source\PSoC5/USBFS_std.c ****         {
 766:.\Generated_Source\PSoC5/USBFS_std.c ****             /*If Alt setting changed and new is same with EP Alt */
 767:.\Generated_Source\PSoC5/USBFS_std.c ****             if((USBFS_interfaceSetting[pEP->interface] !=
 1556              		.loc 1 767 0
 1557 004e BB68     		ldr	r3, [r7, #8]
 1558 0050 1B78     		ldrb	r3, [r3, #0]	@ zero_extendqisi2
 1559 0052 1A46     		mov	r2, r3
 1560 0054 40F20003 		movw	r3, #:lower16:USBFS_interfaceSetting
 1561 0058 C0F20003 		movt	r3, #:upper16:USBFS_interfaceSetting
 1562 005c 9B5C     		ldrb	r3, [r3, r2]
 1563 005e DAB2     		uxtb	r2, r3
 768:.\Generated_Source\PSoC5/USBFS_std.c ****                 USBFS_interfaceSetting_last[pEP->interface] ) &&
 1564              		.loc 1 768 0
 1565 0060 BB68     		ldr	r3, [r7, #8]
 1566 0062 1B78     		ldrb	r3, [r3, #0]	@ zero_extendqisi2
 1567 0064 1946     		mov	r1, r3
 1568 0066 40F20003 		movw	r3, #:lower16:USBFS_interfaceSetting_last
 1569 006a C0F20003 		movt	r3, #:upper16:USBFS_interfaceSetting_last
 1570 006e 5B5C     		ldrb	r3, [r3, r1]
 1571 0070 DBB2     		uxtb	r3, r3
 767:.\Generated_Source\PSoC5/USBFS_std.c ****             if((USBFS_interfaceSetting[pEP->interface] !=
 1572              		.loc 1 767 0
ARM GAS  C:\Users\VICTOR~1\AppData\Local\Temp\ccl24Kua.s 			page 43


 1573 0072 9A42     		cmp	r2, r3
 1574 0074 00F05C81 		beq	.L100
 769:.\Generated_Source\PSoC5/USBFS_std.c ****                (USBFS_interfaceSetting[pEP->interface] == pEP->altSetting) &&
 1575              		.loc 1 769 0
 1576 0078 BB68     		ldr	r3, [r7, #8]
 1577 007a 1B78     		ldrb	r3, [r3, #0]	@ zero_extendqisi2
 1578 007c 1A46     		mov	r2, r3
 1579 007e 40F20003 		movw	r3, #:lower16:USBFS_interfaceSetting
 1580 0082 C0F20003 		movt	r3, #:upper16:USBFS_interfaceSetting
 1581 0086 9B5C     		ldrb	r3, [r3, r2]
 1582 0088 DAB2     		uxtb	r2, r3
 1583 008a BB68     		ldr	r3, [r7, #8]
 1584 008c 5B78     		ldrb	r3, [r3, #1]	@ zero_extendqisi2
 768:.\Generated_Source\PSoC5/USBFS_std.c ****                 USBFS_interfaceSetting_last[pEP->interface] ) &&
 1585              		.loc 1 768 0
 1586 008e 9A42     		cmp	r2, r3
 1587 0090 40F04E81 		bne	.L100
 770:.\Generated_Source\PSoC5/USBFS_std.c ****                (pEP->interface == CY_GET_REG8(USBFS_wIndexLo)))
 1588              		.loc 1 770 0
 1589 0094 BB68     		ldr	r3, [r7, #8]
 1590 0096 1A78     		ldrb	r2, [r3, #0]	@ zero_extendqisi2
 1591 0098 46F20403 		movw	r3, #24580
 1592 009c C4F20003 		movt	r3, 16384
 1593 00a0 1B78     		ldrb	r3, [r3, #0]
 1594 00a2 DBB2     		uxtb	r3, r3
 769:.\Generated_Source\PSoC5/USBFS_std.c ****                (USBFS_interfaceSetting[pEP->interface] == pEP->altSetting) &&
 1595              		.loc 1 769 0
 1596 00a4 9A42     		cmp	r2, r3
 1597 00a6 40F04381 		bne	.L100
 771:.\Generated_Source\PSoC5/USBFS_std.c ****             {
 772:.\Generated_Source\PSoC5/USBFS_std.c ****                 cur_ep = pEP->addr & USBFS_DIR_UNUSED;
 1598              		.loc 1 772 0
 1599 00aa BB68     		ldr	r3, [r7, #8]
 1600 00ac 9B78     		ldrb	r3, [r3, #2]	@ zero_extendqisi2
 1601 00ae 03F07F03 		and	r3, r3, #127
 1602 00b2 BB70     		strb	r3, [r7, #2]
 773:.\Generated_Source\PSoC5/USBFS_std.c ****                 ri = ((cur_ep - USBFS_EP1) << USBFS_EPX_CNTX_ADDR_SHIFT);
 1603              		.loc 1 773 0
 1604 00b4 BB78     		ldrb	r3, [r7, #2]
 1605 00b6 03F1FF33 		add	r3, r3, #-1
 1606 00ba DBB2     		uxtb	r3, r3
 1607 00bc 4FEA0313 		lsl	r3, r3, #4
 1608 00c0 7B70     		strb	r3, [r7, #1]
 774:.\Generated_Source\PSoC5/USBFS_std.c ****                 epType = pEP->attributes & USBFS_EP_TYPE_MASK;
 1609              		.loc 1 774 0
 1610 00c2 BB68     		ldr	r3, [r7, #8]
 1611 00c4 DB78     		ldrb	r3, [r3, #3]	@ zero_extendqisi2
 1612 00c6 03F00303 		and	r3, r3, #3
 1613 00ca 3B70     		strb	r3, [r7, #0]
 775:.\Generated_Source\PSoC5/USBFS_std.c ****                 if ((pEP->addr & USBFS_DIR_IN) != 0u)
 1614              		.loc 1 775 0
 1615 00cc BB68     		ldr	r3, [r7, #8]
 1616 00ce 9B78     		ldrb	r3, [r3, #2]	@ zero_extendqisi2
 1617 00d0 DBB2     		uxtb	r3, r3
 1618 00d2 5BB2     		sxtb	r3, r3
 1619 00d4 002B     		cmp	r3, #0
 1620 00d6 25DA     		bge	.L101
ARM GAS  C:\Users\VICTOR~1\AppData\Local\Temp\ccl24Kua.s 			page 44


 776:.\Generated_Source\PSoC5/USBFS_std.c ****                 {
 777:.\Generated_Source\PSoC5/USBFS_std.c ****                     /* IN Endpoint */
 778:.\Generated_Source\PSoC5/USBFS_std.c ****                     USBFS_EP[cur_ep].apiEpState = USBFS_EVENT_PENDING;
 1621              		.loc 1 778 0
 1622 00d8 B978     		ldrb	r1, [r7, #2]	@ zero_extendqisi2
 1623 00da 40F20002 		movw	r2, #:lower16:USBFS_EP
 1624 00de C0F20002 		movt	r2, #:upper16:USBFS_EP
 1625 00e2 0B46     		mov	r3, r1
 1626 00e4 4FEA4303 		lsl	r3, r3, #1
 1627 00e8 5B18     		adds	r3, r3, r1
 1628 00ea 4FEA8303 		lsl	r3, r3, #2
 1629 00ee D318     		adds	r3, r2, r3
 1630 00f0 4FF00102 		mov	r2, #1
 1631 00f4 5A70     		strb	r2, [r3, #1]
 779:.\Generated_Source\PSoC5/USBFS_std.c ****                     USBFS_EP[cur_ep].epMode = (epType == USBFS_EP_TYPE_ISOC) ?
 1632              		.loc 1 779 0
 1633 00f6 B878     		ldrb	r0, [r7, #2]	@ zero_extendqisi2
 1634 00f8 3B78     		ldrb	r3, [r7, #0]	@ zero_extendqisi2
 1635 00fa 012B     		cmp	r3, #1
 1636 00fc 02D1     		bne	.L102
 1637              		.loc 1 779 0 is_stmt 0 discriminator 1
 1638 00fe 4FF00701 		mov	r1, #7
 1639 0102 01E0     		b	.L103
 1640              	.L102:
 1641              		.loc 1 779 0 discriminator 2
 1642 0104 4FF00D01 		mov	r1, #13
 1643              	.L103:
 1644              		.loc 1 779 0 discriminator 3
 1645 0108 40F20002 		movw	r2, #:lower16:USBFS_EP
 1646 010c C0F20002 		movt	r2, #:upper16:USBFS_EP
 1647 0110 0346     		mov	r3, r0
 1648 0112 4FEA4303 		lsl	r3, r3, #1
 1649 0116 1B18     		adds	r3, r3, r0
 1650 0118 4FEA8303 		lsl	r3, r3, #2
 1651 011c D318     		adds	r3, r2, r3
 1652 011e 0A46     		mov	r2, r1
 1653 0120 5A71     		strb	r2, [r3, #5]
 1654 0122 24E0     		b	.L104
 1655              	.L101:
 780:.\Generated_Source\PSoC5/USBFS_std.c ****                                                 USBFS_MODE_ISO_IN : USBFS_MODE_ACK_IN;
 781:.\Generated_Source\PSoC5/USBFS_std.c ****                 }
 782:.\Generated_Source\PSoC5/USBFS_std.c ****                 else
 783:.\Generated_Source\PSoC5/USBFS_std.c ****                 {
 784:.\Generated_Source\PSoC5/USBFS_std.c ****                     /* OUT Endpoint */
 785:.\Generated_Source\PSoC5/USBFS_std.c ****                     USBFS_EP[cur_ep].apiEpState = USBFS_NO_EVENT_PENDING;
 1656              		.loc 1 785 0 is_stmt 1
 1657 0124 B978     		ldrb	r1, [r7, #2]	@ zero_extendqisi2
 1658 0126 40F20002 		movw	r2, #:lower16:USBFS_EP
 1659 012a C0F20002 		movt	r2, #:upper16:USBFS_EP
 1660 012e 0B46     		mov	r3, r1
 1661 0130 4FEA4303 		lsl	r3, r3, #1
 1662 0134 5B18     		adds	r3, r3, r1
 1663 0136 4FEA8303 		lsl	r3, r3, #2
 1664 013a D318     		adds	r3, r2, r3
 1665 013c 4FF00002 		mov	r2, #0
 1666 0140 5A70     		strb	r2, [r3, #1]
 786:.\Generated_Source\PSoC5/USBFS_std.c ****                     USBFS_EP[cur_ep].epMode = (epType == USBFS_EP_TYPE_ISOC) ?
ARM GAS  C:\Users\VICTOR~1\AppData\Local\Temp\ccl24Kua.s 			page 45


 1667              		.loc 1 786 0
 1668 0142 B878     		ldrb	r0, [r7, #2]	@ zero_extendqisi2
 1669 0144 3B78     		ldrb	r3, [r7, #0]	@ zero_extendqisi2
 1670 0146 012B     		cmp	r3, #1
 1671 0148 02D1     		bne	.L105
 1672              		.loc 1 786 0 is_stmt 0 discriminator 1
 1673 014a 4FF00501 		mov	r1, #5
 1674 014e 01E0     		b	.L106
 1675              	.L105:
 1676              		.loc 1 786 0 discriminator 2
 1677 0150 4FF00901 		mov	r1, #9
 1678              	.L106:
 1679              		.loc 1 786 0 discriminator 3
 1680 0154 40F20002 		movw	r2, #:lower16:USBFS_EP
 1681 0158 C0F20002 		movt	r2, #:upper16:USBFS_EP
 1682 015c 0346     		mov	r3, r0
 1683 015e 4FEA4303 		lsl	r3, r3, #1
 1684 0162 1B18     		adds	r3, r3, r0
 1685 0164 4FEA8303 		lsl	r3, r3, #2
 1686 0168 D318     		adds	r3, r2, r3
 1687 016a 0A46     		mov	r2, r1
 1688 016c 5A71     		strb	r2, [r3, #5]
 1689              	.L104:
 787:.\Generated_Source\PSoC5/USBFS_std.c ****                                                 USBFS_MODE_ISO_OUT : USBFS_MODE_ACK_OUT;
 788:.\Generated_Source\PSoC5/USBFS_std.c ****                 }
 789:.\Generated_Source\PSoC5/USBFS_std.c ****                  /* Change the SIE mode for the selected EP to NAK ALL */
 790:.\Generated_Source\PSoC5/USBFS_std.c ****                  CY_SET_REG8((reg8 *)(USBFS_SIE_EP1_CR0_IND + ri), USBFS_MODE_NAK_IN_OUT);
 1690              		.loc 1 790 0 is_stmt 1
 1691 016e 7A78     		ldrb	r2, [r7, #1]	@ zero_extendqisi2
 1692 0170 46F20E03 		movw	r3, #24590
 1693 0174 C4F20003 		movt	r3, 16384
 1694 0178 D318     		adds	r3, r2, r3
 1695 017a 4FF00102 		mov	r2, #1
 1696 017e 1A70     		strb	r2, [r3, #0]
 791:.\Generated_Source\PSoC5/USBFS_std.c ****                 USBFS_EP[cur_ep].bufferSize = pEP->bufferSize;
 1697              		.loc 1 791 0
 1698 0180 B978     		ldrb	r1, [r7, #2]	@ zero_extendqisi2
 1699 0182 BB68     		ldr	r3, [r7, #8]
 1700 0184 9888     		ldrh	r0, [r3, #4]
 1701 0186 40F20002 		movw	r2, #:lower16:USBFS_EP
 1702 018a C0F20002 		movt	r2, #:upper16:USBFS_EP
 1703 018e 0B46     		mov	r3, r1
 1704 0190 4FEA4303 		lsl	r3, r3, #1
 1705 0194 5B18     		adds	r3, r3, r1
 1706 0196 4FEA8303 		lsl	r3, r3, #2
 1707 019a D318     		adds	r3, r2, r3
 1708 019c 03F10803 		add	r3, r3, #8
 1709 01a0 0246     		mov	r2, r0	@ movhi
 1710 01a2 1A80     		strh	r2, [r3, #0]	@ movhi
 792:.\Generated_Source\PSoC5/USBFS_std.c ****                 USBFS_EP[cur_ep].addr = pEP->addr;
 1711              		.loc 1 792 0
 1712 01a4 B978     		ldrb	r1, [r7, #2]	@ zero_extendqisi2
 1713 01a6 BB68     		ldr	r3, [r7, #8]
 1714 01a8 9878     		ldrb	r0, [r3, #2]	@ zero_extendqisi2
 1715 01aa 40F20002 		movw	r2, #:lower16:USBFS_EP
 1716 01ae C0F20002 		movt	r2, #:upper16:USBFS_EP
 1717 01b2 0B46     		mov	r3, r1
ARM GAS  C:\Users\VICTOR~1\AppData\Local\Temp\ccl24Kua.s 			page 46


 1718 01b4 4FEA4303 		lsl	r3, r3, #1
 1719 01b8 5B18     		adds	r3, r3, r1
 1720 01ba 4FEA8303 		lsl	r3, r3, #2
 1721 01be D318     		adds	r3, r2, r3
 1722 01c0 0246     		mov	r2, r0
 1723 01c2 1A71     		strb	r2, [r3, #4]
 793:.\Generated_Source\PSoC5/USBFS_std.c ****                 USBFS_EP[cur_ep].attrib = pEP->attributes;
 1724              		.loc 1 793 0
 1725 01c4 B978     		ldrb	r1, [r7, #2]	@ zero_extendqisi2
 1726 01c6 BB68     		ldr	r3, [r7, #8]
 1727 01c8 D878     		ldrb	r0, [r3, #3]	@ zero_extendqisi2
 1728 01ca 40F20002 		movw	r2, #:lower16:USBFS_EP
 1729 01ce C0F20002 		movt	r2, #:upper16:USBFS_EP
 1730 01d2 0B46     		mov	r3, r1
 1731 01d4 4FEA4303 		lsl	r3, r3, #1
 1732 01d8 5B18     		adds	r3, r3, r1
 1733 01da 4FEA8303 		lsl	r3, r3, #2
 1734 01de D318     		adds	r3, r2, r3
 1735 01e0 0246     		mov	r2, r0
 1736 01e2 1A70     		strb	r2, [r3, #0]
 794:.\Generated_Source\PSoC5/USBFS_std.c **** 
 795:.\Generated_Source\PSoC5/USBFS_std.c ****                 /* Clear the data toggle */
 796:.\Generated_Source\PSoC5/USBFS_std.c ****                 USBFS_EP[cur_ep].epToggle = 0u;
 1737              		.loc 1 796 0
 1738 01e4 B978     		ldrb	r1, [r7, #2]	@ zero_extendqisi2
 1739 01e6 40F20002 		movw	r2, #:lower16:USBFS_EP
 1740 01ea C0F20002 		movt	r2, #:upper16:USBFS_EP
 1741 01ee 0B46     		mov	r3, r1
 1742 01f0 4FEA4303 		lsl	r3, r3, #1
 1743 01f4 5B18     		adds	r3, r3, r1
 1744 01f6 4FEA8303 		lsl	r3, r3, #2
 1745 01fa D318     		adds	r3, r2, r3
 1746 01fc 4FF00002 		mov	r2, #0
 1747 0200 DA70     		strb	r2, [r3, #3]
 797:.\Generated_Source\PSoC5/USBFS_std.c **** 
 798:.\Generated_Source\PSoC5/USBFS_std.c ****                 /* Dynamic reconfiguration for mode 3 transfer */
 799:.\Generated_Source\PSoC5/USBFS_std.c ****             #if(USBFS_EP_MM == USBFS__EP_DMAAUTO)
 800:.\Generated_Source\PSoC5/USBFS_std.c ****                 /* In_data_rdy for selected EP should be set to 0 */
 801:.\Generated_Source\PSoC5/USBFS_std.c ****                 * (reg8 *)(USBFS_ARB_EP1_CFG_IND + ri) &= (uint8)~USBFS_ARB_EPX_CFG_IN_DATA_RDY;
 802:.\Generated_Source\PSoC5/USBFS_std.c **** 
 803:.\Generated_Source\PSoC5/USBFS_std.c ****                 /* write the EP number for which reconfiguration is required */
 804:.\Generated_Source\PSoC5/USBFS_std.c ****                 USBFS_DYN_RECONFIG_REG = (cur_ep - USBFS_EP1) <<
 805:.\Generated_Source\PSoC5/USBFS_std.c ****                                                     USBFS_DYN_RECONFIG_EP_SHIFT;
 806:.\Generated_Source\PSoC5/USBFS_std.c ****                 /* Set the dyn_config_en bit in dynamic reconfiguration register */
 807:.\Generated_Source\PSoC5/USBFS_std.c ****                 USBFS_DYN_RECONFIG_REG |= USBFS_DYN_RECONFIG_ENABLE;
 808:.\Generated_Source\PSoC5/USBFS_std.c ****                 /* wait for the dyn_config_rdy bit to set by the block,
 809:.\Generated_Source\PSoC5/USBFS_std.c ****                 *  this bit will be set to 1 when block is ready for reconfiguration.
 810:.\Generated_Source\PSoC5/USBFS_std.c ****                 */
 811:.\Generated_Source\PSoC5/USBFS_std.c ****                 while((USBFS_DYN_RECONFIG_REG & USBFS_DYN_RECONFIG_RDY_STS) == 0u)
 812:.\Generated_Source\PSoC5/USBFS_std.c ****                 {
 813:.\Generated_Source\PSoC5/USBFS_std.c ****                     ;
 814:.\Generated_Source\PSoC5/USBFS_std.c ****                 }
 815:.\Generated_Source\PSoC5/USBFS_std.c ****                 /* Once dyn_config_rdy bit is set, FW can change the EP configuration. */
 816:.\Generated_Source\PSoC5/USBFS_std.c ****                 /* Change EP Type with new direction */
 817:.\Generated_Source\PSoC5/USBFS_std.c ****                 if((pEP->addr & USBFS_DIR_IN) == 0u)
 818:.\Generated_Source\PSoC5/USBFS_std.c ****                 {
 819:.\Generated_Source\PSoC5/USBFS_std.c ****                     USBFS_EP_TYPE_REG |= (uint8)(0x01u << (cur_ep - USBFS_EP1));
ARM GAS  C:\Users\VICTOR~1\AppData\Local\Temp\ccl24Kua.s 			page 47


 820:.\Generated_Source\PSoC5/USBFS_std.c ****                 }
 821:.\Generated_Source\PSoC5/USBFS_std.c ****                 else
 822:.\Generated_Source\PSoC5/USBFS_std.c ****                 {
 823:.\Generated_Source\PSoC5/USBFS_std.c ****                     USBFS_EP_TYPE_REG &= (uint8)~(uint8)(0x01u << (cur_ep - USBFS_EP1));
 824:.\Generated_Source\PSoC5/USBFS_std.c ****                 }
 825:.\Generated_Source\PSoC5/USBFS_std.c ****                 /* dynamic reconfiguration enable bit cleared, pointers and control/status
 826:.\Generated_Source\PSoC5/USBFS_std.c ****                 *  signals for the selected EP is cleared/re-initialized on negative edge
 827:.\Generated_Source\PSoC5/USBFS_std.c ****                 *  of dynamic reconfiguration enable bit).
 828:.\Generated_Source\PSoC5/USBFS_std.c ****                 */
 829:.\Generated_Source\PSoC5/USBFS_std.c ****                 USBFS_DYN_RECONFIG_REG &= (uint8)~USBFS_DYN_RECONFIG_ENABLE;
 830:.\Generated_Source\PSoC5/USBFS_std.c ****                 /* The main loop has to re-enable DMA and OUT endpoint*/
 831:.\Generated_Source\PSoC5/USBFS_std.c ****             #else
 832:.\Generated_Source\PSoC5/USBFS_std.c ****                 CY_SET_REG8((reg8 *)(USBFS_SIE_EP1_CNT0_IND + ri),
 1748              		.loc 1 832 0
 1749 0202 7A78     		ldrb	r2, [r7, #1]	@ zero_extendqisi2
 1750 0204 46F20C03 		movw	r3, #24588
 1751 0208 C4F20003 		movt	r3, 16384
 1752 020c D318     		adds	r3, r2, r3
 1753 020e 1846     		mov	r0, r3
 1754 0210 B978     		ldrb	r1, [r7, #2]	@ zero_extendqisi2
 1755 0212 40F20002 		movw	r2, #:lower16:USBFS_EP
 1756 0216 C0F20002 		movt	r2, #:upper16:USBFS_EP
 1757 021a 0B46     		mov	r3, r1
 1758 021c 4FEA4303 		lsl	r3, r3, #1
 1759 0220 5B18     		adds	r3, r3, r1
 1760 0222 4FEA8303 		lsl	r3, r3, #2
 1761 0226 D318     		adds	r3, r2, r3
 1762 0228 03F10803 		add	r3, r3, #8
 1763 022c 1B88     		ldrh	r3, [r3, #0]	@ movhi
 1764 022e 9BB2     		uxth	r3, r3
 1765 0230 4FEA1323 		lsr	r3, r3, #8
 1766 0234 9BB2     		uxth	r3, r3
 1767 0236 DBB2     		uxtb	r3, r3
 1768 0238 0370     		strb	r3, [r0, #0]
 833:.\Generated_Source\PSoC5/USBFS_std.c ****                                                                 USBFS_EP[cur_ep].bufferSize >> 8u);
 834:.\Generated_Source\PSoC5/USBFS_std.c ****                 CY_SET_REG8((reg8 *)(USBFS_SIE_EP1_CNT1_IND + ri),
 1769              		.loc 1 834 0
 1770 023a 7A78     		ldrb	r2, [r7, #1]	@ zero_extendqisi2
 1771 023c 46F20D03 		movw	r3, #24589
 1772 0240 C4F20003 		movt	r3, 16384
 1773 0244 D318     		adds	r3, r2, r3
 1774 0246 1846     		mov	r0, r3
 1775 0248 B978     		ldrb	r1, [r7, #2]	@ zero_extendqisi2
 1776 024a 40F20002 		movw	r2, #:lower16:USBFS_EP
 1777 024e C0F20002 		movt	r2, #:upper16:USBFS_EP
 1778 0252 0B46     		mov	r3, r1
 1779 0254 4FEA4303 		lsl	r3, r3, #1
 1780 0258 5B18     		adds	r3, r3, r1
 1781 025a 4FEA8303 		lsl	r3, r3, #2
 1782 025e D318     		adds	r3, r2, r3
 1783 0260 03F10803 		add	r3, r3, #8
 1784 0264 1B88     		ldrh	r3, [r3, #0]	@ movhi
 1785 0266 9BB2     		uxth	r3, r3
 1786 0268 DBB2     		uxtb	r3, r3
 1787 026a 0370     		strb	r3, [r0, #0]
 835:.\Generated_Source\PSoC5/USBFS_std.c ****                                                                 USBFS_EP[cur_ep].bufferSize & 0xFFu
 836:.\Generated_Source\PSoC5/USBFS_std.c ****                 CY_SET_REG8((reg8 *)(USBFS_ARB_RW1_RA_IND + ri),
ARM GAS  C:\Users\VICTOR~1\AppData\Local\Temp\ccl24Kua.s 			page 48


 1788              		.loc 1 836 0
 1789 026c 7A78     		ldrb	r2, [r7, #1]	@ zero_extendqisi2
 1790 026e 46F28603 		movw	r3, #24710
 1791 0272 C4F20003 		movt	r3, 16384
 1792 0276 D318     		adds	r3, r2, r3
 1793 0278 1846     		mov	r0, r3
 1794 027a B978     		ldrb	r1, [r7, #2]	@ zero_extendqisi2
 1795 027c 40F20002 		movw	r2, #:lower16:USBFS_EP
 1796 0280 C0F20002 		movt	r2, #:upper16:USBFS_EP
 1797 0284 0B46     		mov	r3, r1
 1798 0286 4FEA4303 		lsl	r3, r3, #1
 1799 028a 5B18     		adds	r3, r3, r1
 1800 028c 4FEA8303 		lsl	r3, r3, #2
 1801 0290 D318     		adds	r3, r2, r3
 1802 0292 DB88     		ldrh	r3, [r3, #6]	@ movhi
 1803 0294 9BB2     		uxth	r3, r3
 1804 0296 DBB2     		uxtb	r3, r3
 1805 0298 0370     		strb	r3, [r0, #0]
 837:.\Generated_Source\PSoC5/USBFS_std.c ****                                                                 USBFS_EP[cur_ep].buffOffset & 0xFFu
 838:.\Generated_Source\PSoC5/USBFS_std.c ****                 CY_SET_REG8((reg8 *)(USBFS_ARB_RW1_RA_MSB_IND + ri),
 1806              		.loc 1 838 0
 1807 029a 7A78     		ldrb	r2, [r7, #1]	@ zero_extendqisi2
 1808 029c 46F28703 		movw	r3, #24711
 1809 02a0 C4F20003 		movt	r3, 16384
 1810 02a4 D318     		adds	r3, r2, r3
 1811 02a6 1846     		mov	r0, r3
 1812 02a8 B978     		ldrb	r1, [r7, #2]	@ zero_extendqisi2
 1813 02aa 40F20002 		movw	r2, #:lower16:USBFS_EP
 1814 02ae C0F20002 		movt	r2, #:upper16:USBFS_EP
 1815 02b2 0B46     		mov	r3, r1
 1816 02b4 4FEA4303 		lsl	r3, r3, #1
 1817 02b8 5B18     		adds	r3, r3, r1
 1818 02ba 4FEA8303 		lsl	r3, r3, #2
 1819 02be D318     		adds	r3, r2, r3
 1820 02c0 DB88     		ldrh	r3, [r3, #6]	@ movhi
 1821 02c2 9BB2     		uxth	r3, r3
 1822 02c4 4FEA1323 		lsr	r3, r3, #8
 1823 02c8 9BB2     		uxth	r3, r3
 1824 02ca DBB2     		uxtb	r3, r3
 1825 02cc 0370     		strb	r3, [r0, #0]
 839:.\Generated_Source\PSoC5/USBFS_std.c ****                                                                 USBFS_EP[cur_ep].buffOffset >> 8u);
 840:.\Generated_Source\PSoC5/USBFS_std.c ****                 CY_SET_REG8((reg8 *)(USBFS_ARB_RW1_WA_IND + ri),
 1826              		.loc 1 840 0
 1827 02ce 7A78     		ldrb	r2, [r7, #1]	@ zero_extendqisi2
 1828 02d0 46F28403 		movw	r3, #24708
 1829 02d4 C4F20003 		movt	r3, 16384
 1830 02d8 D318     		adds	r3, r2, r3
 1831 02da 1846     		mov	r0, r3
 1832 02dc B978     		ldrb	r1, [r7, #2]	@ zero_extendqisi2
 1833 02de 40F20002 		movw	r2, #:lower16:USBFS_EP
 1834 02e2 C0F20002 		movt	r2, #:upper16:USBFS_EP
 1835 02e6 0B46     		mov	r3, r1
 1836 02e8 4FEA4303 		lsl	r3, r3, #1
 1837 02ec 5B18     		adds	r3, r3, r1
 1838 02ee 4FEA8303 		lsl	r3, r3, #2
 1839 02f2 D318     		adds	r3, r2, r3
 1840 02f4 DB88     		ldrh	r3, [r3, #6]	@ movhi
ARM GAS  C:\Users\VICTOR~1\AppData\Local\Temp\ccl24Kua.s 			page 49


 1841 02f6 9BB2     		uxth	r3, r3
 1842 02f8 DBB2     		uxtb	r3, r3
 1843 02fa 0370     		strb	r3, [r0, #0]
 841:.\Generated_Source\PSoC5/USBFS_std.c ****                                                                 USBFS_EP[cur_ep].buffOffset & 0xFFu
 842:.\Generated_Source\PSoC5/USBFS_std.c ****                 CY_SET_REG8((reg8 *)(USBFS_ARB_RW1_WA_MSB_IND + ri),
 1844              		.loc 1 842 0
 1845 02fc 7A78     		ldrb	r2, [r7, #1]	@ zero_extendqisi2
 1846 02fe 46F28503 		movw	r3, #24709
 1847 0302 C4F20003 		movt	r3, 16384
 1848 0306 D318     		adds	r3, r2, r3
 1849 0308 1846     		mov	r0, r3
 1850 030a B978     		ldrb	r1, [r7, #2]	@ zero_extendqisi2
 1851 030c 40F20002 		movw	r2, #:lower16:USBFS_EP
 1852 0310 C0F20002 		movt	r2, #:upper16:USBFS_EP
 1853 0314 0B46     		mov	r3, r1
 1854 0316 4FEA4303 		lsl	r3, r3, #1
 1855 031a 5B18     		adds	r3, r3, r1
 1856 031c 4FEA8303 		lsl	r3, r3, #2
 1857 0320 D318     		adds	r3, r2, r3
 1858 0322 DB88     		ldrh	r3, [r3, #6]	@ movhi
 1859 0324 9BB2     		uxth	r3, r3
 1860 0326 4FEA1323 		lsr	r3, r3, #8
 1861 032a 9BB2     		uxth	r3, r3
 1862 032c DBB2     		uxtb	r3, r3
 1863 032e 0370     		strb	r3, [r0, #0]
 1864              	.L100:
 843:.\Generated_Source\PSoC5/USBFS_std.c ****                                                                 USBFS_EP[cur_ep].buffOffset >> 8u);
 844:.\Generated_Source\PSoC5/USBFS_std.c ****             #endif /*  USBFS_EP_MM == USBFS__EP_DMAAUTO */
 845:.\Generated_Source\PSoC5/USBFS_std.c ****             }
 846:.\Generated_Source\PSoC5/USBFS_std.c ****             /* Get next EP element */
 847:.\Generated_Source\PSoC5/USBFS_std.c ****             pEP = &pEP[1u];
 1865              		.loc 1 847 0
 1866 0330 BB68     		ldr	r3, [r7, #8]
 1867 0332 03F10803 		add	r3, r3, #8
 1868 0336 BB60     		str	r3, [r7, #8]
 764:.\Generated_Source\PSoC5/USBFS_std.c ****         for (i = 0u; i < ep; i++)
 1869              		.loc 1 764 0
 1870 0338 FB7B     		ldrb	r3, [r7, #15]
 1871 033a 03F10103 		add	r3, r3, #1
 1872 033e FB73     		strb	r3, [r7, #15]
 1873              	.L99:
 764:.\Generated_Source\PSoC5/USBFS_std.c ****         for (i = 0u; i < ep; i++)
 1874              		.loc 1 764 0 is_stmt 0 discriminator 1
 1875 0340 FA7B     		ldrb	r2, [r7, #15]	@ zero_extendqisi2
 1876 0342 FB78     		ldrb	r3, [r7, #3]	@ zero_extendqisi2
 1877 0344 9A42     		cmp	r2, r3
 1878 0346 FFF482AE 		bcc	.L107
 1879              	.L97:
 848:.\Generated_Source\PSoC5/USBFS_std.c ****         }
 849:.\Generated_Source\PSoC5/USBFS_std.c ****     }   /* USBFS_configuration > 0 */
 850:.\Generated_Source\PSoC5/USBFS_std.c **** }
 1880              		.loc 1 850 0 is_stmt 1
 1881 034a 07F11007 		add	r7, r7, #16
 1882 034e BD46     		mov	sp, r7
 1883 0350 80BD     		pop	{r7, pc}
 1884              		.cfi_endproc
 1885              	.LFE3:
ARM GAS  C:\Users\VICTOR~1\AppData\Local\Temp\ccl24Kua.s 			page 50


 1886              		.size	USBFS_ConfigAltChanged, .-USBFS_ConfigAltChanged
 1887 0352 00BF     		.section	.text.USBFS_GetConfigTablePtr,"ax",%progbits
 1888              		.align	2
 1889              		.global	USBFS_GetConfigTablePtr
 1890              		.thumb
 1891              		.thumb_func
 1892              		.type	USBFS_GetConfigTablePtr, %function
 1893              	USBFS_GetConfigTablePtr:
 1894              	.LFB4:
 851:.\Generated_Source\PSoC5/USBFS_std.c **** 
 852:.\Generated_Source\PSoC5/USBFS_std.c **** 
 853:.\Generated_Source\PSoC5/USBFS_std.c **** /*******************************************************************************
 854:.\Generated_Source\PSoC5/USBFS_std.c **** * Function Name: USBFS_GetConfigTablePtr
 855:.\Generated_Source\PSoC5/USBFS_std.c **** ********************************************************************************
 856:.\Generated_Source\PSoC5/USBFS_std.c **** *
 857:.\Generated_Source\PSoC5/USBFS_std.c **** * Summary:
 858:.\Generated_Source\PSoC5/USBFS_std.c **** *  This routine returns a pointer a configuration table entry
 859:.\Generated_Source\PSoC5/USBFS_std.c **** *
 860:.\Generated_Source\PSoC5/USBFS_std.c **** * Parameters:
 861:.\Generated_Source\PSoC5/USBFS_std.c **** *  confIndex:  Configuration Index
 862:.\Generated_Source\PSoC5/USBFS_std.c **** *
 863:.\Generated_Source\PSoC5/USBFS_std.c **** * Return:
 864:.\Generated_Source\PSoC5/USBFS_std.c **** *  Device Descriptor pointer or NULL when descriptor isn't exists.
 865:.\Generated_Source\PSoC5/USBFS_std.c **** *
 866:.\Generated_Source\PSoC5/USBFS_std.c **** *******************************************************************************/
 867:.\Generated_Source\PSoC5/USBFS_std.c **** const T_USBFS_LUT CYCODE *USBFS_GetConfigTablePtr(uint8 confIndex)
 868:.\Generated_Source\PSoC5/USBFS_std.c ****                                                         
 869:.\Generated_Source\PSoC5/USBFS_std.c **** {
 1895              		.loc 1 869 0
 1896              		.cfi_startproc
 1897              		@ args = 0, pretend = 0, frame = 16
 1898              		@ frame_needed = 1, uses_anonymous_args = 0
 1899              		@ link register save eliminated.
 1900 0000 80B4     		push	{r7}
 1901              	.LCFI12:
 1902              		.cfi_def_cfa_offset 4
 1903              		.cfi_offset 7, -4
 1904 0002 85B0     		sub	sp, sp, #20
 1905              	.LCFI13:
 1906              		.cfi_def_cfa_offset 24
 1907 0004 00AF     		add	r7, sp, #0
 1908              	.LCFI14:
 1909              		.cfi_def_cfa_register 7
 1910 0006 0346     		mov	r3, r0
 1911 0008 FB71     		strb	r3, [r7, #7]
 870:.\Generated_Source\PSoC5/USBFS_std.c ****     /* Device Table */
 871:.\Generated_Source\PSoC5/USBFS_std.c ****     const T_USBFS_LUT CYCODE *pTmp;
 872:.\Generated_Source\PSoC5/USBFS_std.c **** 
 873:.\Generated_Source\PSoC5/USBFS_std.c ****     pTmp = (const T_USBFS_LUT CYCODE *) USBFS_TABLE[USBFS_device].p_list;
 1912              		.loc 1 873 0
 1913 000a 40F20003 		movw	r3, #:lower16:USBFS_device
 1914 000e C0F20003 		movt	r3, #:upper16:USBFS_device
 1915 0012 1B78     		ldrb	r3, [r3, #0]
 1916 0014 DBB2     		uxtb	r3, r3
 1917 0016 40F20002 		movw	r2, #:lower16:USBFS_TABLE
 1918 001a C0F20002 		movt	r2, #:upper16:USBFS_TABLE
 1919 001e 4FEAC303 		lsl	r3, r3, #3
ARM GAS  C:\Users\VICTOR~1\AppData\Local\Temp\ccl24Kua.s 			page 51


 1920 0022 D318     		adds	r3, r2, r3
 1921 0024 5B68     		ldr	r3, [r3, #4]
 1922 0026 FB60     		str	r3, [r7, #12]
 874:.\Generated_Source\PSoC5/USBFS_std.c **** 
 875:.\Generated_Source\PSoC5/USBFS_std.c ****     /* The first entry points to the Device Descriptor,
 876:.\Generated_Source\PSoC5/USBFS_std.c ****     *  the rest configuration entries.
 877:.\Generated_Source\PSoC5/USBFS_std.c ****     *  Set pointer to the first Configuration Descriptor
 878:.\Generated_Source\PSoC5/USBFS_std.c ****     */
 879:.\Generated_Source\PSoC5/USBFS_std.c ****     pTmp = &pTmp[1u];
 1923              		.loc 1 879 0
 1924 0028 FB68     		ldr	r3, [r7, #12]
 1925 002a 03F10803 		add	r3, r3, #8
 1926 002e FB60     		str	r3, [r7, #12]
 880:.\Generated_Source\PSoC5/USBFS_std.c ****     /* For this table, c is the number of configuration descriptors  */
 881:.\Generated_Source\PSoC5/USBFS_std.c ****     if(confIndex >= pTmp->c)   /* Verify that required configuration descriptor exists */
 1927              		.loc 1 881 0
 1928 0030 FB68     		ldr	r3, [r7, #12]
 1929 0032 1B78     		ldrb	r3, [r3, #0]	@ zero_extendqisi2
 1930 0034 FA79     		ldrb	r2, [r7, #7]	@ zero_extendqisi2
 1931 0036 9A42     		cmp	r2, r3
 1932 0038 03D3     		bcc	.L109
 882:.\Generated_Source\PSoC5/USBFS_std.c ****     {
 883:.\Generated_Source\PSoC5/USBFS_std.c ****         pTmp = (const T_USBFS_LUT CYCODE *) NULL;
 1933              		.loc 1 883 0
 1934 003a 4FF00003 		mov	r3, #0
 1935 003e FB60     		str	r3, [r7, #12]
 1936 0040 06E0     		b	.L110
 1937              	.L109:
 884:.\Generated_Source\PSoC5/USBFS_std.c ****     }
 885:.\Generated_Source\PSoC5/USBFS_std.c ****     else
 886:.\Generated_Source\PSoC5/USBFS_std.c ****     {
 887:.\Generated_Source\PSoC5/USBFS_std.c ****         pTmp = (const T_USBFS_LUT CYCODE *) pTmp[confIndex].p_list;
 1938              		.loc 1 887 0
 1939 0042 FB79     		ldrb	r3, [r7, #7]	@ zero_extendqisi2
 1940 0044 4FEAC303 		lsl	r3, r3, #3
 1941 0048 FA68     		ldr	r2, [r7, #12]
 1942 004a D318     		adds	r3, r2, r3
 1943 004c 5B68     		ldr	r3, [r3, #4]
 1944 004e FB60     		str	r3, [r7, #12]
 1945              	.L110:
 888:.\Generated_Source\PSoC5/USBFS_std.c ****     }
 889:.\Generated_Source\PSoC5/USBFS_std.c ****     
 890:.\Generated_Source\PSoC5/USBFS_std.c ****     return( pTmp );
 1946              		.loc 1 890 0
 1947 0050 FB68     		ldr	r3, [r7, #12]
 891:.\Generated_Source\PSoC5/USBFS_std.c **** }
 1948              		.loc 1 891 0
 1949 0052 1846     		mov	r0, r3
 1950 0054 07F11407 		add	r7, r7, #20
 1951 0058 BD46     		mov	sp, r7
 1952 005a 80BC     		pop	{r7}
 1953 005c 7047     		bx	lr
 1954              		.cfi_endproc
 1955              	.LFE4:
 1956              		.size	USBFS_GetConfigTablePtr, .-USBFS_GetConfigTablePtr
 1957 005e 00BF     		.section	.text.USBFS_GetDeviceTablePtr,"ax",%progbits
 1958              		.align	2
ARM GAS  C:\Users\VICTOR~1\AppData\Local\Temp\ccl24Kua.s 			page 52


 1959              		.global	USBFS_GetDeviceTablePtr
 1960              		.thumb
 1961              		.thumb_func
 1962              		.type	USBFS_GetDeviceTablePtr, %function
 1963              	USBFS_GetDeviceTablePtr:
 1964              	.LFB5:
 892:.\Generated_Source\PSoC5/USBFS_std.c **** 
 893:.\Generated_Source\PSoC5/USBFS_std.c **** 
 894:.\Generated_Source\PSoC5/USBFS_std.c **** /*******************************************************************************
 895:.\Generated_Source\PSoC5/USBFS_std.c **** * Function Name: USBFS_GetDeviceTablePtr
 896:.\Generated_Source\PSoC5/USBFS_std.c **** ********************************************************************************
 897:.\Generated_Source\PSoC5/USBFS_std.c **** *
 898:.\Generated_Source\PSoC5/USBFS_std.c **** * Summary:
 899:.\Generated_Source\PSoC5/USBFS_std.c **** *  This routine returns a pointer to the Device table
 900:.\Generated_Source\PSoC5/USBFS_std.c **** *
 901:.\Generated_Source\PSoC5/USBFS_std.c **** * Parameters:
 902:.\Generated_Source\PSoC5/USBFS_std.c **** *  None.
 903:.\Generated_Source\PSoC5/USBFS_std.c **** *
 904:.\Generated_Source\PSoC5/USBFS_std.c **** * Return:
 905:.\Generated_Source\PSoC5/USBFS_std.c **** *  Device Table pointer
 906:.\Generated_Source\PSoC5/USBFS_std.c **** *
 907:.\Generated_Source\PSoC5/USBFS_std.c **** *******************************************************************************/
 908:.\Generated_Source\PSoC5/USBFS_std.c **** const T_USBFS_LUT CYCODE *USBFS_GetDeviceTablePtr(void)
 909:.\Generated_Source\PSoC5/USBFS_std.c ****                                                             
 910:.\Generated_Source\PSoC5/USBFS_std.c **** {
 1965              		.loc 1 910 0
 1966              		.cfi_startproc
 1967              		@ args = 0, pretend = 0, frame = 0
 1968              		@ frame_needed = 1, uses_anonymous_args = 0
 1969              		@ link register save eliminated.
 1970 0000 80B4     		push	{r7}
 1971              	.LCFI15:
 1972              		.cfi_def_cfa_offset 4
 1973              		.cfi_offset 7, -4
 1974 0002 00AF     		add	r7, sp, #0
 1975              	.LCFI16:
 1976              		.cfi_def_cfa_register 7
 911:.\Generated_Source\PSoC5/USBFS_std.c ****     /* Device Table */
 912:.\Generated_Source\PSoC5/USBFS_std.c ****     return( (const T_USBFS_LUT CYCODE *) USBFS_TABLE[USBFS_device].p_list );
 1977              		.loc 1 912 0
 1978 0004 40F20003 		movw	r3, #:lower16:USBFS_device
 1979 0008 C0F20003 		movt	r3, #:upper16:USBFS_device
 1980 000c 1B78     		ldrb	r3, [r3, #0]
 1981 000e DBB2     		uxtb	r3, r3
 1982 0010 40F20002 		movw	r2, #:lower16:USBFS_TABLE
 1983 0014 C0F20002 		movt	r2, #:upper16:USBFS_TABLE
 1984 0018 4FEAC303 		lsl	r3, r3, #3
 1985 001c D318     		adds	r3, r2, r3
 1986 001e 5B68     		ldr	r3, [r3, #4]
 913:.\Generated_Source\PSoC5/USBFS_std.c **** }
 1987              		.loc 1 913 0
 1988 0020 1846     		mov	r0, r3
 1989 0022 BD46     		mov	sp, r7
 1990 0024 80BC     		pop	{r7}
 1991 0026 7047     		bx	lr
 1992              		.cfi_endproc
 1993              	.LFE5:
ARM GAS  C:\Users\VICTOR~1\AppData\Local\Temp\ccl24Kua.s 			page 53


 1994              		.size	USBFS_GetDeviceTablePtr, .-USBFS_GetDeviceTablePtr
 1995              		.section	.text.USBFS_GetInterfaceClassTablePtr,"ax",%progbits
 1996              		.align	2
 1997              		.global	USBFS_GetInterfaceClassTablePtr
 1998              		.thumb
 1999              		.thumb_func
 2000              		.type	USBFS_GetInterfaceClassTablePtr, %function
 2001              	USBFS_GetInterfaceClassTablePtr:
 2002              	.LFB6:
 914:.\Generated_Source\PSoC5/USBFS_std.c **** 
 915:.\Generated_Source\PSoC5/USBFS_std.c **** 
 916:.\Generated_Source\PSoC5/USBFS_std.c **** /*******************************************************************************
 917:.\Generated_Source\PSoC5/USBFS_std.c **** * Function Name: USB_GetInterfaceClassTablePtr
 918:.\Generated_Source\PSoC5/USBFS_std.c **** ********************************************************************************
 919:.\Generated_Source\PSoC5/USBFS_std.c **** *
 920:.\Generated_Source\PSoC5/USBFS_std.c **** * Summary:
 921:.\Generated_Source\PSoC5/USBFS_std.c **** *  This routine returns Interface Class table pointer, which contains
 922:.\Generated_Source\PSoC5/USBFS_std.c **** *  the relation between interface number and interface class.
 923:.\Generated_Source\PSoC5/USBFS_std.c **** *
 924:.\Generated_Source\PSoC5/USBFS_std.c **** * Parameters:
 925:.\Generated_Source\PSoC5/USBFS_std.c **** *  None.
 926:.\Generated_Source\PSoC5/USBFS_std.c **** *
 927:.\Generated_Source\PSoC5/USBFS_std.c **** * Return:
 928:.\Generated_Source\PSoC5/USBFS_std.c **** *  Interface Class table pointer.
 929:.\Generated_Source\PSoC5/USBFS_std.c **** *
 930:.\Generated_Source\PSoC5/USBFS_std.c **** *******************************************************************************/
 931:.\Generated_Source\PSoC5/USBFS_std.c **** const uint8 CYCODE *USBFS_GetInterfaceClassTablePtr(void)
 932:.\Generated_Source\PSoC5/USBFS_std.c ****                                                         
 933:.\Generated_Source\PSoC5/USBFS_std.c **** {
 2003              		.loc 1 933 0
 2004              		.cfi_startproc
 2005              		@ args = 0, pretend = 0, frame = 16
 2006              		@ frame_needed = 1, uses_anonymous_args = 0
 2007 0000 80B5     		push	{r7, lr}
 2008              	.LCFI17:
 2009              		.cfi_def_cfa_offset 8
 2010              		.cfi_offset 7, -8
 2011              		.cfi_offset 14, -4
 2012 0002 84B0     		sub	sp, sp, #16
 2013              	.LCFI18:
 2014              		.cfi_def_cfa_offset 24
 2015 0004 00AF     		add	r7, sp, #0
 2016              	.LCFI19:
 2017              		.cfi_def_cfa_register 7
 934:.\Generated_Source\PSoC5/USBFS_std.c ****     const T_USBFS_LUT CYCODE *pTmp;
 935:.\Generated_Source\PSoC5/USBFS_std.c ****     const uint8 CYCODE *pInterfaceClass;
 936:.\Generated_Source\PSoC5/USBFS_std.c ****     uint8 currentInterfacesNum;
 937:.\Generated_Source\PSoC5/USBFS_std.c **** 
 938:.\Generated_Source\PSoC5/USBFS_std.c ****     pTmp = USBFS_GetConfigTablePtr(USBFS_configuration - 1u);
 2018              		.loc 1 938 0
 2019 0006 40F20003 		movw	r3, #:lower16:USBFS_configuration
 2020 000a C0F20003 		movt	r3, #:upper16:USBFS_configuration
 2021 000e 1B78     		ldrb	r3, [r3, #0]
 2022 0010 DBB2     		uxtb	r3, r3
 2023 0012 03F1FF33 		add	r3, r3, #-1
 2024 0016 DBB2     		uxtb	r3, r3
 2025 0018 1846     		mov	r0, r3
ARM GAS  C:\Users\VICTOR~1\AppData\Local\Temp\ccl24Kua.s 			page 54


 2026 001a FFF7FEFF 		bl	USBFS_GetConfigTablePtr
 2027 001e B860     		str	r0, [r7, #8]
 939:.\Generated_Source\PSoC5/USBFS_std.c ****     if( pTmp != NULL )
 2028              		.loc 1 939 0
 2029 0020 BB68     		ldr	r3, [r7, #8]
 2030 0022 002B     		cmp	r3, #0
 2031 0024 0FD0     		beq	.L115
 940:.\Generated_Source\PSoC5/USBFS_std.c ****     {
 941:.\Generated_Source\PSoC5/USBFS_std.c ****         currentInterfacesNum  = ((const uint8 *) pTmp->p_list)[USBFS_CONFIG_DESCR_NUM_INTERFACES];
 2032              		.loc 1 941 0
 2033 0026 BB68     		ldr	r3, [r7, #8]
 2034 0028 5B68     		ldr	r3, [r3, #4]
 2035 002a 1B79     		ldrb	r3, [r3, #4]
 2036 002c FB71     		strb	r3, [r7, #7]
 942:.\Generated_Source\PSoC5/USBFS_std.c ****         /* Third entry in the LUT starts the Interface Table pointers */
 943:.\Generated_Source\PSoC5/USBFS_std.c ****         /* The INTERFACE_CLASS table is located after all interfaces */
 944:.\Generated_Source\PSoC5/USBFS_std.c ****         pTmp = &pTmp[currentInterfacesNum + 2u];
 2037              		.loc 1 944 0
 2038 002e FB79     		ldrb	r3, [r7, #7]	@ zero_extendqisi2
 2039 0030 03F10203 		add	r3, r3, #2
 2040 0034 4FEAC303 		lsl	r3, r3, #3
 2041 0038 BA68     		ldr	r2, [r7, #8]
 2042 003a D318     		adds	r3, r2, r3
 2043 003c BB60     		str	r3, [r7, #8]
 945:.\Generated_Source\PSoC5/USBFS_std.c ****         pInterfaceClass = (const uint8 CYCODE *) pTmp->p_list;
 2044              		.loc 1 945 0
 2045 003e BB68     		ldr	r3, [r7, #8]
 2046 0040 5B68     		ldr	r3, [r3, #4]
 2047 0042 FB60     		str	r3, [r7, #12]
 2048 0044 02E0     		b	.L116
 2049              	.L115:
 946:.\Generated_Source\PSoC5/USBFS_std.c ****     }
 947:.\Generated_Source\PSoC5/USBFS_std.c ****     else
 948:.\Generated_Source\PSoC5/USBFS_std.c ****     {
 949:.\Generated_Source\PSoC5/USBFS_std.c ****         pInterfaceClass = (const uint8 CYCODE *) NULL;
 2050              		.loc 1 949 0
 2051 0046 4FF00003 		mov	r3, #0
 2052 004a FB60     		str	r3, [r7, #12]
 2053              	.L116:
 950:.\Generated_Source\PSoC5/USBFS_std.c ****     }
 951:.\Generated_Source\PSoC5/USBFS_std.c ****     
 952:.\Generated_Source\PSoC5/USBFS_std.c ****     return( pInterfaceClass );
 2054              		.loc 1 952 0
 2055 004c FB68     		ldr	r3, [r7, #12]
 953:.\Generated_Source\PSoC5/USBFS_std.c **** }
 2056              		.loc 1 953 0
 2057 004e 1846     		mov	r0, r3
 2058 0050 07F11007 		add	r7, r7, #16
 2059 0054 BD46     		mov	sp, r7
 2060 0056 80BD     		pop	{r7, pc}
 2061              		.cfi_endproc
 2062              	.LFE6:
 2063              		.size	USBFS_GetInterfaceClassTablePtr, .-USBFS_GetInterfaceClassTablePtr
 2064              		.section	.text.USBFS_TerminateEP,"ax",%progbits
 2065              		.align	2
 2066              		.global	USBFS_TerminateEP
 2067              		.thumb
ARM GAS  C:\Users\VICTOR~1\AppData\Local\Temp\ccl24Kua.s 			page 55


 2068              		.thumb_func
 2069              		.type	USBFS_TerminateEP, %function
 2070              	USBFS_TerminateEP:
 2071              	.LFB7:
 954:.\Generated_Source\PSoC5/USBFS_std.c **** 
 955:.\Generated_Source\PSoC5/USBFS_std.c **** 
 956:.\Generated_Source\PSoC5/USBFS_std.c **** /*******************************************************************************
 957:.\Generated_Source\PSoC5/USBFS_std.c **** * Function Name: USBFS_TerminateEP
 958:.\Generated_Source\PSoC5/USBFS_std.c **** ********************************************************************************
 959:.\Generated_Source\PSoC5/USBFS_std.c **** *
 960:.\Generated_Source\PSoC5/USBFS_std.c **** * Summary:
 961:.\Generated_Source\PSoC5/USBFS_std.c **** *  This function terminates the specified USBFS endpoint.
 962:.\Generated_Source\PSoC5/USBFS_std.c **** *  This function should be used before endpoint reconfiguration.
 963:.\Generated_Source\PSoC5/USBFS_std.c **** *
 964:.\Generated_Source\PSoC5/USBFS_std.c **** * Parameters:
 965:.\Generated_Source\PSoC5/USBFS_std.c **** *  Endpoint number.
 966:.\Generated_Source\PSoC5/USBFS_std.c **** *
 967:.\Generated_Source\PSoC5/USBFS_std.c **** * Return:
 968:.\Generated_Source\PSoC5/USBFS_std.c **** *  None.
 969:.\Generated_Source\PSoC5/USBFS_std.c **** *
 970:.\Generated_Source\PSoC5/USBFS_std.c **** * Reentrant:
 971:.\Generated_Source\PSoC5/USBFS_std.c **** *  No.
 972:.\Generated_Source\PSoC5/USBFS_std.c **** *
 973:.\Generated_Source\PSoC5/USBFS_std.c **** *******************************************************************************/
 974:.\Generated_Source\PSoC5/USBFS_std.c **** void USBFS_TerminateEP(uint8 ep) 
 975:.\Generated_Source\PSoC5/USBFS_std.c **** {
 2072              		.loc 1 975 0
 2073              		.cfi_startproc
 2074              		@ args = 0, pretend = 0, frame = 16
 2075              		@ frame_needed = 1, uses_anonymous_args = 0
 2076              		@ link register save eliminated.
 2077 0000 80B4     		push	{r7}
 2078              	.LCFI20:
 2079              		.cfi_def_cfa_offset 4
 2080              		.cfi_offset 7, -4
 2081 0002 85B0     		sub	sp, sp, #20
 2082              	.LCFI21:
 2083              		.cfi_def_cfa_offset 24
 2084 0004 00AF     		add	r7, sp, #0
 2085              	.LCFI22:
 2086              		.cfi_def_cfa_register 7
 2087 0006 0346     		mov	r3, r0
 2088 0008 FB71     		strb	r3, [r7, #7]
 976:.\Generated_Source\PSoC5/USBFS_std.c ****     uint8 ri;
 977:.\Generated_Source\PSoC5/USBFS_std.c **** 
 978:.\Generated_Source\PSoC5/USBFS_std.c ****     ep &= USBFS_DIR_UNUSED;
 2089              		.loc 1 978 0
 2090 000a FB79     		ldrb	r3, [r7, #7]
 2091 000c 03F07F03 		and	r3, r3, #127
 2092 0010 FB71     		strb	r3, [r7, #7]
 979:.\Generated_Source\PSoC5/USBFS_std.c ****     ri = ((ep - USBFS_EP1) << USBFS_EPX_CNTX_ADDR_SHIFT);
 2093              		.loc 1 979 0
 2094 0012 FB79     		ldrb	r3, [r7, #7]
 2095 0014 03F1FF33 		add	r3, r3, #-1
 2096 0018 DBB2     		uxtb	r3, r3
 2097 001a 4FEA0313 		lsl	r3, r3, #4
 2098 001e FB73     		strb	r3, [r7, #15]
ARM GAS  C:\Users\VICTOR~1\AppData\Local\Temp\ccl24Kua.s 			page 56


 980:.\Generated_Source\PSoC5/USBFS_std.c **** 
 981:.\Generated_Source\PSoC5/USBFS_std.c ****     if ((ep > USBFS_EP0) && (ep < USBFS_MAX_EP))
 2099              		.loc 1 981 0
 2100 0020 FB79     		ldrb	r3, [r7, #7]	@ zero_extendqisi2
 2101 0022 002B     		cmp	r3, #0
 2102 0024 64D0     		beq	.L118
 2103              		.loc 1 981 0 is_stmt 0 discriminator 1
 2104 0026 FB79     		ldrb	r3, [r7, #7]	@ zero_extendqisi2
 2105 0028 082B     		cmp	r3, #8
 2106 002a 61D8     		bhi	.L118
 982:.\Generated_Source\PSoC5/USBFS_std.c ****     {
 983:.\Generated_Source\PSoC5/USBFS_std.c ****         /* Set the endpoint Halt */
 984:.\Generated_Source\PSoC5/USBFS_std.c ****         USBFS_EP[ep].hwEpState |= (USBFS_ENDPOINT_STATUS_HALT);
 2107              		.loc 1 984 0 is_stmt 1
 2108 002c F979     		ldrb	r1, [r7, #7]	@ zero_extendqisi2
 2109 002e F879     		ldrb	r0, [r7, #7]	@ zero_extendqisi2
 2110 0030 40F20002 		movw	r2, #:lower16:USBFS_EP
 2111 0034 C0F20002 		movt	r2, #:upper16:USBFS_EP
 2112 0038 0346     		mov	r3, r0
 2113 003a 4FEA4303 		lsl	r3, r3, #1
 2114 003e 1B18     		adds	r3, r3, r0
 2115 0040 4FEA8303 		lsl	r3, r3, #2
 2116 0044 D318     		adds	r3, r2, r3
 2117 0046 9B78     		ldrb	r3, [r3, #2]
 2118 0048 DBB2     		uxtb	r3, r3
 2119 004a 43F00103 		orr	r3, r3, #1
 2120 004e D8B2     		uxtb	r0, r3
 2121 0050 40F20002 		movw	r2, #:lower16:USBFS_EP
 2122 0054 C0F20002 		movt	r2, #:upper16:USBFS_EP
 2123 0058 0B46     		mov	r3, r1
 2124 005a 4FEA4303 		lsl	r3, r3, #1
 2125 005e 5B18     		adds	r3, r3, r1
 2126 0060 4FEA8303 		lsl	r3, r3, #2
 2127 0064 D318     		adds	r3, r2, r3
 2128 0066 0246     		mov	r2, r0
 2129 0068 9A70     		strb	r2, [r3, #2]
 985:.\Generated_Source\PSoC5/USBFS_std.c **** 
 986:.\Generated_Source\PSoC5/USBFS_std.c ****         /* Clear the data toggle */
 987:.\Generated_Source\PSoC5/USBFS_std.c ****         USBFS_EP[ep].epToggle = 0u;
 2130              		.loc 1 987 0
 2131 006a F979     		ldrb	r1, [r7, #7]	@ zero_extendqisi2
 2132 006c 40F20002 		movw	r2, #:lower16:USBFS_EP
 2133 0070 C0F20002 		movt	r2, #:upper16:USBFS_EP
 2134 0074 0B46     		mov	r3, r1
 2135 0076 4FEA4303 		lsl	r3, r3, #1
 2136 007a 5B18     		adds	r3, r3, r1
 2137 007c 4FEA8303 		lsl	r3, r3, #2
 2138 0080 D318     		adds	r3, r2, r3
 2139 0082 4FF00002 		mov	r2, #0
 2140 0086 DA70     		strb	r2, [r3, #3]
 988:.\Generated_Source\PSoC5/USBFS_std.c ****         USBFS_EP[ep].apiEpState = USBFS_NO_EVENT_ALLOWED;
 2141              		.loc 1 988 0
 2142 0088 F979     		ldrb	r1, [r7, #7]	@ zero_extendqisi2
 2143 008a 40F20002 		movw	r2, #:lower16:USBFS_EP
 2144 008e C0F20002 		movt	r2, #:upper16:USBFS_EP
 2145 0092 0B46     		mov	r3, r1
 2146 0094 4FEA4303 		lsl	r3, r3, #1
ARM GAS  C:\Users\VICTOR~1\AppData\Local\Temp\ccl24Kua.s 			page 57


 2147 0098 5B18     		adds	r3, r3, r1
 2148 009a 4FEA8303 		lsl	r3, r3, #2
 2149 009e D318     		adds	r3, r2, r3
 2150 00a0 4FF00202 		mov	r2, #2
 2151 00a4 5A70     		strb	r2, [r3, #1]
 989:.\Generated_Source\PSoC5/USBFS_std.c **** 
 990:.\Generated_Source\PSoC5/USBFS_std.c ****         if ((USBFS_EP[ep].addr & USBFS_DIR_IN) != 0u)
 2152              		.loc 1 990 0
 2153 00a6 F979     		ldrb	r1, [r7, #7]	@ zero_extendqisi2
 2154 00a8 40F20002 		movw	r2, #:lower16:USBFS_EP
 2155 00ac C0F20002 		movt	r2, #:upper16:USBFS_EP
 2156 00b0 0B46     		mov	r3, r1
 2157 00b2 4FEA4303 		lsl	r3, r3, #1
 2158 00b6 5B18     		adds	r3, r3, r1
 2159 00b8 4FEA8303 		lsl	r3, r3, #2
 2160 00bc D318     		adds	r3, r2, r3
 2161 00be 1B79     		ldrb	r3, [r3, #4]
 2162 00c0 DBB2     		uxtb	r3, r3
 2163 00c2 DBB2     		uxtb	r3, r3
 2164 00c4 5BB2     		sxtb	r3, r3
 2165 00c6 002B     		cmp	r3, #0
 2166 00c8 09DA     		bge	.L120
 991:.\Generated_Source\PSoC5/USBFS_std.c ****         {
 992:.\Generated_Source\PSoC5/USBFS_std.c ****             /* IN Endpoint */
 993:.\Generated_Source\PSoC5/USBFS_std.c ****             CY_SET_REG8((reg8 *)(USBFS_SIE_EP1_CR0_IND + ri), USBFS_MODE_NAK_IN);
 2167              		.loc 1 993 0
 2168 00ca FA7B     		ldrb	r2, [r7, #15]	@ zero_extendqisi2
 2169 00cc 46F20E03 		movw	r3, #24590
 2170 00d0 C4F20003 		movt	r3, 16384
 2171 00d4 D318     		adds	r3, r2, r3
 2172 00d6 4FF00C02 		mov	r2, #12
 2173 00da 1A70     		strb	r2, [r3, #0]
 2174 00dc 08E0     		b	.L118
 2175              	.L120:
 994:.\Generated_Source\PSoC5/USBFS_std.c ****         }
 995:.\Generated_Source\PSoC5/USBFS_std.c ****         else
 996:.\Generated_Source\PSoC5/USBFS_std.c ****         {
 997:.\Generated_Source\PSoC5/USBFS_std.c ****             /* OUT Endpoint */
 998:.\Generated_Source\PSoC5/USBFS_std.c ****             CY_SET_REG8((reg8 *)(USBFS_SIE_EP1_CR0_IND + ri), USBFS_MODE_NAK_OUT);
 2176              		.loc 1 998 0
 2177 00de FA7B     		ldrb	r2, [r7, #15]	@ zero_extendqisi2
 2178 00e0 46F20E03 		movw	r3, #24590
 2179 00e4 C4F20003 		movt	r3, 16384
 2180 00e8 D318     		adds	r3, r2, r3
 2181 00ea 4FF00802 		mov	r2, #8
 2182 00ee 1A70     		strb	r2, [r3, #0]
 2183              	.L118:
 999:.\Generated_Source\PSoC5/USBFS_std.c ****         }
1000:.\Generated_Source\PSoC5/USBFS_std.c ****     }
1001:.\Generated_Source\PSoC5/USBFS_std.c **** }
 2184              		.loc 1 1001 0
 2185 00f0 07F11407 		add	r7, r7, #20
 2186 00f4 BD46     		mov	sp, r7
 2187 00f6 80BC     		pop	{r7}
 2188 00f8 7047     		bx	lr
 2189              		.cfi_endproc
 2190              	.LFE7:
ARM GAS  C:\Users\VICTOR~1\AppData\Local\Temp\ccl24Kua.s 			page 58


 2191              		.size	USBFS_TerminateEP, .-USBFS_TerminateEP
 2192 00fa 00BF     		.section	.text.USBFS_SetEndpointHalt,"ax",%progbits
 2193              		.align	2
 2194              		.global	USBFS_SetEndpointHalt
 2195              		.thumb
 2196              		.thumb_func
 2197              		.type	USBFS_SetEndpointHalt, %function
 2198              	USBFS_SetEndpointHalt:
 2199              	.LFB8:
1002:.\Generated_Source\PSoC5/USBFS_std.c **** 
1003:.\Generated_Source\PSoC5/USBFS_std.c **** 
1004:.\Generated_Source\PSoC5/USBFS_std.c **** /*******************************************************************************
1005:.\Generated_Source\PSoC5/USBFS_std.c **** * Function Name: USBFS_SetEndpointHalt
1006:.\Generated_Source\PSoC5/USBFS_std.c **** ********************************************************************************
1007:.\Generated_Source\PSoC5/USBFS_std.c **** *
1008:.\Generated_Source\PSoC5/USBFS_std.c **** * Summary:
1009:.\Generated_Source\PSoC5/USBFS_std.c **** *  This routine handles set endpoint halt.
1010:.\Generated_Source\PSoC5/USBFS_std.c **** *
1011:.\Generated_Source\PSoC5/USBFS_std.c **** * Parameters:
1012:.\Generated_Source\PSoC5/USBFS_std.c **** *  None.
1013:.\Generated_Source\PSoC5/USBFS_std.c **** *
1014:.\Generated_Source\PSoC5/USBFS_std.c **** * Return:
1015:.\Generated_Source\PSoC5/USBFS_std.c **** *  requestHandled.
1016:.\Generated_Source\PSoC5/USBFS_std.c **** *
1017:.\Generated_Source\PSoC5/USBFS_std.c **** * Reentrant:
1018:.\Generated_Source\PSoC5/USBFS_std.c **** *  No.
1019:.\Generated_Source\PSoC5/USBFS_std.c **** *
1020:.\Generated_Source\PSoC5/USBFS_std.c **** *******************************************************************************/
1021:.\Generated_Source\PSoC5/USBFS_std.c **** uint8 USBFS_SetEndpointHalt(void) 
1022:.\Generated_Source\PSoC5/USBFS_std.c **** {
 2200              		.loc 1 1022 0
 2201              		.cfi_startproc
 2202              		@ args = 0, pretend = 0, frame = 8
 2203              		@ frame_needed = 1, uses_anonymous_args = 0
 2204 0000 80B5     		push	{r7, lr}
 2205              	.LCFI23:
 2206              		.cfi_def_cfa_offset 8
 2207              		.cfi_offset 7, -8
 2208              		.cfi_offset 14, -4
 2209 0002 82B0     		sub	sp, sp, #8
 2210              	.LCFI24:
 2211              		.cfi_def_cfa_offset 16
 2212 0004 00AF     		add	r7, sp, #0
 2213              	.LCFI25:
 2214              		.cfi_def_cfa_register 7
1023:.\Generated_Source\PSoC5/USBFS_std.c ****     uint8 ep;
1024:.\Generated_Source\PSoC5/USBFS_std.c ****     uint8 ri;
1025:.\Generated_Source\PSoC5/USBFS_std.c ****     uint8 requestHandled = USBFS_FALSE;
 2215              		.loc 1 1025 0
 2216 0006 4FF00003 		mov	r3, #0
 2217 000a FB71     		strb	r3, [r7, #7]
1026:.\Generated_Source\PSoC5/USBFS_std.c **** 
1027:.\Generated_Source\PSoC5/USBFS_std.c ****     /* Set endpoint halt */
1028:.\Generated_Source\PSoC5/USBFS_std.c ****     ep = CY_GET_REG8(USBFS_wIndexLo) & USBFS_DIR_UNUSED;
 2218              		.loc 1 1028 0
 2219 000c 46F20403 		movw	r3, #24580
 2220 0010 C4F20003 		movt	r3, 16384
ARM GAS  C:\Users\VICTOR~1\AppData\Local\Temp\ccl24Kua.s 			page 59


 2221 0014 1B78     		ldrb	r3, [r3, #0]
 2222 0016 DBB2     		uxtb	r3, r3
 2223 0018 03F07F03 		and	r3, r3, #127
 2224 001c BB71     		strb	r3, [r7, #6]
1029:.\Generated_Source\PSoC5/USBFS_std.c ****     ri = ((ep - USBFS_EP1) << USBFS_EPX_CNTX_ADDR_SHIFT);
 2225              		.loc 1 1029 0
 2226 001e BB79     		ldrb	r3, [r7, #6]
 2227 0020 03F1FF33 		add	r3, r3, #-1
 2228 0024 DBB2     		uxtb	r3, r3
 2229 0026 4FEA0313 		lsl	r3, r3, #4
 2230 002a 7B71     		strb	r3, [r7, #5]
1030:.\Generated_Source\PSoC5/USBFS_std.c **** 
1031:.\Generated_Source\PSoC5/USBFS_std.c ****     if ((ep > USBFS_EP0) && (ep < USBFS_MAX_EP))
 2231              		.loc 1 1031 0
 2232 002c BB79     		ldrb	r3, [r7, #6]	@ zero_extendqisi2
 2233 002e 002B     		cmp	r3, #0
 2234 0030 78D0     		beq	.L122
 2235              		.loc 1 1031 0 is_stmt 0 discriminator 1
 2236 0032 BB79     		ldrb	r3, [r7, #6]	@ zero_extendqisi2
 2237 0034 082B     		cmp	r3, #8
 2238 0036 75D8     		bhi	.L122
1032:.\Generated_Source\PSoC5/USBFS_std.c ****     {
1033:.\Generated_Source\PSoC5/USBFS_std.c ****         /* Set the endpoint Halt */
1034:.\Generated_Source\PSoC5/USBFS_std.c ****         USBFS_EP[ep].hwEpState |= (USBFS_ENDPOINT_STATUS_HALT);
 2239              		.loc 1 1034 0 is_stmt 1
 2240 0038 B979     		ldrb	r1, [r7, #6]	@ zero_extendqisi2
 2241 003a B879     		ldrb	r0, [r7, #6]	@ zero_extendqisi2
 2242 003c 40F20002 		movw	r2, #:lower16:USBFS_EP
 2243 0040 C0F20002 		movt	r2, #:upper16:USBFS_EP
 2244 0044 0346     		mov	r3, r0
 2245 0046 4FEA4303 		lsl	r3, r3, #1
 2246 004a 1B18     		adds	r3, r3, r0
 2247 004c 4FEA8303 		lsl	r3, r3, #2
 2248 0050 D318     		adds	r3, r2, r3
 2249 0052 9B78     		ldrb	r3, [r3, #2]
 2250 0054 DBB2     		uxtb	r3, r3
 2251 0056 43F00103 		orr	r3, r3, #1
 2252 005a D8B2     		uxtb	r0, r3
 2253 005c 40F20002 		movw	r2, #:lower16:USBFS_EP
 2254 0060 C0F20002 		movt	r2, #:upper16:USBFS_EP
 2255 0064 0B46     		mov	r3, r1
 2256 0066 4FEA4303 		lsl	r3, r3, #1
 2257 006a 5B18     		adds	r3, r3, r1
 2258 006c 4FEA8303 		lsl	r3, r3, #2
 2259 0070 D318     		adds	r3, r2, r3
 2260 0072 0246     		mov	r2, r0
 2261 0074 9A70     		strb	r2, [r3, #2]
1035:.\Generated_Source\PSoC5/USBFS_std.c **** 
1036:.\Generated_Source\PSoC5/USBFS_std.c ****         /* Clear the data toggle */
1037:.\Generated_Source\PSoC5/USBFS_std.c ****         USBFS_EP[ep].epToggle = 0u;
 2262              		.loc 1 1037 0
 2263 0076 B979     		ldrb	r1, [r7, #6]	@ zero_extendqisi2
 2264 0078 40F20002 		movw	r2, #:lower16:USBFS_EP
 2265 007c C0F20002 		movt	r2, #:upper16:USBFS_EP
 2266 0080 0B46     		mov	r3, r1
 2267 0082 4FEA4303 		lsl	r3, r3, #1
 2268 0086 5B18     		adds	r3, r3, r1
ARM GAS  C:\Users\VICTOR~1\AppData\Local\Temp\ccl24Kua.s 			page 60


 2269 0088 4FEA8303 		lsl	r3, r3, #2
 2270 008c D318     		adds	r3, r2, r3
 2271 008e 4FF00002 		mov	r2, #0
 2272 0092 DA70     		strb	r2, [r3, #3]
1038:.\Generated_Source\PSoC5/USBFS_std.c ****         USBFS_EP[ep].apiEpState |= USBFS_NO_EVENT_ALLOWED;
 2273              		.loc 1 1038 0
 2274 0094 B979     		ldrb	r1, [r7, #6]	@ zero_extendqisi2
 2275 0096 B879     		ldrb	r0, [r7, #6]	@ zero_extendqisi2
 2276 0098 40F20002 		movw	r2, #:lower16:USBFS_EP
 2277 009c C0F20002 		movt	r2, #:upper16:USBFS_EP
 2278 00a0 0346     		mov	r3, r0
 2279 00a2 4FEA4303 		lsl	r3, r3, #1
 2280 00a6 1B18     		adds	r3, r3, r0
 2281 00a8 4FEA8303 		lsl	r3, r3, #2
 2282 00ac D318     		adds	r3, r2, r3
 2283 00ae 5B78     		ldrb	r3, [r3, #1]
 2284 00b0 DBB2     		uxtb	r3, r3
 2285 00b2 43F00203 		orr	r3, r3, #2
 2286 00b6 D8B2     		uxtb	r0, r3
 2287 00b8 40F20002 		movw	r2, #:lower16:USBFS_EP
 2288 00bc C0F20002 		movt	r2, #:upper16:USBFS_EP
 2289 00c0 0B46     		mov	r3, r1
 2290 00c2 4FEA4303 		lsl	r3, r3, #1
 2291 00c6 5B18     		adds	r3, r3, r1
 2292 00c8 4FEA8303 		lsl	r3, r3, #2
 2293 00cc D318     		adds	r3, r2, r3
 2294 00ce 0246     		mov	r2, r0
 2295 00d0 5A70     		strb	r2, [r3, #1]
1039:.\Generated_Source\PSoC5/USBFS_std.c **** 
1040:.\Generated_Source\PSoC5/USBFS_std.c ****         if ((USBFS_EP[ep].addr & USBFS_DIR_IN) != 0u)
 2296              		.loc 1 1040 0
 2297 00d2 B979     		ldrb	r1, [r7, #6]	@ zero_extendqisi2
 2298 00d4 40F20002 		movw	r2, #:lower16:USBFS_EP
 2299 00d8 C0F20002 		movt	r2, #:upper16:USBFS_EP
 2300 00dc 0B46     		mov	r3, r1
 2301 00de 4FEA4303 		lsl	r3, r3, #1
 2302 00e2 5B18     		adds	r3, r3, r1
 2303 00e4 4FEA8303 		lsl	r3, r3, #2
 2304 00e8 D318     		adds	r3, r2, r3
 2305 00ea 1B79     		ldrb	r3, [r3, #4]
 2306 00ec DBB2     		uxtb	r3, r3
 2307 00ee DBB2     		uxtb	r3, r3
 2308 00f0 5BB2     		sxtb	r3, r3
 2309 00f2 002B     		cmp	r3, #0
 2310 00f4 09DA     		bge	.L123
1041:.\Generated_Source\PSoC5/USBFS_std.c ****         {
1042:.\Generated_Source\PSoC5/USBFS_std.c ****             /* IN Endpoint */
1043:.\Generated_Source\PSoC5/USBFS_std.c ****             CY_SET_REG8((reg8 *)(USBFS_SIE_EP1_CR0_IND + ri), USBFS_MODE_STALL_DATA_EP |
 2311              		.loc 1 1043 0
 2312 00f6 7A79     		ldrb	r2, [r7, #5]	@ zero_extendqisi2
 2313 00f8 46F20E03 		movw	r3, #24590
 2314 00fc C4F20003 		movt	r3, 16384
 2315 0100 D318     		adds	r3, r2, r3
 2316 0102 4FF08D02 		mov	r2, #141
 2317 0106 1A70     		strb	r2, [r3, #0]
 2318 0108 08E0     		b	.L124
 2319              	.L123:
ARM GAS  C:\Users\VICTOR~1\AppData\Local\Temp\ccl24Kua.s 			page 61


1044:.\Generated_Source\PSoC5/USBFS_std.c ****                                                                USBFS_MODE_ACK_IN);
1045:.\Generated_Source\PSoC5/USBFS_std.c ****         }
1046:.\Generated_Source\PSoC5/USBFS_std.c ****         else
1047:.\Generated_Source\PSoC5/USBFS_std.c ****         {
1048:.\Generated_Source\PSoC5/USBFS_std.c ****             /* OUT Endpoint */
1049:.\Generated_Source\PSoC5/USBFS_std.c ****             CY_SET_REG8((reg8 *)(USBFS_SIE_EP1_CR0_IND + ri), USBFS_MODE_STALL_DATA_EP |
 2320              		.loc 1 1049 0
 2321 010a 7A79     		ldrb	r2, [r7, #5]	@ zero_extendqisi2
 2322 010c 46F20E03 		movw	r3, #24590
 2323 0110 C4F20003 		movt	r3, 16384
 2324 0114 D318     		adds	r3, r2, r3
 2325 0116 4FF08902 		mov	r2, #137
 2326 011a 1A70     		strb	r2, [r3, #0]
 2327              	.L124:
1050:.\Generated_Source\PSoC5/USBFS_std.c ****                                                                USBFS_MODE_ACK_OUT);
1051:.\Generated_Source\PSoC5/USBFS_std.c ****         }
1052:.\Generated_Source\PSoC5/USBFS_std.c ****         requestHandled = USBFS_InitNoDataControlTransfer();
 2328              		.loc 1 1052 0
 2329 011c FFF7FEFF 		bl	USBFS_InitNoDataControlTransfer
 2330 0120 0346     		mov	r3, r0
 2331 0122 FB71     		strb	r3, [r7, #7]
 2332              	.L122:
1053:.\Generated_Source\PSoC5/USBFS_std.c ****     }
1054:.\Generated_Source\PSoC5/USBFS_std.c **** 
1055:.\Generated_Source\PSoC5/USBFS_std.c ****     return(requestHandled);
 2333              		.loc 1 1055 0
 2334 0124 FB79     		ldrb	r3, [r7, #7]	@ zero_extendqisi2
1056:.\Generated_Source\PSoC5/USBFS_std.c **** }
 2335              		.loc 1 1056 0
 2336 0126 1846     		mov	r0, r3
 2337 0128 07F10807 		add	r7, r7, #8
 2338 012c BD46     		mov	sp, r7
 2339 012e 80BD     		pop	{r7, pc}
 2340              		.cfi_endproc
 2341              	.LFE8:
 2342              		.size	USBFS_SetEndpointHalt, .-USBFS_SetEndpointHalt
 2343              		.section	.text.USBFS_ClearEndpointHalt,"ax",%progbits
 2344              		.align	2
 2345              		.global	USBFS_ClearEndpointHalt
 2346              		.thumb
 2347              		.thumb_func
 2348              		.type	USBFS_ClearEndpointHalt, %function
 2349              	USBFS_ClearEndpointHalt:
 2350              	.LFB9:
1057:.\Generated_Source\PSoC5/USBFS_std.c **** 
1058:.\Generated_Source\PSoC5/USBFS_std.c **** 
1059:.\Generated_Source\PSoC5/USBFS_std.c **** /*******************************************************************************
1060:.\Generated_Source\PSoC5/USBFS_std.c **** * Function Name: USBFS_ClearEndpointHalt
1061:.\Generated_Source\PSoC5/USBFS_std.c **** ********************************************************************************
1062:.\Generated_Source\PSoC5/USBFS_std.c **** *
1063:.\Generated_Source\PSoC5/USBFS_std.c **** * Summary:
1064:.\Generated_Source\PSoC5/USBFS_std.c **** *  This routine handles clear endpoint halt.
1065:.\Generated_Source\PSoC5/USBFS_std.c **** *
1066:.\Generated_Source\PSoC5/USBFS_std.c **** * Parameters:
1067:.\Generated_Source\PSoC5/USBFS_std.c **** *  None.
1068:.\Generated_Source\PSoC5/USBFS_std.c **** *
1069:.\Generated_Source\PSoC5/USBFS_std.c **** * Return:
ARM GAS  C:\Users\VICTOR~1\AppData\Local\Temp\ccl24Kua.s 			page 62


1070:.\Generated_Source\PSoC5/USBFS_std.c **** *  requestHandled.
1071:.\Generated_Source\PSoC5/USBFS_std.c **** *
1072:.\Generated_Source\PSoC5/USBFS_std.c **** * Reentrant:
1073:.\Generated_Source\PSoC5/USBFS_std.c **** *  No.
1074:.\Generated_Source\PSoC5/USBFS_std.c **** *
1075:.\Generated_Source\PSoC5/USBFS_std.c **** *******************************************************************************/
1076:.\Generated_Source\PSoC5/USBFS_std.c **** uint8 USBFS_ClearEndpointHalt(void) 
1077:.\Generated_Source\PSoC5/USBFS_std.c **** {
 2351              		.loc 1 1077 0
 2352              		.cfi_startproc
 2353              		@ args = 0, pretend = 0, frame = 8
 2354              		@ frame_needed = 1, uses_anonymous_args = 0
 2355 0000 80B5     		push	{r7, lr}
 2356              	.LCFI26:
 2357              		.cfi_def_cfa_offset 8
 2358              		.cfi_offset 7, -8
 2359              		.cfi_offset 14, -4
 2360 0002 82B0     		sub	sp, sp, #8
 2361              	.LCFI27:
 2362              		.cfi_def_cfa_offset 16
 2363 0004 00AF     		add	r7, sp, #0
 2364              	.LCFI28:
 2365              		.cfi_def_cfa_register 7
1078:.\Generated_Source\PSoC5/USBFS_std.c ****     uint8 ep;
1079:.\Generated_Source\PSoC5/USBFS_std.c ****     uint8 ri;
1080:.\Generated_Source\PSoC5/USBFS_std.c ****     uint8 requestHandled = USBFS_FALSE;
 2366              		.loc 1 1080 0
 2367 0006 4FF00003 		mov	r3, #0
 2368 000a FB71     		strb	r3, [r7, #7]
1081:.\Generated_Source\PSoC5/USBFS_std.c **** 
1082:.\Generated_Source\PSoC5/USBFS_std.c ****     /* Clear endpoint halt */
1083:.\Generated_Source\PSoC5/USBFS_std.c ****     ep = CY_GET_REG8(USBFS_wIndexLo) & USBFS_DIR_UNUSED;
 2369              		.loc 1 1083 0
 2370 000c 46F20403 		movw	r3, #24580
 2371 0010 C4F20003 		movt	r3, 16384
 2372 0014 1B78     		ldrb	r3, [r3, #0]
 2373 0016 DBB2     		uxtb	r3, r3
 2374 0018 03F07F03 		and	r3, r3, #127
 2375 001c BB71     		strb	r3, [r7, #6]
1084:.\Generated_Source\PSoC5/USBFS_std.c ****     ri = ((ep - USBFS_EP1) << USBFS_EPX_CNTX_ADDR_SHIFT);
 2376              		.loc 1 1084 0
 2377 001e BB79     		ldrb	r3, [r7, #6]
 2378 0020 03F1FF33 		add	r3, r3, #-1
 2379 0024 DBB2     		uxtb	r3, r3
 2380 0026 4FEA0313 		lsl	r3, r3, #4
 2381 002a 7B71     		strb	r3, [r7, #5]
1085:.\Generated_Source\PSoC5/USBFS_std.c **** 
1086:.\Generated_Source\PSoC5/USBFS_std.c ****     if ((ep > USBFS_EP0) && (ep < USBFS_MAX_EP))
 2382              		.loc 1 1086 0
 2383 002c BB79     		ldrb	r3, [r7, #6]	@ zero_extendqisi2
 2384 002e 002B     		cmp	r3, #0
 2385 0030 00F0C180 		beq	.L127
 2386              		.loc 1 1086 0 is_stmt 0 discriminator 1
 2387 0034 BB79     		ldrb	r3, [r7, #6]	@ zero_extendqisi2
 2388 0036 082B     		cmp	r3, #8
 2389 0038 00F2BD80 		bhi	.L127
1087:.\Generated_Source\PSoC5/USBFS_std.c ****     {
ARM GAS  C:\Users\VICTOR~1\AppData\Local\Temp\ccl24Kua.s 			page 63


1088:.\Generated_Source\PSoC5/USBFS_std.c ****         /* Clear the endpoint Halt */
1089:.\Generated_Source\PSoC5/USBFS_std.c ****         USBFS_EP[ep].hwEpState &= (uint8)~(USBFS_ENDPOINT_STATUS_HALT);
 2390              		.loc 1 1089 0 is_stmt 1
 2391 003c B979     		ldrb	r1, [r7, #6]	@ zero_extendqisi2
 2392 003e B879     		ldrb	r0, [r7, #6]	@ zero_extendqisi2
 2393 0040 40F20002 		movw	r2, #:lower16:USBFS_EP
 2394 0044 C0F20002 		movt	r2, #:upper16:USBFS_EP
 2395 0048 0346     		mov	r3, r0
 2396 004a 4FEA4303 		lsl	r3, r3, #1
 2397 004e 1B18     		adds	r3, r3, r0
 2398 0050 4FEA8303 		lsl	r3, r3, #2
 2399 0054 D318     		adds	r3, r2, r3
 2400 0056 9B78     		ldrb	r3, [r3, #2]
 2401 0058 DBB2     		uxtb	r3, r3
 2402 005a 23F00103 		bic	r3, r3, #1
 2403 005e D8B2     		uxtb	r0, r3
 2404 0060 40F20002 		movw	r2, #:lower16:USBFS_EP
 2405 0064 C0F20002 		movt	r2, #:upper16:USBFS_EP
 2406 0068 0B46     		mov	r3, r1
 2407 006a 4FEA4303 		lsl	r3, r3, #1
 2408 006e 5B18     		adds	r3, r3, r1
 2409 0070 4FEA8303 		lsl	r3, r3, #2
 2410 0074 D318     		adds	r3, r2, r3
 2411 0076 0246     		mov	r2, r0
 2412 0078 9A70     		strb	r2, [r3, #2]
1090:.\Generated_Source\PSoC5/USBFS_std.c **** 
1091:.\Generated_Source\PSoC5/USBFS_std.c ****         /* Clear the data toggle */
1092:.\Generated_Source\PSoC5/USBFS_std.c ****         USBFS_EP[ep].epToggle = 0u;
 2413              		.loc 1 1092 0
 2414 007a B979     		ldrb	r1, [r7, #6]	@ zero_extendqisi2
 2415 007c 40F20002 		movw	r2, #:lower16:USBFS_EP
 2416 0080 C0F20002 		movt	r2, #:upper16:USBFS_EP
 2417 0084 0B46     		mov	r3, r1
 2418 0086 4FEA4303 		lsl	r3, r3, #1
 2419 008a 5B18     		adds	r3, r3, r1
 2420 008c 4FEA8303 		lsl	r3, r3, #2
 2421 0090 D318     		adds	r3, r2, r3
 2422 0092 4FF00002 		mov	r2, #0
 2423 0096 DA70     		strb	r2, [r3, #3]
1093:.\Generated_Source\PSoC5/USBFS_std.c ****         /* Clear toggle bit for already armed packet */
1094:.\Generated_Source\PSoC5/USBFS_std.c ****         CY_SET_REG8((reg8 *)(USBFS_SIE_EP1_CNT0_IND + ri), CY_GET_REG8(
 2424              		.loc 1 1094 0
 2425 0098 7A79     		ldrb	r2, [r7, #5]	@ zero_extendqisi2
 2426 009a 46F20C03 		movw	r3, #24588
 2427 009e C4F20003 		movt	r3, 16384
 2428 00a2 D318     		adds	r3, r2, r3
 2429 00a4 1A46     		mov	r2, r3
 2430 00a6 7979     		ldrb	r1, [r7, #5]	@ zero_extendqisi2
 2431 00a8 46F20C03 		movw	r3, #24588
 2432 00ac C4F20003 		movt	r3, 16384
 2433 00b0 CB18     		adds	r3, r1, r3
 2434 00b2 1B78     		ldrb	r3, [r3, #0]
 2435 00b4 DBB2     		uxtb	r3, r3
 2436 00b6 03F07F03 		and	r3, r3, #127
 2437 00ba DBB2     		uxtb	r3, r3
 2438 00bc 1370     		strb	r3, [r2, #0]
1095:.\Generated_Source\PSoC5/USBFS_std.c ****                     (reg8 *)(USBFS_SIE_EP1_CNT0_IND + ri)) & (uint8)~USBFS_EPX_CNT_DATA_TOGGLE);
ARM GAS  C:\Users\VICTOR~1\AppData\Local\Temp\ccl24Kua.s 			page 64


1096:.\Generated_Source\PSoC5/USBFS_std.c ****         /* Return API State as it was defined before */
1097:.\Generated_Source\PSoC5/USBFS_std.c ****         USBFS_EP[ep].apiEpState &= (uint8)~USBFS_NO_EVENT_ALLOWED;
 2439              		.loc 1 1097 0
 2440 00be B979     		ldrb	r1, [r7, #6]	@ zero_extendqisi2
 2441 00c0 B879     		ldrb	r0, [r7, #6]	@ zero_extendqisi2
 2442 00c2 40F20002 		movw	r2, #:lower16:USBFS_EP
 2443 00c6 C0F20002 		movt	r2, #:upper16:USBFS_EP
 2444 00ca 0346     		mov	r3, r0
 2445 00cc 4FEA4303 		lsl	r3, r3, #1
 2446 00d0 1B18     		adds	r3, r3, r0
 2447 00d2 4FEA8303 		lsl	r3, r3, #2
 2448 00d6 D318     		adds	r3, r2, r3
 2449 00d8 5B78     		ldrb	r3, [r3, #1]
 2450 00da DBB2     		uxtb	r3, r3
 2451 00dc 23F00203 		bic	r3, r3, #2
 2452 00e0 D8B2     		uxtb	r0, r3
 2453 00e2 40F20002 		movw	r2, #:lower16:USBFS_EP
 2454 00e6 C0F20002 		movt	r2, #:upper16:USBFS_EP
 2455 00ea 0B46     		mov	r3, r1
 2456 00ec 4FEA4303 		lsl	r3, r3, #1
 2457 00f0 5B18     		adds	r3, r3, r1
 2458 00f2 4FEA8303 		lsl	r3, r3, #2
 2459 00f6 D318     		adds	r3, r2, r3
 2460 00f8 0246     		mov	r2, r0
 2461 00fa 5A70     		strb	r2, [r3, #1]
1098:.\Generated_Source\PSoC5/USBFS_std.c **** 
1099:.\Generated_Source\PSoC5/USBFS_std.c ****         if ((USBFS_EP[ep].addr & USBFS_DIR_IN) != 0u)
 2462              		.loc 1 1099 0
 2463 00fc B979     		ldrb	r1, [r7, #6]	@ zero_extendqisi2
 2464 00fe 40F20002 		movw	r2, #:lower16:USBFS_EP
 2465 0102 C0F20002 		movt	r2, #:upper16:USBFS_EP
 2466 0106 0B46     		mov	r3, r1
 2467 0108 4FEA4303 		lsl	r3, r3, #1
 2468 010c 5B18     		adds	r3, r3, r1
 2469 010e 4FEA8303 		lsl	r3, r3, #2
 2470 0112 D318     		adds	r3, r2, r3
 2471 0114 1B79     		ldrb	r3, [r3, #4]
 2472 0116 DBB2     		uxtb	r3, r3
 2473 0118 DBB2     		uxtb	r3, r3
 2474 011a 5BB2     		sxtb	r3, r3
 2475 011c 002B     		cmp	r3, #0
 2476 011e 23DA     		bge	.L128
1100:.\Generated_Source\PSoC5/USBFS_std.c ****         {
1101:.\Generated_Source\PSoC5/USBFS_std.c ****             /* IN Endpoint */
1102:.\Generated_Source\PSoC5/USBFS_std.c ****             if(USBFS_EP[ep].apiEpState == USBFS_IN_BUFFER_EMPTY)
 2477              		.loc 1 1102 0
 2478 0120 B979     		ldrb	r1, [r7, #6]	@ zero_extendqisi2
 2479 0122 40F20002 		movw	r2, #:lower16:USBFS_EP
 2480 0126 C0F20002 		movt	r2, #:upper16:USBFS_EP
 2481 012a 0B46     		mov	r3, r1
 2482 012c 4FEA4303 		lsl	r3, r3, #1
 2483 0130 5B18     		adds	r3, r3, r1
 2484 0132 4FEA8303 		lsl	r3, r3, #2
 2485 0136 D318     		adds	r3, r2, r3
 2486 0138 5B78     		ldrb	r3, [r3, #1]
 2487 013a DBB2     		uxtb	r3, r3
 2488 013c 012B     		cmp	r3, #1
ARM GAS  C:\Users\VICTOR~1\AppData\Local\Temp\ccl24Kua.s 			page 65


 2489 013e 09D1     		bne	.L129
1103:.\Generated_Source\PSoC5/USBFS_std.c ****             {       /* Wait for next packet from application */
1104:.\Generated_Source\PSoC5/USBFS_std.c ****                 CY_SET_REG8((reg8 *)(USBFS_SIE_EP1_CR0_IND + ri), USBFS_MODE_NAK_IN);
 2490              		.loc 1 1104 0
 2491 0140 7A79     		ldrb	r2, [r7, #5]	@ zero_extendqisi2
 2492 0142 46F20E03 		movw	r3, #24590
 2493 0146 C4F20003 		movt	r3, 16384
 2494 014a D318     		adds	r3, r2, r3
 2495 014c 4FF00C02 		mov	r2, #12
 2496 0150 1A70     		strb	r2, [r3, #0]
 2497 0152 2CE0     		b	.L130
 2498              	.L129:
1105:.\Generated_Source\PSoC5/USBFS_std.c ****             }
1106:.\Generated_Source\PSoC5/USBFS_std.c ****             else    /* Continue armed transfer */
1107:.\Generated_Source\PSoC5/USBFS_std.c ****             {
1108:.\Generated_Source\PSoC5/USBFS_std.c ****                 CY_SET_REG8((reg8 *)(USBFS_SIE_EP1_CR0_IND + ri), USBFS_MODE_ACK_IN);
 2499              		.loc 1 1108 0
 2500 0154 7A79     		ldrb	r2, [r7, #5]	@ zero_extendqisi2
 2501 0156 46F20E03 		movw	r3, #24590
 2502 015a C4F20003 		movt	r3, 16384
 2503 015e D318     		adds	r3, r2, r3
 2504 0160 4FF00D02 		mov	r2, #13
 2505 0164 1A70     		strb	r2, [r3, #0]
 2506 0166 22E0     		b	.L130
 2507              	.L128:
1109:.\Generated_Source\PSoC5/USBFS_std.c ****             }
1110:.\Generated_Source\PSoC5/USBFS_std.c ****         }
1111:.\Generated_Source\PSoC5/USBFS_std.c ****         else
1112:.\Generated_Source\PSoC5/USBFS_std.c ****         {
1113:.\Generated_Source\PSoC5/USBFS_std.c ****             /* OUT Endpoint */
1114:.\Generated_Source\PSoC5/USBFS_std.c ****             if(USBFS_EP[ep].apiEpState == USBFS_OUT_BUFFER_FULL)
 2508              		.loc 1 1114 0
 2509 0168 B979     		ldrb	r1, [r7, #6]	@ zero_extendqisi2
 2510 016a 40F20002 		movw	r2, #:lower16:USBFS_EP
 2511 016e C0F20002 		movt	r2, #:upper16:USBFS_EP
 2512 0172 0B46     		mov	r3, r1
 2513 0174 4FEA4303 		lsl	r3, r3, #1
 2514 0178 5B18     		adds	r3, r3, r1
 2515 017a 4FEA8303 		lsl	r3, r3, #2
 2516 017e D318     		adds	r3, r2, r3
 2517 0180 5B78     		ldrb	r3, [r3, #1]
 2518 0182 DBB2     		uxtb	r3, r3
 2519 0184 012B     		cmp	r3, #1
 2520 0186 09D1     		bne	.L131
1115:.\Generated_Source\PSoC5/USBFS_std.c ****             {       /* Allow application to read full buffer */
1116:.\Generated_Source\PSoC5/USBFS_std.c ****                 CY_SET_REG8((reg8 *)(USBFS_SIE_EP1_CR0_IND + ri), USBFS_MODE_NAK_OUT);
 2521              		.loc 1 1116 0
 2522 0188 7A79     		ldrb	r2, [r7, #5]	@ zero_extendqisi2
 2523 018a 46F20E03 		movw	r3, #24590
 2524 018e C4F20003 		movt	r3, 16384
 2525 0192 D318     		adds	r3, r2, r3
 2526 0194 4FF00802 		mov	r2, #8
 2527 0198 1A70     		strb	r2, [r3, #0]
 2528 019a 08E0     		b	.L130
 2529              	.L131:
1117:.\Generated_Source\PSoC5/USBFS_std.c ****             }
1118:.\Generated_Source\PSoC5/USBFS_std.c ****             else    /* Mark endpoint as empty, so it will be reloaded */
ARM GAS  C:\Users\VICTOR~1\AppData\Local\Temp\ccl24Kua.s 			page 66


1119:.\Generated_Source\PSoC5/USBFS_std.c ****             {
1120:.\Generated_Source\PSoC5/USBFS_std.c ****                 CY_SET_REG8((reg8 *)(USBFS_SIE_EP1_CR0_IND + ri), USBFS_MODE_ACK_OUT);
 2530              		.loc 1 1120 0
 2531 019c 7A79     		ldrb	r2, [r7, #5]	@ zero_extendqisi2
 2532 019e 46F20E03 		movw	r3, #24590
 2533 01a2 C4F20003 		movt	r3, 16384
 2534 01a6 D318     		adds	r3, r2, r3
 2535 01a8 4FF00902 		mov	r2, #9
 2536 01ac 1A70     		strb	r2, [r3, #0]
 2537              	.L130:
1121:.\Generated_Source\PSoC5/USBFS_std.c ****             }
1122:.\Generated_Source\PSoC5/USBFS_std.c ****         }
1123:.\Generated_Source\PSoC5/USBFS_std.c ****         requestHandled = USBFS_InitNoDataControlTransfer();
 2538              		.loc 1 1123 0
 2539 01ae FFF7FEFF 		bl	USBFS_InitNoDataControlTransfer
 2540 01b2 0346     		mov	r3, r0
 2541 01b4 FB71     		strb	r3, [r7, #7]
 2542              	.L127:
1124:.\Generated_Source\PSoC5/USBFS_std.c ****     }
1125:.\Generated_Source\PSoC5/USBFS_std.c **** 
1126:.\Generated_Source\PSoC5/USBFS_std.c ****     return(requestHandled);
 2543              		.loc 1 1126 0
 2544 01b6 FB79     		ldrb	r3, [r7, #7]	@ zero_extendqisi2
1127:.\Generated_Source\PSoC5/USBFS_std.c **** }
 2545              		.loc 1 1127 0
 2546 01b8 1846     		mov	r0, r3
 2547 01ba 07F10807 		add	r7, r7, #8
 2548 01be BD46     		mov	sp, r7
 2549 01c0 80BD     		pop	{r7, pc}
 2550              		.cfi_endproc
 2551              	.LFE9:
 2552              		.size	USBFS_ClearEndpointHalt, .-USBFS_ClearEndpointHalt
 2553 01c2 00BF     		.section	.text.USBFS_ValidateAlternateSetting,"ax",%progbits
 2554              		.align	2
 2555              		.global	USBFS_ValidateAlternateSetting
 2556              		.thumb
 2557              		.thumb_func
 2558              		.type	USBFS_ValidateAlternateSetting, %function
 2559              	USBFS_ValidateAlternateSetting:
 2560              	.LFB10:
1128:.\Generated_Source\PSoC5/USBFS_std.c **** 
1129:.\Generated_Source\PSoC5/USBFS_std.c **** 
1130:.\Generated_Source\PSoC5/USBFS_std.c **** /*******************************************************************************
1131:.\Generated_Source\PSoC5/USBFS_std.c **** * Function Name: USBFS_ValidateAlternateSetting
1132:.\Generated_Source\PSoC5/USBFS_std.c **** ********************************************************************************
1133:.\Generated_Source\PSoC5/USBFS_std.c **** *
1134:.\Generated_Source\PSoC5/USBFS_std.c **** * Summary:
1135:.\Generated_Source\PSoC5/USBFS_std.c **** *  Validates (and records) a SET INTERFACE request.
1136:.\Generated_Source\PSoC5/USBFS_std.c **** *
1137:.\Generated_Source\PSoC5/USBFS_std.c **** * Parameters:
1138:.\Generated_Source\PSoC5/USBFS_std.c **** *  None.
1139:.\Generated_Source\PSoC5/USBFS_std.c **** *
1140:.\Generated_Source\PSoC5/USBFS_std.c **** * Return:
1141:.\Generated_Source\PSoC5/USBFS_std.c **** *  requestHandled.
1142:.\Generated_Source\PSoC5/USBFS_std.c **** *
1143:.\Generated_Source\PSoC5/USBFS_std.c **** * Reentrant:
1144:.\Generated_Source\PSoC5/USBFS_std.c **** *  No.
ARM GAS  C:\Users\VICTOR~1\AppData\Local\Temp\ccl24Kua.s 			page 67


1145:.\Generated_Source\PSoC5/USBFS_std.c **** *
1146:.\Generated_Source\PSoC5/USBFS_std.c **** *******************************************************************************/
1147:.\Generated_Source\PSoC5/USBFS_std.c **** uint8 USBFS_ValidateAlternateSetting(void) 
1148:.\Generated_Source\PSoC5/USBFS_std.c **** {
 2561              		.loc 1 1148 0
 2562              		.cfi_startproc
 2563              		@ args = 0, pretend = 0, frame = 16
 2564              		@ frame_needed = 1, uses_anonymous_args = 0
 2565 0000 80B5     		push	{r7, lr}
 2566              	.LCFI29:
 2567              		.cfi_def_cfa_offset 8
 2568              		.cfi_offset 7, -8
 2569              		.cfi_offset 14, -4
 2570 0002 84B0     		sub	sp, sp, #16
 2571              	.LCFI30:
 2572              		.cfi_def_cfa_offset 24
 2573 0004 00AF     		add	r7, sp, #0
 2574              	.LCFI31:
 2575              		.cfi_def_cfa_register 7
1149:.\Generated_Source\PSoC5/USBFS_std.c ****     uint8 requestHandled = USBFS_TRUE;
 2576              		.loc 1 1149 0
 2577 0006 4FF00103 		mov	r3, #1
 2578 000a FB73     		strb	r3, [r7, #15]
1150:.\Generated_Source\PSoC5/USBFS_std.c ****     uint8 interfaceNum;
1151:.\Generated_Source\PSoC5/USBFS_std.c ****     const T_USBFS_LUT CYCODE *pTmp;
1152:.\Generated_Source\PSoC5/USBFS_std.c ****     uint8 currentInterfacesNum;
1153:.\Generated_Source\PSoC5/USBFS_std.c **** 
1154:.\Generated_Source\PSoC5/USBFS_std.c ****     interfaceNum = CY_GET_REG8(USBFS_wIndexLo);
 2579              		.loc 1 1154 0
 2580 000c 46F20403 		movw	r3, #24580
 2581 0010 C4F20003 		movt	r3, 16384
 2582 0014 1B78     		ldrb	r3, [r3, #0]
 2583 0016 BB73     		strb	r3, [r7, #14]
1155:.\Generated_Source\PSoC5/USBFS_std.c ****     /* Validate interface setting, stall if invalid. */
1156:.\Generated_Source\PSoC5/USBFS_std.c ****     pTmp = USBFS_GetConfigTablePtr(USBFS_configuration - 1u);
 2584              		.loc 1 1156 0
 2585 0018 40F20003 		movw	r3, #:lower16:USBFS_configuration
 2586 001c C0F20003 		movt	r3, #:upper16:USBFS_configuration
 2587 0020 1B78     		ldrb	r3, [r3, #0]
 2588 0022 DBB2     		uxtb	r3, r3
 2589 0024 03F1FF33 		add	r3, r3, #-1
 2590 0028 DBB2     		uxtb	r3, r3
 2591 002a 1846     		mov	r0, r3
 2592 002c FFF7FEFF 		bl	USBFS_GetConfigTablePtr
 2593 0030 B860     		str	r0, [r7, #8]
1157:.\Generated_Source\PSoC5/USBFS_std.c ****     currentInterfacesNum  = ((const uint8 *) pTmp->p_list)[USBFS_CONFIG_DESCR_NUM_INTERFACES];
 2594              		.loc 1 1157 0
 2595 0032 BB68     		ldr	r3, [r7, #8]
 2596 0034 5B68     		ldr	r3, [r3, #4]
 2597 0036 1B79     		ldrb	r3, [r3, #4]
 2598 0038 FB71     		strb	r3, [r7, #7]
1158:.\Generated_Source\PSoC5/USBFS_std.c **** 
1159:.\Generated_Source\PSoC5/USBFS_std.c ****     if((interfaceNum >= currentInterfacesNum) || (interfaceNum >= USBFS_MAX_INTERFACES_NUMBER))
 2599              		.loc 1 1159 0
 2600 003a BA7B     		ldrb	r2, [r7, #14]	@ zero_extendqisi2
 2601 003c FB79     		ldrb	r3, [r7, #7]	@ zero_extendqisi2
 2602 003e 9A42     		cmp	r2, r3
ARM GAS  C:\Users\VICTOR~1\AppData\Local\Temp\ccl24Kua.s 			page 68


 2603 0040 02D2     		bcs	.L134
 2604              		.loc 1 1159 0 is_stmt 0 discriminator 1
 2605 0042 BB7B     		ldrb	r3, [r7, #14]	@ zero_extendqisi2
 2606 0044 002B     		cmp	r3, #0
 2607 0046 03D0     		beq	.L135
 2608              	.L134:
1160:.\Generated_Source\PSoC5/USBFS_std.c ****     {   /* Wrong interface number */
1161:.\Generated_Source\PSoC5/USBFS_std.c ****         requestHandled = USBFS_FALSE;
 2609              		.loc 1 1161 0 is_stmt 1
 2610 0048 4FF00003 		mov	r3, #0
 2611 004c FB73     		strb	r3, [r7, #15]
 2612 004e 18E0     		b	.L136
 2613              	.L135:
1162:.\Generated_Source\PSoC5/USBFS_std.c ****     }
1163:.\Generated_Source\PSoC5/USBFS_std.c ****     else
1164:.\Generated_Source\PSoC5/USBFS_std.c ****     {
1165:.\Generated_Source\PSoC5/USBFS_std.c ****         /* Save current Alt setting to find out the difference in Config() function */
1166:.\Generated_Source\PSoC5/USBFS_std.c ****         USBFS_interfaceSetting_last[interfaceNum] = USBFS_interfaceSetting[interfaceNum];
 2614              		.loc 1 1166 0
 2615 0050 BA7B     		ldrb	r2, [r7, #14]	@ zero_extendqisi2
 2616 0052 B97B     		ldrb	r1, [r7, #14]	@ zero_extendqisi2
 2617 0054 40F20003 		movw	r3, #:lower16:USBFS_interfaceSetting
 2618 0058 C0F20003 		movt	r3, #:upper16:USBFS_interfaceSetting
 2619 005c 5B5C     		ldrb	r3, [r3, r1]
 2620 005e D9B2     		uxtb	r1, r3
 2621 0060 40F20003 		movw	r3, #:lower16:USBFS_interfaceSetting_last
 2622 0064 C0F20003 		movt	r3, #:upper16:USBFS_interfaceSetting_last
 2623 0068 9954     		strb	r1, [r3, r2]
1167:.\Generated_Source\PSoC5/USBFS_std.c ****         USBFS_interfaceSetting[interfaceNum] = CY_GET_REG8(USBFS_wValueLo);
 2624              		.loc 1 1167 0
 2625 006a BA7B     		ldrb	r2, [r7, #14]	@ zero_extendqisi2
 2626 006c 46F20203 		movw	r3, #24578
 2627 0070 C4F20003 		movt	r3, 16384
 2628 0074 1B78     		ldrb	r3, [r3, #0]
 2629 0076 D9B2     		uxtb	r1, r3
 2630 0078 40F20003 		movw	r3, #:lower16:USBFS_interfaceSetting
 2631 007c C0F20003 		movt	r3, #:upper16:USBFS_interfaceSetting
 2632 0080 9954     		strb	r1, [r3, r2]
 2633              	.L136:
1168:.\Generated_Source\PSoC5/USBFS_std.c ****     }
1169:.\Generated_Source\PSoC5/USBFS_std.c **** 
1170:.\Generated_Source\PSoC5/USBFS_std.c ****     return (requestHandled);
 2634              		.loc 1 1170 0
 2635 0082 FB7B     		ldrb	r3, [r7, #15]	@ zero_extendqisi2
1171:.\Generated_Source\PSoC5/USBFS_std.c **** }
 2636              		.loc 1 1171 0
 2637 0084 1846     		mov	r0, r3
 2638 0086 07F11007 		add	r7, r7, #16
 2639 008a BD46     		mov	sp, r7
 2640 008c 80BD     		pop	{r7, pc}
 2641              		.cfi_endproc
 2642              	.LFE10:
 2643              		.size	USBFS_ValidateAlternateSetting, .-USBFS_ValidateAlternateSetting
 2644              		.bss
 2645              		.align	2
 2646              	USBFS_tBuffer.4976:
 2647 0000 0000     		.space	2
ARM GAS  C:\Users\VICTOR~1\AppData\Local\Temp\ccl24Kua.s 			page 69


 2648 0002 0000     		.text
 2649              	.Letext0:
 2650              		.file 2 ".\\Generated_Source\\PSoC5\\cytypes.h"
 2651              		.file 3 ".\\Generated_Source\\PSoC5\\USBFS.h"
 2652              		.file 4 ".\\Generated_Source\\PSoC5\\USBFS_pvt.h"